
FMCWRadarFirmware.elf:     file format elf32-littlearm

Sections:
Idx Name          Size      VMA       LMA       File off  Algn
  0 .isr_vector   000001ac  08000000  08000000  00001000  2**0
                  CONTENTS, ALLOC, LOAD, READONLY, DATA
  1 .text         00008e10  080001b0  080001b0  000011b0  2**4
                  CONTENTS, ALLOC, LOAD, READONLY, CODE
  2 .rodata       00001964  08008fc0  08008fc0  00009fc0  2**2
                  CONTENTS, ALLOC, LOAD, READONLY, DATA
  3 .ARM.extab    00000000  0800a924  0800a924  0000c068  2**0
                  CONTENTS, READONLY
  4 .ARM          00000008  0800a924  0800a924  0000b924  2**2
                  CONTENTS, ALLOC, LOAD, READONLY, DATA
  5 .preinit_array 00000000  0800a92c  0800a92c  0000c068  2**0
                  CONTENTS, ALLOC, LOAD, DATA
  6 .init_array   00000004  0800a92c  0800a92c  0000b92c  2**2
                  CONTENTS, ALLOC, LOAD, READONLY, DATA
  7 .fini_array   00000004  0800a930  0800a930  0000b930  2**2
                  CONTENTS, ALLOC, LOAD, READONLY, DATA
  8 .data         00000068  20000000  0800a934  0000c000  2**2
                  CONTENTS, ALLOC, LOAD, DATA
  9 .ccmram       00000000  10000000  10000000  0000c068  2**0
                  CONTENTS
 10 .bss          000297f4  20000068  20000068  0000c068  2**3
                  ALLOC
 11 ._user_heap_stack 00001204  2002985c  2002985c  0000c068  2**0
                  ALLOC
 12 .ARM.attributes 00000030  00000000  00000000  0000c068  2**0
                  CONTENTS, READONLY
 13 .debug_info   0000fad5  00000000  00000000  0000c098  2**0
                  CONTENTS, READONLY, DEBUGGING, OCTETS
 14 .debug_abbrev 00002d2c  00000000  00000000  0001bb6d  2**0
                  CONTENTS, READONLY, DEBUGGING, OCTETS
 15 .debug_aranges 00000dd8  00000000  00000000  0001e8a0  2**3
                  CONTENTS, READONLY, DEBUGGING, OCTETS
 16 .debug_rnglists 00000a6e  00000000  00000000  0001f678  2**0
                  CONTENTS, READONLY, DEBUGGING, OCTETS
 17 .debug_macro  000254fd  00000000  00000000  000200e6  2**0
                  CONTENTS, READONLY, DEBUGGING, OCTETS
 18 .debug_line   00010c1d  00000000  00000000  000455e3  2**0
                  CONTENTS, READONLY, DEBUGGING, OCTETS
 19 .debug_str    000d8f10  00000000  00000000  00056200  2**0
                  CONTENTS, READONLY, DEBUGGING, OCTETS
 20 .comment      00000043  00000000  00000000  0012f110  2**0
                  CONTENTS, READONLY
 21 .debug_frame  00004064  00000000  00000000  0012f154  2**2
                  CONTENTS, READONLY, DEBUGGING, OCTETS
 22 .debug_line_str 00000060  00000000  00000000  001331b8  2**0
                  CONTENTS, READONLY, DEBUGGING, OCTETS

Disassembly of section .text:

080001b0 <__do_global_dtors_aux>:
 80001b0:	b510      	push	{r4, lr}
 80001b2:	4c05      	ldr	r4, [pc, #20]	@ (80001c8 <__do_global_dtors_aux+0x18>)
 80001b4:	7823      	ldrb	r3, [r4, #0]
 80001b6:	b933      	cbnz	r3, 80001c6 <__do_global_dtors_aux+0x16>
 80001b8:	4b04      	ldr	r3, [pc, #16]	@ (80001cc <__do_global_dtors_aux+0x1c>)
 80001ba:	b113      	cbz	r3, 80001c2 <__do_global_dtors_aux+0x12>
 80001bc:	4804      	ldr	r0, [pc, #16]	@ (80001d0 <__do_global_dtors_aux+0x20>)
 80001be:	f3af 8000 	nop.w
 80001c2:	2301      	movs	r3, #1
 80001c4:	7023      	strb	r3, [r4, #0]
 80001c6:	bd10      	pop	{r4, pc}
 80001c8:	20000068 	.word	0x20000068
 80001cc:	00000000 	.word	0x00000000
 80001d0:	08008fa8 	.word	0x08008fa8

080001d4 <frame_dummy>:
 80001d4:	b508      	push	{r3, lr}
 80001d6:	4b03      	ldr	r3, [pc, #12]	@ (80001e4 <frame_dummy+0x10>)
 80001d8:	b11b      	cbz	r3, 80001e2 <frame_dummy+0xe>
 80001da:	4903      	ldr	r1, [pc, #12]	@ (80001e8 <frame_dummy+0x14>)
 80001dc:	4803      	ldr	r0, [pc, #12]	@ (80001ec <frame_dummy+0x18>)
 80001de:	f3af 8000 	nop.w
 80001e2:	bd08      	pop	{r3, pc}
 80001e4:	00000000 	.word	0x00000000
 80001e8:	2000006c 	.word	0x2000006c
 80001ec:	08008fa8 	.word	0x08008fa8

080001f0 <memchr>:
 80001f0:	f001 01ff 	and.w	r1, r1, #255	@ 0xff
 80001f4:	2a10      	cmp	r2, #16
 80001f6:	db2b      	blt.n	8000250 <memchr+0x60>
 80001f8:	f010 0f07 	tst.w	r0, #7
 80001fc:	d008      	beq.n	8000210 <memchr+0x20>
 80001fe:	f810 3b01 	ldrb.w	r3, [r0], #1
 8000202:	3a01      	subs	r2, #1
 8000204:	428b      	cmp	r3, r1
 8000206:	d02d      	beq.n	8000264 <memchr+0x74>
 8000208:	f010 0f07 	tst.w	r0, #7
 800020c:	b342      	cbz	r2, 8000260 <memchr+0x70>
 800020e:	d1f6      	bne.n	80001fe <memchr+0xe>
 8000210:	b4f0      	push	{r4, r5, r6, r7}
 8000212:	ea41 2101 	orr.w	r1, r1, r1, lsl #8
 8000216:	ea41 4101 	orr.w	r1, r1, r1, lsl #16
 800021a:	f022 0407 	bic.w	r4, r2, #7
 800021e:	f07f 0700 	mvns.w	r7, #0
 8000222:	2300      	movs	r3, #0
 8000224:	e8f0 5602 	ldrd	r5, r6, [r0], #8
 8000228:	3c08      	subs	r4, #8
 800022a:	ea85 0501 	eor.w	r5, r5, r1
 800022e:	ea86 0601 	eor.w	r6, r6, r1
 8000232:	fa85 f547 	uadd8	r5, r5, r7
 8000236:	faa3 f587 	sel	r5, r3, r7
 800023a:	fa86 f647 	uadd8	r6, r6, r7
 800023e:	faa5 f687 	sel	r6, r5, r7
 8000242:	b98e      	cbnz	r6, 8000268 <memchr+0x78>
 8000244:	d1ee      	bne.n	8000224 <memchr+0x34>
 8000246:	bcf0      	pop	{r4, r5, r6, r7}
 8000248:	f001 01ff 	and.w	r1, r1, #255	@ 0xff
 800024c:	f002 0207 	and.w	r2, r2, #7
 8000250:	b132      	cbz	r2, 8000260 <memchr+0x70>
 8000252:	f810 3b01 	ldrb.w	r3, [r0], #1
 8000256:	3a01      	subs	r2, #1
 8000258:	ea83 0301 	eor.w	r3, r3, r1
 800025c:	b113      	cbz	r3, 8000264 <memchr+0x74>
 800025e:	d1f8      	bne.n	8000252 <memchr+0x62>
 8000260:	2000      	movs	r0, #0
 8000262:	4770      	bx	lr
 8000264:	3801      	subs	r0, #1
 8000266:	4770      	bx	lr
 8000268:	2d00      	cmp	r5, #0
 800026a:	bf06      	itte	eq
 800026c:	4635      	moveq	r5, r6
 800026e:	3803      	subeq	r0, #3
 8000270:	3807      	subne	r0, #7
 8000272:	f015 0f01 	tst.w	r5, #1
 8000276:	d107      	bne.n	8000288 <memchr+0x98>
 8000278:	3001      	adds	r0, #1
 800027a:	f415 7f80 	tst.w	r5, #256	@ 0x100
 800027e:	bf02      	ittt	eq
 8000280:	3001      	addeq	r0, #1
 8000282:	f415 3fc0 	tsteq.w	r5, #98304	@ 0x18000
 8000286:	3001      	addeq	r0, #1
 8000288:	bcf0      	pop	{r4, r5, r6, r7}
 800028a:	3801      	subs	r0, #1
 800028c:	4770      	bx	lr
 800028e:	bf00      	nop

08000290 <__aeabi_uldivmod>:
 8000290:	b953      	cbnz	r3, 80002a8 <__aeabi_uldivmod+0x18>
 8000292:	b94a      	cbnz	r2, 80002a8 <__aeabi_uldivmod+0x18>
 8000294:	2900      	cmp	r1, #0
 8000296:	bf08      	it	eq
 8000298:	2800      	cmpeq	r0, #0
 800029a:	bf1c      	itt	ne
 800029c:	f04f 31ff 	movne.w	r1, #4294967295
 80002a0:	f04f 30ff 	movne.w	r0, #4294967295
 80002a4:	f000 b988 	b.w	80005b8 <__aeabi_idiv0>
 80002a8:	f1ad 0c08 	sub.w	ip, sp, #8
 80002ac:	e96d ce04 	strd	ip, lr, [sp, #-16]!
 80002b0:	f000 f806 	bl	80002c0 <__udivmoddi4>
 80002b4:	f8dd e004 	ldr.w	lr, [sp, #4]
 80002b8:	e9dd 2302 	ldrd	r2, r3, [sp, #8]
 80002bc:	b004      	add	sp, #16
 80002be:	4770      	bx	lr

080002c0 <__udivmoddi4>:
 80002c0:	e92d 47f0 	stmdb	sp!, {r4, r5, r6, r7, r8, r9, sl, lr}
 80002c4:	9d08      	ldr	r5, [sp, #32]
 80002c6:	468e      	mov	lr, r1
 80002c8:	4604      	mov	r4, r0
 80002ca:	4688      	mov	r8, r1
 80002cc:	2b00      	cmp	r3, #0
 80002ce:	d14a      	bne.n	8000366 <__udivmoddi4+0xa6>
 80002d0:	428a      	cmp	r2, r1
 80002d2:	4617      	mov	r7, r2
 80002d4:	d962      	bls.n	800039c <__udivmoddi4+0xdc>
 80002d6:	fab2 f682 	clz	r6, r2
 80002da:	b14e      	cbz	r6, 80002f0 <__udivmoddi4+0x30>
 80002dc:	f1c6 0320 	rsb	r3, r6, #32
 80002e0:	fa01 f806 	lsl.w	r8, r1, r6
 80002e4:	fa20 f303 	lsr.w	r3, r0, r3
 80002e8:	40b7      	lsls	r7, r6
 80002ea:	ea43 0808 	orr.w	r8, r3, r8
 80002ee:	40b4      	lsls	r4, r6
 80002f0:	ea4f 4e17 	mov.w	lr, r7, lsr #16
 80002f4:	fa1f fc87 	uxth.w	ip, r7
 80002f8:	fbb8 f1fe 	udiv	r1, r8, lr
 80002fc:	0c23      	lsrs	r3, r4, #16
 80002fe:	fb0e 8811 	mls	r8, lr, r1, r8
 8000302:	ea43 4308 	orr.w	r3, r3, r8, lsl #16
 8000306:	fb01 f20c 	mul.w	r2, r1, ip
 800030a:	429a      	cmp	r2, r3
 800030c:	d909      	bls.n	8000322 <__udivmoddi4+0x62>
 800030e:	18fb      	adds	r3, r7, r3
 8000310:	f101 30ff 	add.w	r0, r1, #4294967295
 8000314:	f080 80ea 	bcs.w	80004ec <__udivmoddi4+0x22c>
 8000318:	429a      	cmp	r2, r3
 800031a:	f240 80e7 	bls.w	80004ec <__udivmoddi4+0x22c>
 800031e:	3902      	subs	r1, #2
 8000320:	443b      	add	r3, r7
 8000322:	1a9a      	subs	r2, r3, r2
 8000324:	b2a3      	uxth	r3, r4
 8000326:	fbb2 f0fe 	udiv	r0, r2, lr
 800032a:	fb0e 2210 	mls	r2, lr, r0, r2
 800032e:	ea43 4302 	orr.w	r3, r3, r2, lsl #16
 8000332:	fb00 fc0c 	mul.w	ip, r0, ip
 8000336:	459c      	cmp	ip, r3
 8000338:	d909      	bls.n	800034e <__udivmoddi4+0x8e>
 800033a:	18fb      	adds	r3, r7, r3
 800033c:	f100 32ff 	add.w	r2, r0, #4294967295
 8000340:	f080 80d6 	bcs.w	80004f0 <__udivmoddi4+0x230>
 8000344:	459c      	cmp	ip, r3
 8000346:	f240 80d3 	bls.w	80004f0 <__udivmoddi4+0x230>
 800034a:	443b      	add	r3, r7
 800034c:	3802      	subs	r0, #2
 800034e:	ea40 4001 	orr.w	r0, r0, r1, lsl #16
 8000352:	eba3 030c 	sub.w	r3, r3, ip
 8000356:	2100      	movs	r1, #0
 8000358:	b11d      	cbz	r5, 8000362 <__udivmoddi4+0xa2>
 800035a:	40f3      	lsrs	r3, r6
 800035c:	2200      	movs	r2, #0
 800035e:	e9c5 3200 	strd	r3, r2, [r5]
 8000362:	e8bd 87f0 	ldmia.w	sp!, {r4, r5, r6, r7, r8, r9, sl, pc}
 8000366:	428b      	cmp	r3, r1
 8000368:	d905      	bls.n	8000376 <__udivmoddi4+0xb6>
 800036a:	b10d      	cbz	r5, 8000370 <__udivmoddi4+0xb0>
 800036c:	e9c5 0100 	strd	r0, r1, [r5]
 8000370:	2100      	movs	r1, #0
 8000372:	4608      	mov	r0, r1
 8000374:	e7f5      	b.n	8000362 <__udivmoddi4+0xa2>
 8000376:	fab3 f183 	clz	r1, r3
 800037a:	2900      	cmp	r1, #0
 800037c:	d146      	bne.n	800040c <__udivmoddi4+0x14c>
 800037e:	4573      	cmp	r3, lr
 8000380:	d302      	bcc.n	8000388 <__udivmoddi4+0xc8>
 8000382:	4282      	cmp	r2, r0
 8000384:	f200 8105 	bhi.w	8000592 <__udivmoddi4+0x2d2>
 8000388:	1a84      	subs	r4, r0, r2
 800038a:	eb6e 0203 	sbc.w	r2, lr, r3
 800038e:	2001      	movs	r0, #1
 8000390:	4690      	mov	r8, r2
 8000392:	2d00      	cmp	r5, #0
 8000394:	d0e5      	beq.n	8000362 <__udivmoddi4+0xa2>
 8000396:	e9c5 4800 	strd	r4, r8, [r5]
 800039a:	e7e2      	b.n	8000362 <__udivmoddi4+0xa2>
 800039c:	2a00      	cmp	r2, #0
 800039e:	f000 8090 	beq.w	80004c2 <__udivmoddi4+0x202>
 80003a2:	fab2 f682 	clz	r6, r2
 80003a6:	2e00      	cmp	r6, #0
 80003a8:	f040 80a4 	bne.w	80004f4 <__udivmoddi4+0x234>
 80003ac:	1a8a      	subs	r2, r1, r2
 80003ae:	0c03      	lsrs	r3, r0, #16
 80003b0:	ea4f 4e17 	mov.w	lr, r7, lsr #16
 80003b4:	b280      	uxth	r0, r0
 80003b6:	b2bc      	uxth	r4, r7
 80003b8:	2101      	movs	r1, #1
 80003ba:	fbb2 fcfe 	udiv	ip, r2, lr
 80003be:	fb0e 221c 	mls	r2, lr, ip, r2
 80003c2:	ea43 4302 	orr.w	r3, r3, r2, lsl #16
 80003c6:	fb04 f20c 	mul.w	r2, r4, ip
 80003ca:	429a      	cmp	r2, r3
 80003cc:	d907      	bls.n	80003de <__udivmoddi4+0x11e>
 80003ce:	18fb      	adds	r3, r7, r3
 80003d0:	f10c 38ff 	add.w	r8, ip, #4294967295
 80003d4:	d202      	bcs.n	80003dc <__udivmoddi4+0x11c>
 80003d6:	429a      	cmp	r2, r3
 80003d8:	f200 80e0 	bhi.w	800059c <__udivmoddi4+0x2dc>
 80003dc:	46c4      	mov	ip, r8
 80003de:	1a9b      	subs	r3, r3, r2
 80003e0:	fbb3 f2fe 	udiv	r2, r3, lr
 80003e4:	fb0e 3312 	mls	r3, lr, r2, r3
 80003e8:	ea40 4303 	orr.w	r3, r0, r3, lsl #16
 80003ec:	fb02 f404 	mul.w	r4, r2, r4
 80003f0:	429c      	cmp	r4, r3
 80003f2:	d907      	bls.n	8000404 <__udivmoddi4+0x144>
 80003f4:	18fb      	adds	r3, r7, r3
 80003f6:	f102 30ff 	add.w	r0, r2, #4294967295
 80003fa:	d202      	bcs.n	8000402 <__udivmoddi4+0x142>
 80003fc:	429c      	cmp	r4, r3
 80003fe:	f200 80ca 	bhi.w	8000596 <__udivmoddi4+0x2d6>
 8000402:	4602      	mov	r2, r0
 8000404:	1b1b      	subs	r3, r3, r4
 8000406:	ea42 400c 	orr.w	r0, r2, ip, lsl #16
 800040a:	e7a5      	b.n	8000358 <__udivmoddi4+0x98>
 800040c:	f1c1 0620 	rsb	r6, r1, #32
 8000410:	408b      	lsls	r3, r1
 8000412:	fa22 f706 	lsr.w	r7, r2, r6
 8000416:	431f      	orrs	r7, r3
 8000418:	fa0e f401 	lsl.w	r4, lr, r1
 800041c:	fa20 f306 	lsr.w	r3, r0, r6
 8000420:	fa2e fe06 	lsr.w	lr, lr, r6
 8000424:	ea4f 4917 	mov.w	r9, r7, lsr #16
 8000428:	4323      	orrs	r3, r4
 800042a:	fa00 f801 	lsl.w	r8, r0, r1
 800042e:	fa1f fc87 	uxth.w	ip, r7
 8000432:	fbbe f0f9 	udiv	r0, lr, r9
 8000436:	0c1c      	lsrs	r4, r3, #16
 8000438:	fb09 ee10 	mls	lr, r9, r0, lr
 800043c:	ea44 440e 	orr.w	r4, r4, lr, lsl #16
 8000440:	fb00 fe0c 	mul.w	lr, r0, ip
 8000444:	45a6      	cmp	lr, r4
 8000446:	fa02 f201 	lsl.w	r2, r2, r1
 800044a:	d909      	bls.n	8000460 <__udivmoddi4+0x1a0>
 800044c:	193c      	adds	r4, r7, r4
 800044e:	f100 3aff 	add.w	sl, r0, #4294967295
 8000452:	f080 809c 	bcs.w	800058e <__udivmoddi4+0x2ce>
 8000456:	45a6      	cmp	lr, r4
 8000458:	f240 8099 	bls.w	800058e <__udivmoddi4+0x2ce>
 800045c:	3802      	subs	r0, #2
 800045e:	443c      	add	r4, r7
 8000460:	eba4 040e 	sub.w	r4, r4, lr
 8000464:	fa1f fe83 	uxth.w	lr, r3
 8000468:	fbb4 f3f9 	udiv	r3, r4, r9
 800046c:	fb09 4413 	mls	r4, r9, r3, r4
 8000470:	ea4e 4404 	orr.w	r4, lr, r4, lsl #16
 8000474:	fb03 fc0c 	mul.w	ip, r3, ip
 8000478:	45a4      	cmp	ip, r4
 800047a:	d908      	bls.n	800048e <__udivmoddi4+0x1ce>
 800047c:	193c      	adds	r4, r7, r4
 800047e:	f103 3eff 	add.w	lr, r3, #4294967295
 8000482:	f080 8082 	bcs.w	800058a <__udivmoddi4+0x2ca>
 8000486:	45a4      	cmp	ip, r4
 8000488:	d97f      	bls.n	800058a <__udivmoddi4+0x2ca>
 800048a:	3b02      	subs	r3, #2
 800048c:	443c      	add	r4, r7
 800048e:	ea43 4000 	orr.w	r0, r3, r0, lsl #16
 8000492:	eba4 040c 	sub.w	r4, r4, ip
 8000496:	fba0 ec02 	umull	lr, ip, r0, r2
 800049a:	4564      	cmp	r4, ip
 800049c:	4673      	mov	r3, lr
 800049e:	46e1      	mov	r9, ip
 80004a0:	d362      	bcc.n	8000568 <__udivmoddi4+0x2a8>
 80004a2:	d05f      	beq.n	8000564 <__udivmoddi4+0x2a4>
 80004a4:	b15d      	cbz	r5, 80004be <__udivmoddi4+0x1fe>
 80004a6:	ebb8 0203 	subs.w	r2, r8, r3
 80004aa:	eb64 0409 	sbc.w	r4, r4, r9
 80004ae:	fa04 f606 	lsl.w	r6, r4, r6
 80004b2:	fa22 f301 	lsr.w	r3, r2, r1
 80004b6:	431e      	orrs	r6, r3
 80004b8:	40cc      	lsrs	r4, r1
 80004ba:	e9c5 6400 	strd	r6, r4, [r5]
 80004be:	2100      	movs	r1, #0
 80004c0:	e74f      	b.n	8000362 <__udivmoddi4+0xa2>
 80004c2:	fbb1 fcf2 	udiv	ip, r1, r2
 80004c6:	0c01      	lsrs	r1, r0, #16
 80004c8:	ea41 410e 	orr.w	r1, r1, lr, lsl #16
 80004cc:	b280      	uxth	r0, r0
 80004ce:	ea40 4201 	orr.w	r2, r0, r1, lsl #16
 80004d2:	463b      	mov	r3, r7
 80004d4:	4638      	mov	r0, r7
 80004d6:	463c      	mov	r4, r7
 80004d8:	46b8      	mov	r8, r7
 80004da:	46be      	mov	lr, r7
 80004dc:	2620      	movs	r6, #32
 80004de:	fbb1 f1f7 	udiv	r1, r1, r7
 80004e2:	eba2 0208 	sub.w	r2, r2, r8
 80004e6:	ea41 410c 	orr.w	r1, r1, ip, lsl #16
 80004ea:	e766      	b.n	80003ba <__udivmoddi4+0xfa>
 80004ec:	4601      	mov	r1, r0
 80004ee:	e718      	b.n	8000322 <__udivmoddi4+0x62>
 80004f0:	4610      	mov	r0, r2
 80004f2:	e72c      	b.n	800034e <__udivmoddi4+0x8e>
 80004f4:	f1c6 0220 	rsb	r2, r6, #32
 80004f8:	fa2e f302 	lsr.w	r3, lr, r2
 80004fc:	40b7      	lsls	r7, r6
 80004fe:	40b1      	lsls	r1, r6
 8000500:	fa20 f202 	lsr.w	r2, r0, r2
 8000504:	ea4f 4e17 	mov.w	lr, r7, lsr #16
 8000508:	430a      	orrs	r2, r1
 800050a:	fbb3 f8fe 	udiv	r8, r3, lr
 800050e:	b2bc      	uxth	r4, r7
 8000510:	fb0e 3318 	mls	r3, lr, r8, r3
 8000514:	0c11      	lsrs	r1, r2, #16
 8000516:	ea41 4103 	orr.w	r1, r1, r3, lsl #16
 800051a:	fb08 f904 	mul.w	r9, r8, r4
 800051e:	40b0      	lsls	r0, r6
 8000520:	4589      	cmp	r9, r1
 8000522:	ea4f 4310 	mov.w	r3, r0, lsr #16
 8000526:	b280      	uxth	r0, r0
 8000528:	d93e      	bls.n	80005a8 <__udivmoddi4+0x2e8>
 800052a:	1879      	adds	r1, r7, r1
 800052c:	f108 3cff 	add.w	ip, r8, #4294967295
 8000530:	d201      	bcs.n	8000536 <__udivmoddi4+0x276>
 8000532:	4589      	cmp	r9, r1
 8000534:	d81f      	bhi.n	8000576 <__udivmoddi4+0x2b6>
 8000536:	eba1 0109 	sub.w	r1, r1, r9
 800053a:	fbb1 f9fe 	udiv	r9, r1, lr
 800053e:	fb09 f804 	mul.w	r8, r9, r4
 8000542:	fb0e 1119 	mls	r1, lr, r9, r1
 8000546:	b292      	uxth	r2, r2
 8000548:	ea42 4201 	orr.w	r2, r2, r1, lsl #16
 800054c:	4542      	cmp	r2, r8
 800054e:	d229      	bcs.n	80005a4 <__udivmoddi4+0x2e4>
 8000550:	18ba      	adds	r2, r7, r2
 8000552:	f109 31ff 	add.w	r1, r9, #4294967295
 8000556:	d2c4      	bcs.n	80004e2 <__udivmoddi4+0x222>
 8000558:	4542      	cmp	r2, r8
 800055a:	d2c2      	bcs.n	80004e2 <__udivmoddi4+0x222>
 800055c:	f1a9 0102 	sub.w	r1, r9, #2
 8000560:	443a      	add	r2, r7
 8000562:	e7be      	b.n	80004e2 <__udivmoddi4+0x222>
 8000564:	45f0      	cmp	r8, lr
 8000566:	d29d      	bcs.n	80004a4 <__udivmoddi4+0x1e4>
 8000568:	ebbe 0302 	subs.w	r3, lr, r2
 800056c:	eb6c 0c07 	sbc.w	ip, ip, r7
 8000570:	3801      	subs	r0, #1
 8000572:	46e1      	mov	r9, ip
 8000574:	e796      	b.n	80004a4 <__udivmoddi4+0x1e4>
 8000576:	eba7 0909 	sub.w	r9, r7, r9
 800057a:	4449      	add	r1, r9
 800057c:	f1a8 0c02 	sub.w	ip, r8, #2
 8000580:	fbb1 f9fe 	udiv	r9, r1, lr
 8000584:	fb09 f804 	mul.w	r8, r9, r4
 8000588:	e7db      	b.n	8000542 <__udivmoddi4+0x282>
 800058a:	4673      	mov	r3, lr
 800058c:	e77f      	b.n	800048e <__udivmoddi4+0x1ce>
 800058e:	4650      	mov	r0, sl
 8000590:	e766      	b.n	8000460 <__udivmoddi4+0x1a0>
 8000592:	4608      	mov	r0, r1
 8000594:	e6fd      	b.n	8000392 <__udivmoddi4+0xd2>
 8000596:	443b      	add	r3, r7
 8000598:	3a02      	subs	r2, #2
 800059a:	e733      	b.n	8000404 <__udivmoddi4+0x144>
 800059c:	f1ac 0c02 	sub.w	ip, ip, #2
 80005a0:	443b      	add	r3, r7
 80005a2:	e71c      	b.n	80003de <__udivmoddi4+0x11e>
 80005a4:	4649      	mov	r1, r9
 80005a6:	e79c      	b.n	80004e2 <__udivmoddi4+0x222>
 80005a8:	eba1 0109 	sub.w	r1, r1, r9
 80005ac:	46c4      	mov	ip, r8
 80005ae:	fbb1 f9fe 	udiv	r9, r1, lr
 80005b2:	fb09 f804 	mul.w	r8, r9, r4
 80005b6:	e7c4      	b.n	8000542 <__udivmoddi4+0x282>

080005b8 <__aeabi_idiv0>:
 80005b8:	4770      	bx	lr
 80005ba:	bf00      	nop

080005bc <ADF4158_Init>:

static void ADF4158_Failure(uint32_t stage, HAL_StatusTypeDef status);
static void ADF4158_Write32(uint32_t word);

void ADF4158_Init(void)
{
 80005bc:	b580      	push	{r7, lr}
 80005be:	b08a      	sub	sp, #40	@ 0x28
 80005c0:	af00      	add	r7, sp, #0
  GPIO_InitTypeDef gpio = {0};
 80005c2:	f107 0314 	add.w	r3, r7, #20
 80005c6:	2200      	movs	r2, #0
 80005c8:	601a      	str	r2, [r3, #0]
 80005ca:	605a      	str	r2, [r3, #4]
 80005cc:	609a      	str	r2, [r3, #8]
 80005ce:	60da      	str	r2, [r3, #12]
 80005d0:	611a      	str	r2, [r3, #16]

  adf4158_failure_stage = 0U;
 80005d2:	4b6d      	ldr	r3, [pc, #436]	@ (8000788 <ADF4158_Init+0x1cc>)
 80005d4:	2200      	movs	r2, #0
 80005d6:	601a      	str	r2, [r3, #0]
  adf4158_failure_status = HAL_OK;
 80005d8:	4b6c      	ldr	r3, [pc, #432]	@ (800078c <ADF4158_Init+0x1d0>)
 80005da:	2200      	movs	r2, #0
 80005dc:	601a      	str	r2, [r3, #0]

  __HAL_RCC_GPIOA_CLK_ENABLE();
 80005de:	2300      	movs	r3, #0
 80005e0:	613b      	str	r3, [r7, #16]
 80005e2:	4b6b      	ldr	r3, [pc, #428]	@ (8000790 <ADF4158_Init+0x1d4>)
 80005e4:	6b1b      	ldr	r3, [r3, #48]	@ 0x30
 80005e6:	4a6a      	ldr	r2, [pc, #424]	@ (8000790 <ADF4158_Init+0x1d4>)
 80005e8:	f043 0301 	orr.w	r3, r3, #1
 80005ec:	6313      	str	r3, [r2, #48]	@ 0x30
 80005ee:	4b68      	ldr	r3, [pc, #416]	@ (8000790 <ADF4158_Init+0x1d4>)
 80005f0:	6b1b      	ldr	r3, [r3, #48]	@ 0x30
 80005f2:	f003 0301 	and.w	r3, r3, #1
 80005f6:	613b      	str	r3, [r7, #16]
 80005f8:	693b      	ldr	r3, [r7, #16]
  __HAL_RCC_GPIOD_CLK_ENABLE();
 80005fa:	2300      	movs	r3, #0
 80005fc:	60fb      	str	r3, [r7, #12]
 80005fe:	4b64      	ldr	r3, [pc, #400]	@ (8000790 <ADF4158_Init+0x1d4>)
 8000600:	6b1b      	ldr	r3, [r3, #48]	@ 0x30
 8000602:	4a63      	ldr	r2, [pc, #396]	@ (8000790 <ADF4158_Init+0x1d4>)
 8000604:	f043 0308 	orr.w	r3, r3, #8
 8000608:	6313      	str	r3, [r2, #48]	@ 0x30
 800060a:	4b61      	ldr	r3, [pc, #388]	@ (8000790 <ADF4158_Init+0x1d4>)
 800060c:	6b1b      	ldr	r3, [r3, #48]	@ 0x30
 800060e:	f003 0308 	and.w	r3, r3, #8
 8000612:	60fb      	str	r3, [r7, #12]
 8000614:	68fb      	ldr	r3, [r7, #12]
  __HAL_RCC_GPIOE_CLK_ENABLE();
 8000616:	2300      	movs	r3, #0
 8000618:	60bb      	str	r3, [r7, #8]
 800061a:	4b5d      	ldr	r3, [pc, #372]	@ (8000790 <ADF4158_Init+0x1d4>)
 800061c:	6b1b      	ldr	r3, [r3, #48]	@ 0x30
 800061e:	4a5c      	ldr	r2, [pc, #368]	@ (8000790 <ADF4158_Init+0x1d4>)
 8000620:	f043 0310 	orr.w	r3, r3, #16
 8000624:	6313      	str	r3, [r2, #48]	@ 0x30
 8000626:	4b5a      	ldr	r3, [pc, #360]	@ (8000790 <ADF4158_Init+0x1d4>)
 8000628:	6b1b      	ldr	r3, [r3, #48]	@ 0x30
 800062a:	f003 0310 	and.w	r3, r3, #16
 800062e:	60bb      	str	r3, [r7, #8]
 8000630:	68bb      	ldr	r3, [r7, #8]
  __HAL_RCC_SPI4_CLK_ENABLE();
 8000632:	2300      	movs	r3, #0
 8000634:	607b      	str	r3, [r7, #4]
 8000636:	4b56      	ldr	r3, [pc, #344]	@ (8000790 <ADF4158_Init+0x1d4>)
 8000638:	6c5b      	ldr	r3, [r3, #68]	@ 0x44
 800063a:	4a55      	ldr	r2, [pc, #340]	@ (8000790 <ADF4158_Init+0x1d4>)
 800063c:	f443 5300 	orr.w	r3, r3, #8192	@ 0x2000
 8000640:	6453      	str	r3, [r2, #68]	@ 0x44
 8000642:	4b53      	ldr	r3, [pc, #332]	@ (8000790 <ADF4158_Init+0x1d4>)
 8000644:	6c5b      	ldr	r3, [r3, #68]	@ 0x44
 8000646:	f403 5300 	and.w	r3, r3, #8192	@ 0x2000
 800064a:	607b      	str	r3, [r7, #4]
 800064c:	687b      	ldr	r3, [r7, #4]
  __HAL_RCC_SPI4_FORCE_RESET();
 800064e:	4b50      	ldr	r3, [pc, #320]	@ (8000790 <ADF4158_Init+0x1d4>)
 8000650:	6a5b      	ldr	r3, [r3, #36]	@ 0x24
 8000652:	4a4f      	ldr	r2, [pc, #316]	@ (8000790 <ADF4158_Init+0x1d4>)
 8000654:	f443 5300 	orr.w	r3, r3, #8192	@ 0x2000
 8000658:	6253      	str	r3, [r2, #36]	@ 0x24
  __HAL_RCC_SPI4_RELEASE_RESET();
 800065a:	4b4d      	ldr	r3, [pc, #308]	@ (8000790 <ADF4158_Init+0x1d4>)
 800065c:	6a5b      	ldr	r3, [r3, #36]	@ 0x24
 800065e:	4a4c      	ldr	r2, [pc, #304]	@ (8000790 <ADF4158_Init+0x1d4>)
 8000660:	f423 5300 	bic.w	r3, r3, #8192	@ 0x2000
 8000664:	6253      	str	r3, [r2, #36]	@ 0x24

  HAL_GPIO_WritePin(PLL_LE_GPIO_Port, PLL_LE_Pin, GPIO_PIN_RESET);
 8000666:	2200      	movs	r2, #0
 8000668:	2102      	movs	r1, #2
 800066a:	484a      	ldr	r0, [pc, #296]	@ (8000794 <ADF4158_Init+0x1d8>)
 800066c:	f004 f874 	bl	8004758 <HAL_GPIO_WritePin>
  HAL_GPIO_WritePin(PLL_CE_GPIO_Port, PLL_CE_Pin, GPIO_PIN_RESET);
 8000670:	2200      	movs	r2, #0
 8000672:	2102      	movs	r1, #2
 8000674:	4848      	ldr	r0, [pc, #288]	@ (8000798 <ADF4158_Init+0x1dc>)
 8000676:	f004 f86f 	bl	8004758 <HAL_GPIO_WritePin>
  HAL_GPIO_WritePin(PA_EN_GPIO_Port, PA_EN_Pin, GPIO_PIN_RESET);
 800067a:	2200      	movs	r2, #0
 800067c:	2101      	movs	r1, #1
 800067e:	4846      	ldr	r0, [pc, #280]	@ (8000798 <ADF4158_Init+0x1dc>)
 8000680:	f004 f86a 	bl	8004758 <HAL_GPIO_WritePin>
  HAL_GPIO_WritePin(MIXER_EN_GPIO_Port, MIXER_EN_Pin, GPIO_PIN_SET);
 8000684:	2201      	movs	r2, #1
 8000686:	f44f 5100 	mov.w	r1, #8192	@ 0x2000
 800068a:	4844      	ldr	r0, [pc, #272]	@ (800079c <ADF4158_Init+0x1e0>)
 800068c:	f004 f864 	bl	8004758 <HAL_GPIO_WritePin>

  gpio.Pin = PLL_CLK_Pin | PLL_DATA_Pin;
 8000690:	2344      	movs	r3, #68	@ 0x44
 8000692:	617b      	str	r3, [r7, #20]
  gpio.Mode = GPIO_MODE_AF_PP;
 8000694:	2302      	movs	r3, #2
 8000696:	61bb      	str	r3, [r7, #24]
  gpio.Pull = GPIO_NOPULL;
 8000698:	2300      	movs	r3, #0
 800069a:	61fb      	str	r3, [r7, #28]
  gpio.Speed = GPIO_SPEED_FREQ_VERY_HIGH;
 800069c:	2303      	movs	r3, #3
 800069e:	623b      	str	r3, [r7, #32]
  gpio.Alternate = GPIO_AF5_SPI4;
 80006a0:	2305      	movs	r3, #5
 80006a2:	627b      	str	r3, [r7, #36]	@ 0x24
  HAL_GPIO_Init(GPIOE, &gpio);
 80006a4:	f107 0314 	add.w	r3, r7, #20
 80006a8:	4619      	mov	r1, r3
 80006aa:	483b      	ldr	r0, [pc, #236]	@ (8000798 <ADF4158_Init+0x1dc>)
 80006ac:	f003 fe90 	bl	80043d0 <HAL_GPIO_Init>

  gpio.Pin = PLL_LE_Pin;
 80006b0:	2302      	movs	r3, #2
 80006b2:	617b      	str	r3, [r7, #20]
  gpio.Mode = GPIO_MODE_OUTPUT_PP;
 80006b4:	2301      	movs	r3, #1
 80006b6:	61bb      	str	r3, [r7, #24]
  gpio.Pull = GPIO_NOPULL;
 80006b8:	2300      	movs	r3, #0
 80006ba:	61fb      	str	r3, [r7, #28]
  gpio.Speed = GPIO_SPEED_FREQ_HIGH;
 80006bc:	2302      	movs	r3, #2
 80006be:	623b      	str	r3, [r7, #32]
  HAL_GPIO_Init(PLL_LE_GPIO_Port, &gpio);
 80006c0:	f107 0314 	add.w	r3, r7, #20
 80006c4:	4619      	mov	r1, r3
 80006c6:	4833      	ldr	r0, [pc, #204]	@ (8000794 <ADF4158_Init+0x1d8>)
 80006c8:	f003 fe82 	bl	80043d0 <HAL_GPIO_Init>

  gpio.Pin = PLL_CE_Pin | PA_EN_Pin;
 80006cc:	2303      	movs	r3, #3
 80006ce:	617b      	str	r3, [r7, #20]
  HAL_GPIO_Init(GPIOE, &gpio);
 80006d0:	f107 0314 	add.w	r3, r7, #20
 80006d4:	4619      	mov	r1, r3
 80006d6:	4830      	ldr	r0, [pc, #192]	@ (8000798 <ADF4158_Init+0x1dc>)
 80006d8:	f003 fe7a 	bl	80043d0 <HAL_GPIO_Init>

  gpio.Pin = MIXER_EN_Pin;
 80006dc:	f44f 5300 	mov.w	r3, #8192	@ 0x2000
 80006e0:	617b      	str	r3, [r7, #20]
  HAL_GPIO_Init(MIXER_EN_GPIO_Port, &gpio);
 80006e2:	f107 0314 	add.w	r3, r7, #20
 80006e6:	4619      	mov	r1, r3
 80006e8:	482c      	ldr	r0, [pc, #176]	@ (800079c <ADF4158_Init+0x1e0>)
 80006ea:	f003 fe71 	bl	80043d0 <HAL_GPIO_Init>

  gpio.Pin = PLL_MUXOUT_Pin;
 80006ee:	2320      	movs	r3, #32
 80006f0:	617b      	str	r3, [r7, #20]
  gpio.Mode = GPIO_MODE_INPUT;
 80006f2:	2300      	movs	r3, #0
 80006f4:	61bb      	str	r3, [r7, #24]
  gpio.Pull = GPIO_NOPULL;
 80006f6:	2300      	movs	r3, #0
 80006f8:	61fb      	str	r3, [r7, #28]
  HAL_GPIO_Init(PLL_MUXOUT_GPIO_Port, &gpio);
 80006fa:	f107 0314 	add.w	r3, r7, #20
 80006fe:	4619      	mov	r1, r3
 8000700:	4825      	ldr	r0, [pc, #148]	@ (8000798 <ADF4158_Init+0x1dc>)
 8000702:	f003 fe65 	bl	80043d0 <HAL_GPIO_Init>

  HAL_GPIO_WritePin(PLL_CE_GPIO_Port, PLL_CE_Pin, GPIO_PIN_SET);
 8000706:	2201      	movs	r2, #1
 8000708:	2102      	movs	r1, #2
 800070a:	4823      	ldr	r0, [pc, #140]	@ (8000798 <ADF4158_Init+0x1dc>)
 800070c:	f004 f824 	bl	8004758 <HAL_GPIO_WritePin>
  HAL_Delay(1U);
 8000710:	2001      	movs	r0, #1
 8000712:	f003 fb9d 	bl	8003e50 <HAL_Delay>

  hspi4.Instance = SPI4;
 8000716:	4b22      	ldr	r3, [pc, #136]	@ (80007a0 <ADF4158_Init+0x1e4>)
 8000718:	4a22      	ldr	r2, [pc, #136]	@ (80007a4 <ADF4158_Init+0x1e8>)
 800071a:	601a      	str	r2, [r3, #0]
  hspi4.Init.Mode = SPI_MODE_MASTER;
 800071c:	4b20      	ldr	r3, [pc, #128]	@ (80007a0 <ADF4158_Init+0x1e4>)
 800071e:	f44f 7282 	mov.w	r2, #260	@ 0x104
 8000722:	605a      	str	r2, [r3, #4]
  hspi4.Init.Direction = SPI_DIRECTION_1LINE;
 8000724:	4b1e      	ldr	r3, [pc, #120]	@ (80007a0 <ADF4158_Init+0x1e4>)
 8000726:	f44f 4200 	mov.w	r2, #32768	@ 0x8000
 800072a:	609a      	str	r2, [r3, #8]
  hspi4.Init.DataSize = SPI_DATASIZE_8BIT;
 800072c:	4b1c      	ldr	r3, [pc, #112]	@ (80007a0 <ADF4158_Init+0x1e4>)
 800072e:	2200      	movs	r2, #0
 8000730:	60da      	str	r2, [r3, #12]
  hspi4.Init.CLKPolarity = SPI_POLARITY_LOW;
 8000732:	4b1b      	ldr	r3, [pc, #108]	@ (80007a0 <ADF4158_Init+0x1e4>)
 8000734:	2200      	movs	r2, #0
 8000736:	611a      	str	r2, [r3, #16]
  hspi4.Init.CLKPhase = SPI_PHASE_1EDGE;
 8000738:	4b19      	ldr	r3, [pc, #100]	@ (80007a0 <ADF4158_Init+0x1e4>)
 800073a:	2200      	movs	r2, #0
 800073c:	615a      	str	r2, [r3, #20]
  hspi4.Init.NSS = SPI_NSS_SOFT;
 800073e:	4b18      	ldr	r3, [pc, #96]	@ (80007a0 <ADF4158_Init+0x1e4>)
 8000740:	f44f 7200 	mov.w	r2, #512	@ 0x200
 8000744:	619a      	str	r2, [r3, #24]
  hspi4.Init.BaudRatePrescaler = SPI_BAUDRATEPRESCALER_32;
 8000746:	4b16      	ldr	r3, [pc, #88]	@ (80007a0 <ADF4158_Init+0x1e4>)
 8000748:	2220      	movs	r2, #32
 800074a:	61da      	str	r2, [r3, #28]
  hspi4.Init.FirstBit = SPI_FIRSTBIT_MSB;
 800074c:	4b14      	ldr	r3, [pc, #80]	@ (80007a0 <ADF4158_Init+0x1e4>)
 800074e:	2200      	movs	r2, #0
 8000750:	621a      	str	r2, [r3, #32]
  hspi4.Init.TIMode = SPI_TIMODE_DISABLE;
 8000752:	4b13      	ldr	r3, [pc, #76]	@ (80007a0 <ADF4158_Init+0x1e4>)
 8000754:	2200      	movs	r2, #0
 8000756:	625a      	str	r2, [r3, #36]	@ 0x24
  hspi4.Init.CRCCalculation = SPI_CRCCALCULATION_DISABLE;
 8000758:	4b11      	ldr	r3, [pc, #68]	@ (80007a0 <ADF4158_Init+0x1e4>)
 800075a:	2200      	movs	r2, #0
 800075c:	629a      	str	r2, [r3, #40]	@ 0x28
  hspi4.Init.CRCPolynomial = 7U;
 800075e:	4b10      	ldr	r3, [pc, #64]	@ (80007a0 <ADF4158_Init+0x1e4>)
 8000760:	2207      	movs	r2, #7
 8000762:	62da      	str	r2, [r3, #44]	@ 0x2c

  if (HAL_SPI_Init(&hspi4) != HAL_OK)
 8000764:	480e      	ldr	r0, [pc, #56]	@ (80007a0 <ADF4158_Init+0x1e4>)
 8000766:	f005 fef7 	bl	8006558 <HAL_SPI_Init>
 800076a:	4603      	mov	r3, r0
 800076c:	2b00      	cmp	r3, #0
 800076e:	d003      	beq.n	8000778 <ADF4158_Init+0x1bc>
  {
    ADF4158_Failure(1U, HAL_ERROR);
 8000770:	2101      	movs	r1, #1
 8000772:	2001      	movs	r0, #1
 8000774:	f000 f8d4 	bl	8000920 <ADF4158_Failure>
  }

  printf("ADF4158: SPI4 initialized\r\n");
 8000778:	480b      	ldr	r0, [pc, #44]	@ (80007a8 <ADF4158_Init+0x1ec>)
 800077a:	f007 fdb3 	bl	80082e4 <puts>
}
 800077e:	bf00      	nop
 8000780:	3728      	adds	r7, #40	@ 0x28
 8000782:	46bd      	mov	sp, r7
 8000784:	bd80      	pop	{r7, pc}
 8000786:	bf00      	nop
 8000788:	200000dc 	.word	0x200000dc
 800078c:	200000e0 	.word	0x200000e0
 8000790:	40023800 	.word	0x40023800
 8000794:	40020000 	.word	0x40020000
 8000798:	40021000 	.word	0x40021000
 800079c:	40020c00 	.word	0x40020c00
 80007a0:	20000084 	.word	0x20000084
 80007a4:	40013400 	.word	0x40013400
 80007a8:	08009064 	.word	0x08009064

080007ac <ADF4158_ProgramFastChirpTest>:
  HAL_Delay(1U);
  printf("ADF4158 TEST: programming complete\r\n");
}

void ADF4158_ProgramFastChirpTest(void)
{
 80007ac:	b580      	push	{r7, lr}
 80007ae:	b082      	sub	sp, #8
 80007b0:	af00      	add	r7, sp, #0
  printf("ADF4158 FAST TEST: programming 0.08 ms, 200.272 MHz triangle ramp\r\n");
 80007b2:	4819      	ldr	r0, [pc, #100]	@ (8000818 <ADF4158_ProgramFastChirpTest+0x6c>)
 80007b4:	f007 fd96 	bl	80082e4 <puts>
  printf("ADF4158 FAST TEST: start=5700.000000 MHz stop=5900.271606 MHz center=5800.135803 MHz\r\n");
 80007b8:	4818      	ldr	r0, [pc, #96]	@ (800081c <ADF4158_ProgramFastChirpTest+0x70>)
 80007ba:	f007 fd93 	bl	80082e4 <puts>
  printf("ADF4158 FAST TEST: DEV=26250 DEV_OFFSET=3 CLK1=1 CLK2=1 N_STEPS=1600\r\n");
 80007be:	4818      	ldr	r0, [pc, #96]	@ (8000820 <ADF4158_ProgramFastChirpTest+0x74>)
 80007c0:	f007 fd90 	bl	80082e4 <puts>
  printf("ADF4158 FAST TEST: MUXOUT PE5 = ramp complete\r\n");
 80007c4:	4817      	ldr	r0, [pc, #92]	@ (8000824 <ADF4158_ProgramFastChirpTest+0x78>)
 80007c6:	f007 fd8d 	bl	80082e4 <puts>

  for (uint32_t i = 0U; i < ADF4158_REGISTER_COUNT; ++i)
 80007ca:	2300      	movs	r3, #0
 80007cc:	607b      	str	r3, [r7, #4]
 80007ce:	e015      	b.n	80007fc <ADF4158_ProgramFastChirpTest+0x50>
  {
    printf("ADF4158 FAST TEST: write %s = 0x%08lX\r\n",
           adf4158_register_names[i],
 80007d0:	4a15      	ldr	r2, [pc, #84]	@ (8000828 <ADF4158_ProgramFastChirpTest+0x7c>)
 80007d2:	687b      	ldr	r3, [r7, #4]
 80007d4:	f852 1023 	ldr.w	r1, [r2, r3, lsl #2]
           (unsigned long)adf4158_fast_chirp_test_registers[i]);
 80007d8:	4a14      	ldr	r2, [pc, #80]	@ (800082c <ADF4158_ProgramFastChirpTest+0x80>)
 80007da:	687b      	ldr	r3, [r7, #4]
 80007dc:	f852 3023 	ldr.w	r3, [r2, r3, lsl #2]
    printf("ADF4158 FAST TEST: write %s = 0x%08lX\r\n",
 80007e0:	461a      	mov	r2, r3
 80007e2:	4813      	ldr	r0, [pc, #76]	@ (8000830 <ADF4158_ProgramFastChirpTest+0x84>)
 80007e4:	f007 fd16 	bl	8008214 <iprintf>
    ADF4158_Write32(adf4158_fast_chirp_test_registers[i]);
 80007e8:	4a10      	ldr	r2, [pc, #64]	@ (800082c <ADF4158_ProgramFastChirpTest+0x80>)
 80007ea:	687b      	ldr	r3, [r7, #4]
 80007ec:	f852 3023 	ldr.w	r3, [r2, r3, lsl #2]
 80007f0:	4618      	mov	r0, r3
 80007f2:	f000 f851 	bl	8000898 <ADF4158_Write32>
  for (uint32_t i = 0U; i < ADF4158_REGISTER_COUNT; ++i)
 80007f6:	687b      	ldr	r3, [r7, #4]
 80007f8:	3301      	adds	r3, #1
 80007fa:	607b      	str	r3, [r7, #4]
 80007fc:	687b      	ldr	r3, [r7, #4]
 80007fe:	2b09      	cmp	r3, #9
 8000800:	d9e6      	bls.n	80007d0 <ADF4158_ProgramFastChirpTest+0x24>
  }

  HAL_Delay(1U);
 8000802:	2001      	movs	r0, #1
 8000804:	f003 fb24 	bl	8003e50 <HAL_Delay>
  printf("ADF4158 FAST TEST: programming complete\r\n");
 8000808:	480a      	ldr	r0, [pc, #40]	@ (8000834 <ADF4158_ProgramFastChirpTest+0x88>)
 800080a:	f007 fd6b 	bl	80082e4 <puts>
}
 800080e:	bf00      	nop
 8000810:	3708      	adds	r7, #8
 8000812:	46bd      	mov	sp, r7
 8000814:	bd80      	pop	{r7, pc}
 8000816:	bf00      	nop
 8000818:	080091d8 	.word	0x080091d8
 800081c:	0800921c 	.word	0x0800921c
 8000820:	08009274 	.word	0x08009274
 8000824:	080092bc 	.word	0x080092bc
 8000828:	0800a804 	.word	0x0800a804
 800082c:	0800a7dc 	.word	0x0800a7dc
 8000830:	080092ec 	.word	0x080092ec
 8000834:	08009314 	.word	0x08009314

08000838 <ADF4158_EnableRfOutput>:

void ADF4158_EnableRfOutput(void)
{
 8000838:	b580      	push	{r7, lr}
 800083a:	af00      	add	r7, sp, #0
  if (HAL_GPIO_ReadPin(TX_STDBY_GPIO_Port, TX_STDBY_Pin) == GPIO_PIN_RESET)
 800083c:	f44f 6100 	mov.w	r1, #2048	@ 0x800
 8000840:	4811      	ldr	r0, [pc, #68]	@ (8000888 <ADF4158_EnableRfOutput+0x50>)
 8000842:	f003 ff71 	bl	8004728 <HAL_GPIO_ReadPin>
 8000846:	4603      	mov	r3, r0
 8000848:	2b00      	cmp	r3, #0
 800084a:	d10e      	bne.n	800086a <ADF4158_EnableRfOutput+0x32>
  {
    HAL_GPIO_WritePin(MIXER_EN_GPIO_Port, MIXER_EN_Pin, GPIO_PIN_SET);
 800084c:	2201      	movs	r2, #1
 800084e:	f44f 5100 	mov.w	r1, #8192	@ 0x2000
 8000852:	480e      	ldr	r0, [pc, #56]	@ (800088c <ADF4158_EnableRfOutput+0x54>)
 8000854:	f003 ff80 	bl	8004758 <HAL_GPIO_WritePin>
    HAL_GPIO_WritePin(PA_EN_GPIO_Port, PA_EN_Pin, GPIO_PIN_RESET);
 8000858:	2200      	movs	r2, #0
 800085a:	2101      	movs	r1, #1
 800085c:	480a      	ldr	r0, [pc, #40]	@ (8000888 <ADF4158_EnableRfOutput+0x50>)
 800085e:	f003 ff7b 	bl	8004758 <HAL_GPIO_WritePin>
    printf("RF: TX_STDBY is low, output remains disabled\r\n");
 8000862:	480b      	ldr	r0, [pc, #44]	@ (8000890 <ADF4158_EnableRfOutput+0x58>)
 8000864:	f007 fd3e 	bl	80082e4 <puts>
    return;
 8000868:	e00d      	b.n	8000886 <ADF4158_EnableRfOutput+0x4e>
  }

  HAL_GPIO_WritePin(MIXER_EN_GPIO_Port, MIXER_EN_Pin, GPIO_PIN_RESET);
 800086a:	2200      	movs	r2, #0
 800086c:	f44f 5100 	mov.w	r1, #8192	@ 0x2000
 8000870:	4806      	ldr	r0, [pc, #24]	@ (800088c <ADF4158_EnableRfOutput+0x54>)
 8000872:	f003 ff71 	bl	8004758 <HAL_GPIO_WritePin>
  HAL_GPIO_WritePin(PA_EN_GPIO_Port, PA_EN_Pin, GPIO_PIN_SET);
 8000876:	2201      	movs	r2, #1
 8000878:	2101      	movs	r1, #1
 800087a:	4803      	ldr	r0, [pc, #12]	@ (8000888 <ADF4158_EnableRfOutput+0x50>)
 800087c:	f003 ff6c 	bl	8004758 <HAL_GPIO_WritePin>
  printf("RF: MIXER_EN=0(active) PA_EN=1\r\n");
 8000880:	4804      	ldr	r0, [pc, #16]	@ (8000894 <ADF4158_EnableRfOutput+0x5c>)
 8000882:	f007 fd2f 	bl	80082e4 <puts>
}
 8000886:	bd80      	pop	{r7, pc}
 8000888:	40021000 	.word	0x40021000
 800088c:	40020c00 	.word	0x40020c00
 8000890:	08009340 	.word	0x08009340
 8000894:	08009370 	.word	0x08009370

08000898 <ADF4158_Write32>:

static void ADF4158_Write32(uint32_t word)
{
 8000898:	b580      	push	{r7, lr}
 800089a:	b086      	sub	sp, #24
 800089c:	af00      	add	r7, sp, #0
 800089e:	6078      	str	r0, [r7, #4]
  uint8_t bytes[4];
  HAL_StatusTypeDef status;

  bytes[0] = (uint8_t)(word >> 24);
 80008a0:	687b      	ldr	r3, [r7, #4]
 80008a2:	0e1b      	lsrs	r3, r3, #24
 80008a4:	b2db      	uxtb	r3, r3
 80008a6:	743b      	strb	r3, [r7, #16]
  bytes[1] = (uint8_t)(word >> 16);
 80008a8:	687b      	ldr	r3, [r7, #4]
 80008aa:	0c1b      	lsrs	r3, r3, #16
 80008ac:	b2db      	uxtb	r3, r3
 80008ae:	747b      	strb	r3, [r7, #17]
  bytes[2] = (uint8_t)(word >> 8);
 80008b0:	687b      	ldr	r3, [r7, #4]
 80008b2:	0a1b      	lsrs	r3, r3, #8
 80008b4:	b2db      	uxtb	r3, r3
 80008b6:	74bb      	strb	r3, [r7, #18]
  bytes[3] = (uint8_t)word;
 80008b8:	687b      	ldr	r3, [r7, #4]
 80008ba:	b2db      	uxtb	r3, r3
 80008bc:	74fb      	strb	r3, [r7, #19]

  HAL_GPIO_WritePin(PLL_LE_GPIO_Port, PLL_LE_Pin, GPIO_PIN_RESET);
 80008be:	2200      	movs	r2, #0
 80008c0:	2102      	movs	r1, #2
 80008c2:	4815      	ldr	r0, [pc, #84]	@ (8000918 <ADF4158_Write32+0x80>)
 80008c4:	f003 ff48 	bl	8004758 <HAL_GPIO_WritePin>
  status = HAL_SPI_Transmit(&hspi4, bytes, 4U, 10U);
 80008c8:	f107 0110 	add.w	r1, r7, #16
 80008cc:	230a      	movs	r3, #10
 80008ce:	2204      	movs	r2, #4
 80008d0:	4812      	ldr	r0, [pc, #72]	@ (800091c <ADF4158_Write32+0x84>)
 80008d2:	f005 fed4 	bl	800667e <HAL_SPI_Transmit>
 80008d6:	4603      	mov	r3, r0
 80008d8:	75fb      	strb	r3, [r7, #23]
  if (status != HAL_OK)
 80008da:	7dfb      	ldrb	r3, [r7, #23]
 80008dc:	2b00      	cmp	r3, #0
 80008de:	d004      	beq.n	80008ea <ADF4158_Write32+0x52>
  {
    ADF4158_Failure(2U, status);
 80008e0:	7dfb      	ldrb	r3, [r7, #23]
 80008e2:	4619      	mov	r1, r3
 80008e4:	2002      	movs	r0, #2
 80008e6:	f000 f81b 	bl	8000920 <ADF4158_Failure>
  }

  HAL_GPIO_WritePin(PLL_LE_GPIO_Port, PLL_LE_Pin, GPIO_PIN_SET);
 80008ea:	2201      	movs	r2, #1
 80008ec:	2102      	movs	r1, #2
 80008ee:	480a      	ldr	r0, [pc, #40]	@ (8000918 <ADF4158_Write32+0x80>)
 80008f0:	f003 ff32 	bl	8004758 <HAL_GPIO_WritePin>
  for (volatile uint32_t i = 0U; i < 64U; ++i)
 80008f4:	2300      	movs	r3, #0
 80008f6:	60fb      	str	r3, [r7, #12]
 80008f8:	e002      	b.n	8000900 <ADF4158_Write32+0x68>
 80008fa:	68fb      	ldr	r3, [r7, #12]
 80008fc:	3301      	adds	r3, #1
 80008fe:	60fb      	str	r3, [r7, #12]
 8000900:	68fb      	ldr	r3, [r7, #12]
 8000902:	2b3f      	cmp	r3, #63	@ 0x3f
 8000904:	d9f9      	bls.n	80008fa <ADF4158_Write32+0x62>
  {
  }
  HAL_GPIO_WritePin(PLL_LE_GPIO_Port, PLL_LE_Pin, GPIO_PIN_RESET);
 8000906:	2200      	movs	r2, #0
 8000908:	2102      	movs	r1, #2
 800090a:	4803      	ldr	r0, [pc, #12]	@ (8000918 <ADF4158_Write32+0x80>)
 800090c:	f003 ff24 	bl	8004758 <HAL_GPIO_WritePin>
}
 8000910:	bf00      	nop
 8000912:	3718      	adds	r7, #24
 8000914:	46bd      	mov	sp, r7
 8000916:	bd80      	pop	{r7, pc}
 8000918:	40020000 	.word	0x40020000
 800091c:	20000084 	.word	0x20000084

08000920 <ADF4158_Failure>:

static void ADF4158_Failure(uint32_t stage, HAL_StatusTypeDef status)
{
 8000920:	b580      	push	{r7, lr}
 8000922:	b082      	sub	sp, #8
 8000924:	af00      	add	r7, sp, #0
 8000926:	6078      	str	r0, [r7, #4]
 8000928:	460b      	mov	r3, r1
 800092a:	70fb      	strb	r3, [r7, #3]
  adf4158_failure_stage = stage;
 800092c:	4a06      	ldr	r2, [pc, #24]	@ (8000948 <ADF4158_Failure+0x28>)
 800092e:	687b      	ldr	r3, [r7, #4]
 8000930:	6013      	str	r3, [r2, #0]
  adf4158_failure_status = status;
 8000932:	78fb      	ldrb	r3, [r7, #3]
 8000934:	4a05      	ldr	r2, [pc, #20]	@ (800094c <ADF4158_Failure+0x2c>)
 8000936:	6013      	str	r3, [r2, #0]

  printf("ADF4158: failure stage=%lu status=%lu\r\n",
 8000938:	78fb      	ldrb	r3, [r7, #3]
 800093a:	461a      	mov	r2, r3
 800093c:	6879      	ldr	r1, [r7, #4]
 800093e:	4804      	ldr	r0, [pc, #16]	@ (8000950 <ADF4158_Failure+0x30>)
 8000940:	f007 fc68 	bl	8008214 <iprintf>
         (unsigned long)stage,
         (unsigned long)status);

  while (1)
 8000944:	bf00      	nop
 8000946:	e7fd      	b.n	8000944 <ADF4158_Failure+0x24>
 8000948:	200000dc 	.word	0x200000dc
 800094c:	200000e0 	.word	0x200000e0
 8000950:	08009390 	.word	0x08009390

08000954 <FMCWStream_Init>:
static uint16_t FMCWStream_ReadAdcBus(void);
static uint32_t FMCWStream_CountPixclkEdges(uint32_t sample_ms);
static void FMCWStream_PrintCapturePins(const char *tag);

void FMCWStream_Init(void)
{
 8000954:	b590      	push	{r4, r7, lr}
 8000956:	b083      	sub	sp, #12
 8000958:	af00      	add	r7, sp, #0
  uint8_t first;
  uint8_t second;

  fmcw_stream_running = 0U;
 800095a:	4b2d      	ldr	r3, [pc, #180]	@ (8000a10 <FMCWStream_Init+0xbc>)
 800095c:	2200      	movs	r2, #0
 800095e:	701a      	strb	r2, [r3, #0]
  fmcw_stream_align_armed = 0U;
 8000960:	4b2c      	ldr	r3, [pc, #176]	@ (8000a14 <FMCWStream_Init+0xc0>)
 8000962:	2200      	movs	r2, #0
 8000964:	701a      	strb	r2, [r3, #0]
  fmcw_stream_slope_seq = 0U;
 8000966:	4b2c      	ldr	r3, [pc, #176]	@ (8000a18 <FMCWStream_Init+0xc4>)
 8000968:	2200      	movs	r2, #0
 800096a:	601a      	str	r2, [r3, #0]
  fmcw_stream_muxout_count = 0U;
 800096c:	4b2b      	ldr	r3, [pc, #172]	@ (8000a1c <FMCWStream_Init+0xc8>)
 800096e:	2200      	movs	r2, #0
 8000970:	601a      	str	r2, [r3, #0]
  fmcw_stream_dropped_frames = 0U;
 8000972:	4b2b      	ldr	r3, [pc, #172]	@ (8000a20 <FMCWStream_Init+0xcc>)
 8000974:	2200      	movs	r2, #0
 8000976:	601a      	str	r2, [r3, #0]
  fmcw_stream_dma_errors = 0U;
 8000978:	4b2a      	ldr	r3, [pc, #168]	@ (8000a24 <FMCWStream_Init+0xd0>)
 800097a:	2200      	movs	r2, #0
 800097c:	601a      	str	r2, [r3, #0]
  fmcw_stream_pending_flags = 0U;
 800097e:	4b2a      	ldr	r3, [pc, #168]	@ (8000a28 <FMCWStream_Init+0xd4>)
 8000980:	2200      	movs	r2, #0
 8000982:	601a      	str	r2, [r3, #0]
  fmcw_stream_started_tick = 0U;
 8000984:	4b29      	ldr	r3, [pc, #164]	@ (8000a2c <FMCWStream_Init+0xd8>)
 8000986:	2200      	movs	r2, #0
 8000988:	601a      	str	r2, [r3, #0]
  fmcw_stream_first_dma_reported = 0U;
 800098a:	4b29      	ldr	r3, [pc, #164]	@ (8000a30 <FMCWStream_Init+0xdc>)
 800098c:	2200      	movs	r2, #0
 800098e:	701a      	strb	r2, [r3, #0]
  fmcw_stream_no_frame_reported = 0U;
 8000990:	4b28      	ldr	r3, [pc, #160]	@ (8000a34 <FMCWStream_Init+0xe0>)
 8000992:	2200      	movs	r2, #0
 8000994:	701a      	strb	r2, [r3, #0]
  fmcw_stream_last_report_tick = HAL_GetTick();
 8000996:	f003 fa4f 	bl	8003e38 <HAL_GetTick>
 800099a:	4603      	mov	r3, r0
 800099c:	4a26      	ldr	r2, [pc, #152]	@ (8000a38 <FMCWStream_Init+0xe4>)
 800099e:	6013      	str	r3, [r2, #0]

  FMCWStream_ResetQueues();
 80009a0:	f000 fab0 	bl	8000f04 <FMCWStream_ResetQueues>
  (void)FMCWStream_PopFree(&first);
 80009a4:	1dfb      	adds	r3, r7, #7
 80009a6:	4618      	mov	r0, r3
 80009a8:	f000 fae0 	bl	8000f6c <FMCWStream_PopFree>
  (void)FMCWStream_PopFree(&second);
 80009ac:	1dbb      	adds	r3, r7, #6
 80009ae:	4618      	mov	r0, r3
 80009b0:	f000 fadc 	bl	8000f6c <FMCWStream_PopFree>
  fmcw_stream_dma_frame[0] = first;
 80009b4:	79fa      	ldrb	r2, [r7, #7]
 80009b6:	4b21      	ldr	r3, [pc, #132]	@ (8000a3c <FMCWStream_Init+0xe8>)
 80009b8:	701a      	strb	r2, [r3, #0]
  fmcw_stream_dma_frame[1] = second;
 80009ba:	79ba      	ldrb	r2, [r7, #6]
 80009bc:	4b1f      	ldr	r3, [pc, #124]	@ (8000a3c <FMCWStream_Init+0xe8>)
 80009be:	705a      	strb	r2, [r3, #1]

  FMCWStream_ConfigureGain();
 80009c0:	f000 fc7c 	bl	80012bc <FMCWStream_ConfigureGain>
  FMCWStream_ConfigureHsyncDrive();
 80009c4:	f000 fcb4 	bl	8001330 <FMCWStream_ConfigureHsyncDrive>
  FMCWStream_PrepareVsyncStart();
 80009c8:	f000 fce4 	bl	8001394 <FMCWStream_PrepareVsyncStart>
  FMCWStream_ConfigureDcmiPins();
 80009cc:	f000 fd48 	bl	8001460 <FMCWStream_ConfigureDcmiPins>
  printf("STREAM: PIXCLK edges in 2 ms=%lu, ADC bus=0x%03X\r\n",
         (unsigned long)FMCWStream_CountPixclkEdges(2U),
 80009d0:	2002      	movs	r0, #2
 80009d2:	f000 ff9f 	bl	8001914 <FMCWStream_CountPixclkEdges>
 80009d6:	4604      	mov	r4, r0
         (unsigned int)FMCWStream_ReadAdcBus());
 80009d8:	f000 fed6 	bl	8001788 <FMCWStream_ReadAdcBus>
 80009dc:	4603      	mov	r3, r0
  printf("STREAM: PIXCLK edges in 2 ms=%lu, ADC bus=0x%03X\r\n",
 80009de:	461a      	mov	r2, r3
 80009e0:	4621      	mov	r1, r4
 80009e2:	4817      	ldr	r0, [pc, #92]	@ (8000a40 <FMCWStream_Init+0xec>)
 80009e4:	f007 fc16 	bl	8008214 <iprintf>
  FMCWStream_ConfigureMuxoutExti();
 80009e8:	f000 fdbc 	bl	8001564 <FMCWStream_ConfigureMuxoutExti>
  FMCWStream_ConfigureDcmi();
 80009ec:	f000 fdfe 	bl	80015ec <FMCWStream_ConfigureDcmi>
  FMCWStream_ConfigureDma();
 80009f0:	f000 fe30 	bl	8001654 <FMCWStream_ConfigureDma>

  fmcw_stream_initialized = 1U;
 80009f4:	4b13      	ldr	r3, [pc, #76]	@ (8000a44 <FMCWStream_Init+0xf0>)
 80009f6:	2201      	movs	r2, #1
 80009f8:	701a      	strb	r2, [r3, #0]
  printf("STREAM: initialized, %lu buffers, frame=%lu bytes, sample_rate=%lu Hz\r\n",
 80009fa:	4b13      	ldr	r3, [pc, #76]	@ (8000a48 <FMCWStream_Init+0xf4>)
 80009fc:	f44f 42a0 	mov.w	r2, #20480	@ 0x5000
 8000a00:	2108      	movs	r1, #8
 8000a02:	4812      	ldr	r0, [pc, #72]	@ (8000a4c <FMCWStream_Init+0xf8>)
 8000a04:	f007 fc06 	bl	8008214 <iprintf>
         (unsigned long)FMCW_STREAM_FRAME_COUNT,
         (unsigned long)FMCW_STREAM_FRAME_BYTES,
         (unsigned long)FMCW_STREAM_SAMPLE_RATE_HZ);
}
 8000a08:	bf00      	nop
 8000a0a:	370c      	adds	r7, #12
 8000a0c:	46bd      	mov	sp, r7
 8000a0e:	bd90      	pop	{r4, r7, pc}
 8000a10:	20028100 	.word	0x20028100
 8000a14:	200280ff 	.word	0x200280ff
 8000a18:	20028104 	.word	0x20028104
 8000a1c:	20028108 	.word	0x20028108
 8000a20:	2002810c 	.word	0x2002810c
 8000a24:	20028110 	.word	0x20028110
 8000a28:	20028114 	.word	0x20028114
 8000a2c:	20028118 	.word	0x20028118
 8000a30:	2002811c 	.word	0x2002811c
 8000a34:	2002811d 	.word	0x2002811d
 8000a38:	20028120 	.word	0x20028120
 8000a3c:	200280e4 	.word	0x200280e4
 8000a40:	080093b8 	.word	0x080093b8
 8000a44:	200280fe 	.word	0x200280fe
 8000a48:	00989680 	.word	0x00989680
 8000a4c:	080093ec 	.word	0x080093ec

08000a50 <FMCWStream_Start>:

uint8_t FMCWStream_Start(void)
{
 8000a50:	b580      	push	{r7, lr}
 8000a52:	b084      	sub	sp, #16
 8000a54:	af00      	add	r7, sp, #0
  uint32_t start_tick;
  GPIO_PinState last_muxout;

  if (fmcw_stream_initialized == 0U)
 8000a56:	4b2d      	ldr	r3, [pc, #180]	@ (8000b0c <FMCWStream_Start+0xbc>)
 8000a58:	781b      	ldrb	r3, [r3, #0]
 8000a5a:	b2db      	uxtb	r3, r3
 8000a5c:	2b00      	cmp	r3, #0
 8000a5e:	d101      	bne.n	8000a64 <FMCWStream_Start+0x14>
  {
    FMCWStream_Init();
 8000a60:	f7ff ff78 	bl	8000954 <FMCWStream_Init>
  }

  if (fmcw_stream_running != 0U)
 8000a64:	4b2a      	ldr	r3, [pc, #168]	@ (8000b10 <FMCWStream_Start+0xc0>)
 8000a66:	781b      	ldrb	r3, [r3, #0]
 8000a68:	b2db      	uxtb	r3, r3
 8000a6a:	2b00      	cmp	r3, #0
 8000a6c:	d001      	beq.n	8000a72 <FMCWStream_Start+0x22>
  {
    return 1U;
 8000a6e:	2301      	movs	r3, #1
 8000a70:	e048      	b.n	8000b04 <FMCWStream_Start+0xb4>
  }

  printf("STREAM: waiting for ADF4158 MUXOUT edge on PE5\r\n");
 8000a72:	4828      	ldr	r0, [pc, #160]	@ (8000b14 <FMCWStream_Start+0xc4>)
 8000a74:	f007 fc36 	bl	80082e4 <puts>
  fmcw_stream_align_armed = 1U;
 8000a78:	4b27      	ldr	r3, [pc, #156]	@ (8000b18 <FMCWStream_Start+0xc8>)
 8000a7a:	2201      	movs	r2, #1
 8000a7c:	701a      	strb	r2, [r3, #0]
  last_muxout = HAL_GPIO_ReadPin(PLL_MUXOUT_GPIO_Port, PLL_MUXOUT_Pin);
 8000a7e:	2120      	movs	r1, #32
 8000a80:	4826      	ldr	r0, [pc, #152]	@ (8000b1c <FMCWStream_Start+0xcc>)
 8000a82:	f003 fe51 	bl	8004728 <HAL_GPIO_ReadPin>
 8000a86:	4603      	mov	r3, r0
 8000a88:	73fb      	strb	r3, [r7, #15]
  start_tick = HAL_GetTick();
 8000a8a:	f003 f9d5 	bl	8003e38 <HAL_GetTick>
 8000a8e:	60b8      	str	r0, [r7, #8]
  while (fmcw_stream_running == 0U)
 8000a90:	e029      	b.n	8000ae6 <FMCWStream_Start+0x96>
  {
    GPIO_PinState now_muxout = HAL_GPIO_ReadPin(PLL_MUXOUT_GPIO_Port, PLL_MUXOUT_Pin);
 8000a92:	2120      	movs	r1, #32
 8000a94:	4821      	ldr	r0, [pc, #132]	@ (8000b1c <FMCWStream_Start+0xcc>)
 8000a96:	f003 fe47 	bl	8004728 <HAL_GPIO_ReadPin>
 8000a9a:	4603      	mov	r3, r0
 8000a9c:	71fb      	strb	r3, [r7, #7]
    if ((last_muxout == GPIO_PIN_RESET) && (now_muxout == GPIO_PIN_SET))
 8000a9e:	7bfb      	ldrb	r3, [r7, #15]
 8000aa0:	2b00      	cmp	r3, #0
 8000aa2:	d107      	bne.n	8000ab4 <FMCWStream_Start+0x64>
 8000aa4:	79fb      	ldrb	r3, [r7, #7]
 8000aa6:	2b01      	cmp	r3, #1
 8000aa8:	d104      	bne.n	8000ab4 <FMCWStream_Start+0x64>
    {
      printf("STREAM: MUXOUT edge caught by polling fallback\r\n");
 8000aaa:	481d      	ldr	r0, [pc, #116]	@ (8000b20 <FMCWStream_Start+0xd0>)
 8000aac:	f007 fc1a 	bl	80082e4 <puts>
      FMCWStream_MuxoutIRQHandler();
 8000ab0:	f000 f9a2 	bl	8000df8 <FMCWStream_MuxoutIRQHandler>
    }
    last_muxout = now_muxout;
 8000ab4:	79fb      	ldrb	r3, [r7, #7]
 8000ab6:	73fb      	strb	r3, [r7, #15]

    if ((HAL_GetTick() - start_tick) > FMCW_STREAM_ALIGN_TIMEOUT_MS)
 8000ab8:	f003 f9be 	bl	8003e38 <HAL_GetTick>
 8000abc:	4602      	mov	r2, r0
 8000abe:	68bb      	ldr	r3, [r7, #8]
 8000ac0:	1ad3      	subs	r3, r2, r3
 8000ac2:	f5b3 6ffa 	cmp.w	r3, #2000	@ 0x7d0
 8000ac6:	d90e      	bls.n	8000ae6 <FMCWStream_Start+0x96>
    {
      fmcw_stream_align_armed = 0U;
 8000ac8:	4b13      	ldr	r3, [pc, #76]	@ (8000b18 <FMCWStream_Start+0xc8>)
 8000aca:	2200      	movs	r2, #0
 8000acc:	701a      	strb	r2, [r3, #0]
      fmcw_stream_pending_flags |= FMCW_STREAM_FLAG_MUX_TIMEOUT;
 8000ace:	4b15      	ldr	r3, [pc, #84]	@ (8000b24 <FMCWStream_Start+0xd4>)
 8000ad0:	681b      	ldr	r3, [r3, #0]
 8000ad2:	f043 0304 	orr.w	r3, r3, #4
 8000ad6:	4a13      	ldr	r2, [pc, #76]	@ (8000b24 <FMCWStream_Start+0xd4>)
 8000ad8:	6013      	str	r3, [r2, #0]
      printf("STREAM: MUXOUT alignment timeout, starting unaligned debug capture\r\n");
 8000ada:	4813      	ldr	r0, [pc, #76]	@ (8000b28 <FMCWStream_Start+0xd8>)
 8000adc:	f007 fc02 	bl	80082e4 <puts>
      FMCWStream_StartCaptureFromMuxout();
 8000ae0:	f000 fe20 	bl	8001724 <FMCWStream_StartCaptureFromMuxout>
      break;
 8000ae4:	e004      	b.n	8000af0 <FMCWStream_Start+0xa0>
  while (fmcw_stream_running == 0U)
 8000ae6:	4b0a      	ldr	r3, [pc, #40]	@ (8000b10 <FMCWStream_Start+0xc0>)
 8000ae8:	781b      	ldrb	r3, [r3, #0]
 8000aea:	b2db      	uxtb	r3, r3
 8000aec:	2b00      	cmp	r3, #0
 8000aee:	d0d0      	beq.n	8000a92 <FMCWStream_Start+0x42>
    }
  }

  printf("STREAM: capture aligned, muxout_count=%lu\r\n",
 8000af0:	4b0e      	ldr	r3, [pc, #56]	@ (8000b2c <FMCWStream_Start+0xdc>)
 8000af2:	681b      	ldr	r3, [r3, #0]
 8000af4:	4619      	mov	r1, r3
 8000af6:	480e      	ldr	r0, [pc, #56]	@ (8000b30 <FMCWStream_Start+0xe0>)
 8000af8:	f007 fb8c 	bl	8008214 <iprintf>
         (unsigned long)fmcw_stream_muxout_count);
  FMCWStream_PrintCapturePins("start");
 8000afc:	480d      	ldr	r0, [pc, #52]	@ (8000b34 <FMCWStream_Start+0xe4>)
 8000afe:	f000 ff37 	bl	8001970 <FMCWStream_PrintCapturePins>
  return 1U;
 8000b02:	2301      	movs	r3, #1
}
 8000b04:	4618      	mov	r0, r3
 8000b06:	3710      	adds	r7, #16
 8000b08:	46bd      	mov	sp, r7
 8000b0a:	bd80      	pop	{r7, pc}
 8000b0c:	200280fe 	.word	0x200280fe
 8000b10:	20028100 	.word	0x20028100
 8000b14:	08009434 	.word	0x08009434
 8000b18:	200280ff 	.word	0x200280ff
 8000b1c:	40021000 	.word	0x40021000
 8000b20:	08009464 	.word	0x08009464
 8000b24:	20028114 	.word	0x20028114
 8000b28:	08009494 	.word	0x08009494
 8000b2c:	20028108 	.word	0x20028108
 8000b30:	080094d8 	.word	0x080094d8
 8000b34:	08009504 	.word	0x08009504

08000b38 <FMCWStream_Task>:

void FMCWStream_Task(void)
{
 8000b38:	b5f0      	push	{r4, r5, r6, r7, lr}
 8000b3a:	b08d      	sub	sp, #52	@ 0x34
 8000b3c:	af04      	add	r7, sp, #16
  uint32_t now = HAL_GetTick();
 8000b3e:	f003 f97b 	bl	8003e38 <HAL_GetTick>
 8000b42:	61f8      	str	r0, [r7, #28]

  if ((fmcw_stream_running != 0U) &&
 8000b44:	4b3e      	ldr	r3, [pc, #248]	@ (8000c40 <FMCWStream_Task+0x108>)
 8000b46:	781b      	ldrb	r3, [r3, #0]
 8000b48:	b2db      	uxtb	r3, r3
 8000b4a:	2b00      	cmp	r3, #0
 8000b4c:	d02b      	beq.n	8000ba6 <FMCWStream_Task+0x6e>
      (fmcw_stream_slope_seq == 0U) &&
 8000b4e:	4b3d      	ldr	r3, [pc, #244]	@ (8000c44 <FMCWStream_Task+0x10c>)
 8000b50:	681b      	ldr	r3, [r3, #0]
  if ((fmcw_stream_running != 0U) &&
 8000b52:	2b00      	cmp	r3, #0
 8000b54:	d127      	bne.n	8000ba6 <FMCWStream_Task+0x6e>
      (fmcw_stream_no_frame_reported == 0U) &&
 8000b56:	4b3c      	ldr	r3, [pc, #240]	@ (8000c48 <FMCWStream_Task+0x110>)
 8000b58:	781b      	ldrb	r3, [r3, #0]
      (fmcw_stream_slope_seq == 0U) &&
 8000b5a:	2b00      	cmp	r3, #0
 8000b5c:	d123      	bne.n	8000ba6 <FMCWStream_Task+0x6e>
      ((now - fmcw_stream_started_tick) > 100U))
 8000b5e:	4b3b      	ldr	r3, [pc, #236]	@ (8000c4c <FMCWStream_Task+0x114>)
 8000b60:	681b      	ldr	r3, [r3, #0]
 8000b62:	69fa      	ldr	r2, [r7, #28]
 8000b64:	1ad3      	subs	r3, r2, r3
      (fmcw_stream_no_frame_reported == 0U) &&
 8000b66:	2b64      	cmp	r3, #100	@ 0x64
 8000b68:	d91d      	bls.n	8000ba6 <FMCWStream_Task+0x6e>
  {
    fmcw_stream_no_frame_reported = 1U;
 8000b6a:	4b37      	ldr	r3, [pc, #220]	@ (8000c48 <FMCWStream_Task+0x110>)
 8000b6c:	2201      	movs	r2, #1
 8000b6e:	701a      	strb	r2, [r3, #0]
    printf("STREAM: no DMA frame yet, SR=0x%08lX RISR=0x%08lX CR=0x%08lX NDTR=%lu LISR=0x%08lX ADC=0x%03X\r\n",
           (unsigned long)DCMI->SR,
 8000b70:	4b37      	ldr	r3, [pc, #220]	@ (8000c50 <FMCWStream_Task+0x118>)
 8000b72:	685e      	ldr	r6, [r3, #4]
           (unsigned long)DCMI->RISR,
 8000b74:	4b36      	ldr	r3, [pc, #216]	@ (8000c50 <FMCWStream_Task+0x118>)
 8000b76:	689b      	ldr	r3, [r3, #8]
 8000b78:	607b      	str	r3, [r7, #4]
           (unsigned long)DCMI->CR,
 8000b7a:	4b35      	ldr	r3, [pc, #212]	@ (8000c50 <FMCWStream_Task+0x118>)
 8000b7c:	6819      	ldr	r1, [r3, #0]
 8000b7e:	6039      	str	r1, [r7, #0]
           (unsigned long)DMA2_Stream1->NDTR,
 8000b80:	4b34      	ldr	r3, [pc, #208]	@ (8000c54 <FMCWStream_Task+0x11c>)
 8000b82:	685c      	ldr	r4, [r3, #4]
           (unsigned long)DMA2->LISR,
 8000b84:	4b34      	ldr	r3, [pc, #208]	@ (8000c58 <FMCWStream_Task+0x120>)
 8000b86:	681d      	ldr	r5, [r3, #0]
           (unsigned int)FMCWStream_ReadAdcBus());
 8000b88:	f000 fdfe 	bl	8001788 <FMCWStream_ReadAdcBus>
 8000b8c:	4603      	mov	r3, r0
    printf("STREAM: no DMA frame yet, SR=0x%08lX RISR=0x%08lX CR=0x%08lX NDTR=%lu LISR=0x%08lX ADC=0x%03X\r\n",
 8000b8e:	9302      	str	r3, [sp, #8]
 8000b90:	9501      	str	r5, [sp, #4]
 8000b92:	9400      	str	r4, [sp, #0]
 8000b94:	683b      	ldr	r3, [r7, #0]
 8000b96:	687a      	ldr	r2, [r7, #4]
 8000b98:	4631      	mov	r1, r6
 8000b9a:	4830      	ldr	r0, [pc, #192]	@ (8000c5c <FMCWStream_Task+0x124>)
 8000b9c:	f007 fb3a 	bl	8008214 <iprintf>
    FMCWStream_PrintCapturePins("no-dma");
 8000ba0:	482f      	ldr	r0, [pc, #188]	@ (8000c60 <FMCWStream_Task+0x128>)
 8000ba2:	f000 fee5 	bl	8001970 <FMCWStream_PrintCapturePins>
  }

  if ((fmcw_stream_slope_seq != 0U) && (fmcw_stream_first_dma_reported == 0U))
 8000ba6:	4b27      	ldr	r3, [pc, #156]	@ (8000c44 <FMCWStream_Task+0x10c>)
 8000ba8:	681b      	ldr	r3, [r3, #0]
 8000baa:	2b00      	cmp	r3, #0
 8000bac:	d012      	beq.n	8000bd4 <FMCWStream_Task+0x9c>
 8000bae:	4b2d      	ldr	r3, [pc, #180]	@ (8000c64 <FMCWStream_Task+0x12c>)
 8000bb0:	781b      	ldrb	r3, [r3, #0]
 8000bb2:	2b00      	cmp	r3, #0
 8000bb4:	d10e      	bne.n	8000bd4 <FMCWStream_Task+0x9c>
  {
    fmcw_stream_first_dma_reported = 1U;
 8000bb6:	4b2b      	ldr	r3, [pc, #172]	@ (8000c64 <FMCWStream_Task+0x12c>)
 8000bb8:	2201      	movs	r2, #1
 8000bba:	701a      	strb	r2, [r3, #0]
    printf("STREAM: first DMA frame ready, slopes=%lu ready=%lu free=%lu\r\n",
 8000bbc:	4b21      	ldr	r3, [pc, #132]	@ (8000c44 <FMCWStream_Task+0x10c>)
 8000bbe:	6819      	ldr	r1, [r3, #0]
 8000bc0:	4b29      	ldr	r3, [pc, #164]	@ (8000c68 <FMCWStream_Task+0x130>)
 8000bc2:	781b      	ldrb	r3, [r3, #0]
 8000bc4:	b2db      	uxtb	r3, r3
 8000bc6:	461a      	mov	r2, r3
 8000bc8:	4b28      	ldr	r3, [pc, #160]	@ (8000c6c <FMCWStream_Task+0x134>)
 8000bca:	781b      	ldrb	r3, [r3, #0]
 8000bcc:	b2db      	uxtb	r3, r3
 8000bce:	4828      	ldr	r0, [pc, #160]	@ (8000c70 <FMCWStream_Task+0x138>)
 8000bd0:	f007 fb20 	bl	8008214 <iprintf>
           (unsigned long)fmcw_stream_slope_seq,
           (unsigned long)fmcw_stream_ready_count,
           (unsigned long)fmcw_stream_free_count);
  }

  if ((fmcw_stream_running != 0U) &&
 8000bd4:	4b1a      	ldr	r3, [pc, #104]	@ (8000c40 <FMCWStream_Task+0x108>)
 8000bd6:	781b      	ldrb	r3, [r3, #0]
 8000bd8:	b2db      	uxtb	r3, r3
 8000bda:	2b00      	cmp	r3, #0
 8000bdc:	d02c      	beq.n	8000c38 <FMCWStream_Task+0x100>
      ((now - fmcw_stream_last_report_tick) >= 1000U))
 8000bde:	4b25      	ldr	r3, [pc, #148]	@ (8000c74 <FMCWStream_Task+0x13c>)
 8000be0:	681b      	ldr	r3, [r3, #0]
 8000be2:	69fa      	ldr	r2, [r7, #28]
 8000be4:	1ad3      	subs	r3, r2, r3
  if ((fmcw_stream_running != 0U) &&
 8000be6:	f5b3 7f7a 	cmp.w	r3, #1000	@ 0x3e8
 8000bea:	d325      	bcc.n	8000c38 <FMCWStream_Task+0x100>
  \details Disables IRQ interrupts by setting special-purpose register PRIMASK.
           Can only be executed in Privileged modes.
 */
__STATIC_FORCEINLINE void __disable_irq(void)
{
  __ASM volatile ("cpsid i" : : : "memory");
 8000bec:	b672      	cpsid	i
}
 8000bee:	bf00      	nop
    uint32_t dma_errors;
    uint8_t ready;
    uint8_t free_count;

    __disable_irq();
    slopes = fmcw_stream_slope_seq;
 8000bf0:	4b14      	ldr	r3, [pc, #80]	@ (8000c44 <FMCWStream_Task+0x10c>)
 8000bf2:	681b      	ldr	r3, [r3, #0]
 8000bf4:	61bb      	str	r3, [r7, #24]
    muxouts = fmcw_stream_muxout_count;
 8000bf6:	4b20      	ldr	r3, [pc, #128]	@ (8000c78 <FMCWStream_Task+0x140>)
 8000bf8:	681b      	ldr	r3, [r3, #0]
 8000bfa:	617b      	str	r3, [r7, #20]
    dropped = fmcw_stream_dropped_frames;
 8000bfc:	4b1f      	ldr	r3, [pc, #124]	@ (8000c7c <FMCWStream_Task+0x144>)
 8000bfe:	681b      	ldr	r3, [r3, #0]
 8000c00:	613b      	str	r3, [r7, #16]
    dma_errors = fmcw_stream_dma_errors;
 8000c02:	4b1f      	ldr	r3, [pc, #124]	@ (8000c80 <FMCWStream_Task+0x148>)
 8000c04:	681b      	ldr	r3, [r3, #0]
 8000c06:	60fb      	str	r3, [r7, #12]
    ready = fmcw_stream_ready_count;
 8000c08:	4b17      	ldr	r3, [pc, #92]	@ (8000c68 <FMCWStream_Task+0x130>)
 8000c0a:	781b      	ldrb	r3, [r3, #0]
 8000c0c:	72fb      	strb	r3, [r7, #11]
    free_count = fmcw_stream_free_count;
 8000c0e:	4b17      	ldr	r3, [pc, #92]	@ (8000c6c <FMCWStream_Task+0x134>)
 8000c10:	781b      	ldrb	r3, [r3, #0]
 8000c12:	72bb      	strb	r3, [r7, #10]
  __ASM volatile ("cpsie i" : : : "memory");
 8000c14:	b662      	cpsie	i
}
 8000c16:	bf00      	nop
    __enable_irq();

    printf("STREAM: slopes=%lu muxout=%lu ready=%lu free=%lu dropped=%lu dma_err=%lu\r\n",
 8000c18:	7af9      	ldrb	r1, [r7, #11]
 8000c1a:	7abb      	ldrb	r3, [r7, #10]
 8000c1c:	68fa      	ldr	r2, [r7, #12]
 8000c1e:	9202      	str	r2, [sp, #8]
 8000c20:	693a      	ldr	r2, [r7, #16]
 8000c22:	9201      	str	r2, [sp, #4]
 8000c24:	9300      	str	r3, [sp, #0]
 8000c26:	460b      	mov	r3, r1
 8000c28:	697a      	ldr	r2, [r7, #20]
 8000c2a:	69b9      	ldr	r1, [r7, #24]
 8000c2c:	4815      	ldr	r0, [pc, #84]	@ (8000c84 <FMCWStream_Task+0x14c>)
 8000c2e:	f007 faf1 	bl	8008214 <iprintf>
           (unsigned long)muxouts,
           (unsigned long)ready,
           (unsigned long)free_count,
           (unsigned long)dropped,
           (unsigned long)dma_errors);
    fmcw_stream_last_report_tick = now;
 8000c32:	4a10      	ldr	r2, [pc, #64]	@ (8000c74 <FMCWStream_Task+0x13c>)
 8000c34:	69fb      	ldr	r3, [r7, #28]
 8000c36:	6013      	str	r3, [r2, #0]
  }
}
 8000c38:	bf00      	nop
 8000c3a:	3724      	adds	r7, #36	@ 0x24
 8000c3c:	46bd      	mov	sp, r7
 8000c3e:	bdf0      	pop	{r4, r5, r6, r7, pc}
 8000c40:	20028100 	.word	0x20028100
 8000c44:	20028104 	.word	0x20028104
 8000c48:	2002811d 	.word	0x2002811d
 8000c4c:	20028118 	.word	0x20028118
 8000c50:	50050000 	.word	0x50050000
 8000c54:	40026428 	.word	0x40026428
 8000c58:	40026400 	.word	0x40026400
 8000c5c:	0800950c 	.word	0x0800950c
 8000c60:	0800956c 	.word	0x0800956c
 8000c64:	2002811c 	.word	0x2002811c
 8000c68:	200280fd 	.word	0x200280fd
 8000c6c:	200280fa 	.word	0x200280fa
 8000c70:	08009574 	.word	0x08009574
 8000c74:	20028120 	.word	0x20028120
 8000c78:	20028108 	.word	0x20028108
 8000c7c:	2002810c 	.word	0x2002810c
 8000c80:	20028110 	.word	0x20028110
 8000c84:	080095b4 	.word	0x080095b4

08000c88 <FMCWStream_DMA_IRQHandler>:

uint8_t FMCWStream_DMA_IRQHandler(void)
{
 8000c88:	b580      	push	{r7, lr}
 8000c8a:	b086      	sub	sp, #24
 8000c8c:	af00      	add	r7, sp, #0
  uint16_t flags;
  uint8_t completed_slot;
  uint8_t completed_frame;
  uint8_t next_frame;

  if (fmcw_stream_running == 0U)
 8000c8e:	4b50      	ldr	r3, [pc, #320]	@ (8000dd0 <FMCWStream_DMA_IRQHandler+0x148>)
 8000c90:	781b      	ldrb	r3, [r3, #0]
 8000c92:	b2db      	uxtb	r3, r3
 8000c94:	2b00      	cmp	r3, #0
 8000c96:	d101      	bne.n	8000c9c <FMCWStream_DMA_IRQHandler+0x14>
  {
    return 0U;
 8000c98:	2300      	movs	r3, #0
 8000c9a:	e095      	b.n	8000dc8 <FMCWStream_DMA_IRQHandler+0x140>
  }

  lisr = DMA2->LISR;
 8000c9c:	4b4d      	ldr	r3, [pc, #308]	@ (8000dd4 <FMCWStream_DMA_IRQHandler+0x14c>)
 8000c9e:	681b      	ldr	r3, [r3, #0]
 8000ca0:	613b      	str	r3, [r7, #16]
  if ((lisr & (DMA_LISR_TCIF1 | DMA_LISR_TEIF1 | DMA_LISR_DMEIF1 | DMA_LISR_FEIF1)) == 0U)
 8000ca2:	693b      	ldr	r3, [r7, #16]
 8000ca4:	f403 6334 	and.w	r3, r3, #2880	@ 0xb40
 8000ca8:	2b00      	cmp	r3, #0
 8000caa:	d101      	bne.n	8000cb0 <FMCWStream_DMA_IRQHandler+0x28>
  {
    return 1U;
 8000cac:	2301      	movs	r3, #1
 8000cae:	e08b      	b.n	8000dc8 <FMCWStream_DMA_IRQHandler+0x140>
  }

  DMA2->LIFCR = DMA_LIFCR_CTCIF1 | DMA_LIFCR_CHTIF1 |
 8000cb0:	4b48      	ldr	r3, [pc, #288]	@ (8000dd4 <FMCWStream_DMA_IRQHandler+0x14c>)
 8000cb2:	f44f 6274 	mov.w	r2, #3904	@ 0xf40
 8000cb6:	609a      	str	r2, [r3, #8]
                DMA_LIFCR_CTEIF1 | DMA_LIFCR_CDMEIF1 |
                DMA_LIFCR_CFEIF1;

  if ((lisr & (DMA_LISR_TEIF1 | DMA_LISR_DMEIF1 | DMA_LISR_FEIF1)) != 0U)
 8000cb8:	693b      	ldr	r3, [r7, #16]
 8000cba:	f403 7350 	and.w	r3, r3, #832	@ 0x340
 8000cbe:	2b00      	cmp	r3, #0
 8000cc0:	d00a      	beq.n	8000cd8 <FMCWStream_DMA_IRQHandler+0x50>
  {
    ++fmcw_stream_dma_errors;
 8000cc2:	4b45      	ldr	r3, [pc, #276]	@ (8000dd8 <FMCWStream_DMA_IRQHandler+0x150>)
 8000cc4:	681b      	ldr	r3, [r3, #0]
 8000cc6:	3301      	adds	r3, #1
 8000cc8:	4a43      	ldr	r2, [pc, #268]	@ (8000dd8 <FMCWStream_DMA_IRQHandler+0x150>)
 8000cca:	6013      	str	r3, [r2, #0]
    fmcw_stream_pending_flags |= FMCW_STREAM_FLAG_DMA_ERROR;
 8000ccc:	4b43      	ldr	r3, [pc, #268]	@ (8000ddc <FMCWStream_DMA_IRQHandler+0x154>)
 8000cce:	681b      	ldr	r3, [r3, #0]
 8000cd0:	f043 0308 	orr.w	r3, r3, #8
 8000cd4:	4a41      	ldr	r2, [pc, #260]	@ (8000ddc <FMCWStream_DMA_IRQHandler+0x154>)
 8000cd6:	6013      	str	r3, [r2, #0]
  }

  if ((lisr & DMA_LISR_TCIF1) == 0U)
 8000cd8:	693b      	ldr	r3, [r7, #16]
 8000cda:	f403 6300 	and.w	r3, r3, #2048	@ 0x800
 8000cde:	2b00      	cmp	r3, #0
 8000ce0:	d101      	bne.n	8000ce6 <FMCWStream_DMA_IRQHandler+0x5e>
  {
    return 1U;
 8000ce2:	2301      	movs	r3, #1
 8000ce4:	e070      	b.n	8000dc8 <FMCWStream_DMA_IRQHandler+0x140>
  }

  completed_slot = ((DMA2_Stream1->CR & DMA_SxCR_CT) != 0U) ? 0U : 1U;
 8000ce6:	4b3e      	ldr	r3, [pc, #248]	@ (8000de0 <FMCWStream_DMA_IRQHandler+0x158>)
 8000ce8:	681b      	ldr	r3, [r3, #0]
 8000cea:	f403 2300 	and.w	r3, r3, #524288	@ 0x80000
 8000cee:	2b00      	cmp	r3, #0
 8000cf0:	bf0c      	ite	eq
 8000cf2:	2301      	moveq	r3, #1
 8000cf4:	2300      	movne	r3, #0
 8000cf6:	b2db      	uxtb	r3, r3
 8000cf8:	73fb      	strb	r3, [r7, #15]
  completed_frame = fmcw_stream_dma_frame[completed_slot];
 8000cfa:	7bfb      	ldrb	r3, [r7, #15]
 8000cfc:	4a39      	ldr	r2, [pc, #228]	@ (8000de4 <FMCWStream_DMA_IRQHandler+0x15c>)
 8000cfe:	5cd3      	ldrb	r3, [r2, r3]
 8000d00:	73bb      	strb	r3, [r7, #14]
  dcmi_risr = DCMI->RISR;
 8000d02:	4b39      	ldr	r3, [pc, #228]	@ (8000de8 <FMCWStream_DMA_IRQHandler+0x160>)
 8000d04:	689b      	ldr	r3, [r3, #8]
 8000d06:	60bb      	str	r3, [r7, #8]
  DCMI->ICR = DCMI_ICR_FRAME_ISC | DCMI_ICR_OVR_ISC |
 8000d08:	4b37      	ldr	r3, [pc, #220]	@ (8000de8 <FMCWStream_DMA_IRQHandler+0x160>)
 8000d0a:	221f      	movs	r2, #31
 8000d0c:	615a      	str	r2, [r3, #20]
              DCMI_ICR_ERR_ISC | DCMI_ICR_VSYNC_ISC |
              DCMI_ICR_LINE_ISC;

  flags = (uint16_t)fmcw_stream_pending_flags;
 8000d0e:	4b33      	ldr	r3, [pc, #204]	@ (8000ddc <FMCWStream_DMA_IRQHandler+0x154>)
 8000d10:	681b      	ldr	r3, [r3, #0]
 8000d12:	82fb      	strh	r3, [r7, #22]
  fmcw_stream_pending_flags = 0U;
 8000d14:	4b31      	ldr	r3, [pc, #196]	@ (8000ddc <FMCWStream_DMA_IRQHandler+0x154>)
 8000d16:	2200      	movs	r2, #0
 8000d18:	601a      	str	r2, [r3, #0]
  if ((dcmi_risr & DCMI_RISR_ERR_RIS) != 0U)
 8000d1a:	68bb      	ldr	r3, [r7, #8]
 8000d1c:	f003 0304 	and.w	r3, r3, #4
 8000d20:	2b00      	cmp	r3, #0
 8000d22:	d003      	beq.n	8000d2c <FMCWStream_DMA_IRQHandler+0xa4>
  {
    flags |= FMCW_STREAM_FLAG_DCMI_ERROR;
 8000d24:	8afb      	ldrh	r3, [r7, #22]
 8000d26:	f043 0310 	orr.w	r3, r3, #16
 8000d2a:	82fb      	strh	r3, [r7, #22]
  }
  if ((dcmi_risr & DCMI_RISR_OVR_RIS) != 0U)
 8000d2c:	68bb      	ldr	r3, [r7, #8]
 8000d2e:	f003 0302 	and.w	r3, r3, #2
 8000d32:	2b00      	cmp	r3, #0
 8000d34:	d003      	beq.n	8000d3e <FMCWStream_DMA_IRQHandler+0xb6>
  {
    flags |= FMCW_STREAM_FLAG_DCMI_OVERRUN;
 8000d36:	8afb      	ldrh	r3, [r7, #22]
 8000d38:	f043 0320 	orr.w	r3, r3, #32
 8000d3c:	82fb      	strh	r3, [r7, #22]
  }

  FMCWStream_FillHeader(completed_frame, flags, dcmi_risr, lisr);
 8000d3e:	8af9      	ldrh	r1, [r7, #22]
 8000d40:	7bb8      	ldrb	r0, [r7, #14]
 8000d42:	693b      	ldr	r3, [r7, #16]
 8000d44:	68ba      	ldr	r2, [r7, #8]
 8000d46:	f000 f9fd 	bl	8001144 <FMCWStream_FillHeader>

  if (FMCWStream_PopFree(&next_frame) != 0U)
 8000d4a:	1dfb      	adds	r3, r7, #7
 8000d4c:	4618      	mov	r0, r3
 8000d4e:	f000 f90d 	bl	8000f6c <FMCWStream_PopFree>
 8000d52:	4603      	mov	r3, r0
 8000d54:	2b00      	cmp	r3, #0
 8000d56:	d022      	beq.n	8000d9e <FMCWStream_DMA_IRQHandler+0x116>
  {
    fmcw_stream_dma_frame[completed_slot] = next_frame;
 8000d58:	7bfb      	ldrb	r3, [r7, #15]
 8000d5a:	79f9      	ldrb	r1, [r7, #7]
 8000d5c:	4a21      	ldr	r2, [pc, #132]	@ (8000de4 <FMCWStream_DMA_IRQHandler+0x15c>)
 8000d5e:	54d1      	strb	r1, [r2, r3]
    if (completed_slot == 0U)
 8000d60:	7bfb      	ldrb	r3, [r7, #15]
 8000d62:	2b00      	cmp	r3, #0
 8000d64:	d10b      	bne.n	8000d7e <FMCWStream_DMA_IRQHandler+0xf6>
    {
      DMA2_Stream1->M0AR = (uint32_t)fmcw_stream_frames[next_frame].payload;
 8000d66:	79fb      	ldrb	r3, [r7, #7]
 8000d68:	461a      	mov	r2, r3
 8000d6a:	4613      	mov	r3, r2
 8000d6c:	009b      	lsls	r3, r3, #2
 8000d6e:	4413      	add	r3, r2
 8000d70:	031b      	lsls	r3, r3, #12
 8000d72:	3340      	adds	r3, #64	@ 0x40
 8000d74:	4a1d      	ldr	r2, [pc, #116]	@ (8000dec <FMCWStream_DMA_IRQHandler+0x164>)
 8000d76:	441a      	add	r2, r3
 8000d78:	4b19      	ldr	r3, [pc, #100]	@ (8000de0 <FMCWStream_DMA_IRQHandler+0x158>)
 8000d7a:	60da      	str	r2, [r3, #12]
 8000d7c:	e00a      	b.n	8000d94 <FMCWStream_DMA_IRQHandler+0x10c>
    }
    else
    {
      DMA2_Stream1->M1AR = (uint32_t)fmcw_stream_frames[next_frame].payload;
 8000d7e:	79fb      	ldrb	r3, [r7, #7]
 8000d80:	461a      	mov	r2, r3
 8000d82:	4613      	mov	r3, r2
 8000d84:	009b      	lsls	r3, r3, #2
 8000d86:	4413      	add	r3, r2
 8000d88:	031b      	lsls	r3, r3, #12
 8000d8a:	3340      	adds	r3, #64	@ 0x40
 8000d8c:	4a17      	ldr	r2, [pc, #92]	@ (8000dec <FMCWStream_DMA_IRQHandler+0x164>)
 8000d8e:	441a      	add	r2, r3
 8000d90:	4b13      	ldr	r3, [pc, #76]	@ (8000de0 <FMCWStream_DMA_IRQHandler+0x158>)
 8000d92:	611a      	str	r2, [r3, #16]
    }
    FMCWStream_PushReady(completed_frame);
 8000d94:	7bbb      	ldrb	r3, [r7, #14]
 8000d96:	4618      	mov	r0, r3
 8000d98:	f000 f9a4 	bl	80010e4 <FMCWStream_PushReady>
 8000d9c:	e00e      	b.n	8000dbc <FMCWStream_DMA_IRQHandler+0x134>
  }
  else
  {
    ++fmcw_stream_dropped_frames;
 8000d9e:	4b14      	ldr	r3, [pc, #80]	@ (8000df0 <FMCWStream_DMA_IRQHandler+0x168>)
 8000da0:	681b      	ldr	r3, [r3, #0]
 8000da2:	3301      	adds	r3, #1
 8000da4:	4a12      	ldr	r2, [pc, #72]	@ (8000df0 <FMCWStream_DMA_IRQHandler+0x168>)
 8000da6:	6013      	str	r3, [r2, #0]
    fmcw_stream_pending_flags |= (uint32_t)(flags |
 8000da8:	8afb      	ldrh	r3, [r7, #22]
 8000daa:	f043 0303 	orr.w	r3, r3, #3
 8000dae:	b29b      	uxth	r3, r3
 8000db0:	461a      	mov	r2, r3
 8000db2:	4b0a      	ldr	r3, [pc, #40]	@ (8000ddc <FMCWStream_DMA_IRQHandler+0x154>)
 8000db4:	681b      	ldr	r3, [r3, #0]
 8000db6:	4313      	orrs	r3, r2
 8000db8:	4a08      	ldr	r2, [pc, #32]	@ (8000ddc <FMCWStream_DMA_IRQHandler+0x154>)
 8000dba:	6013      	str	r3, [r2, #0]
                                            FMCW_STREAM_FLAG_DROPPED |
                                            FMCW_STREAM_FLAG_USB_LATE);
  }

  ++fmcw_stream_slope_seq;
 8000dbc:	4b0d      	ldr	r3, [pc, #52]	@ (8000df4 <FMCWStream_DMA_IRQHandler+0x16c>)
 8000dbe:	681b      	ldr	r3, [r3, #0]
 8000dc0:	3301      	adds	r3, #1
 8000dc2:	4a0c      	ldr	r2, [pc, #48]	@ (8000df4 <FMCWStream_DMA_IRQHandler+0x16c>)
 8000dc4:	6013      	str	r3, [r2, #0]
  return 1U;
 8000dc6:	2301      	movs	r3, #1
}
 8000dc8:	4618      	mov	r0, r3
 8000dca:	3718      	adds	r7, #24
 8000dcc:	46bd      	mov	sp, r7
 8000dce:	bd80      	pop	{r7, pc}
 8000dd0:	20028100 	.word	0x20028100
 8000dd4:	40026400 	.word	0x40026400
 8000dd8:	20028110 	.word	0x20028110
 8000ddc:	20028114 	.word	0x20028114
 8000de0:	40026428 	.word	0x40026428
 8000de4:	200280e4 	.word	0x200280e4
 8000de8:	50050000 	.word	0x50050000
 8000dec:	200000e4 	.word	0x200000e4
 8000df0:	2002810c 	.word	0x2002810c
 8000df4:	20028104 	.word	0x20028104

08000df8 <FMCWStream_MuxoutIRQHandler>:

void FMCWStream_MuxoutIRQHandler(void)
{
 8000df8:	b580      	push	{r7, lr}
 8000dfa:	af00      	add	r7, sp, #0
  ++fmcw_stream_muxout_count;
 8000dfc:	4b0a      	ldr	r3, [pc, #40]	@ (8000e28 <FMCWStream_MuxoutIRQHandler+0x30>)
 8000dfe:	681b      	ldr	r3, [r3, #0]
 8000e00:	3301      	adds	r3, #1
 8000e02:	4a09      	ldr	r2, [pc, #36]	@ (8000e28 <FMCWStream_MuxoutIRQHandler+0x30>)
 8000e04:	6013      	str	r3, [r2, #0]
  if ((fmcw_stream_align_armed != 0U) && (fmcw_stream_running == 0U))
 8000e06:	4b09      	ldr	r3, [pc, #36]	@ (8000e2c <FMCWStream_MuxoutIRQHandler+0x34>)
 8000e08:	781b      	ldrb	r3, [r3, #0]
 8000e0a:	b2db      	uxtb	r3, r3
 8000e0c:	2b00      	cmp	r3, #0
 8000e0e:	d009      	beq.n	8000e24 <FMCWStream_MuxoutIRQHandler+0x2c>
 8000e10:	4b07      	ldr	r3, [pc, #28]	@ (8000e30 <FMCWStream_MuxoutIRQHandler+0x38>)
 8000e12:	781b      	ldrb	r3, [r3, #0]
 8000e14:	b2db      	uxtb	r3, r3
 8000e16:	2b00      	cmp	r3, #0
 8000e18:	d104      	bne.n	8000e24 <FMCWStream_MuxoutIRQHandler+0x2c>
  {
    fmcw_stream_align_armed = 0U;
 8000e1a:	4b04      	ldr	r3, [pc, #16]	@ (8000e2c <FMCWStream_MuxoutIRQHandler+0x34>)
 8000e1c:	2200      	movs	r2, #0
 8000e1e:	701a      	strb	r2, [r3, #0]
    FMCWStream_StartCaptureFromMuxout();
 8000e20:	f000 fc80 	bl	8001724 <FMCWStream_StartCaptureFromMuxout>
  }
}
 8000e24:	bf00      	nop
 8000e26:	bd80      	pop	{r7, pc}
 8000e28:	20028108 	.word	0x20028108
 8000e2c:	200280ff 	.word	0x200280ff
 8000e30:	20028100 	.word	0x20028100

08000e34 <FMCWStream_USBNextBuffer>:

uint8_t FMCWStream_USBNextBuffer(const uint8_t **data, uint32_t *length)
{
 8000e34:	b580      	push	{r7, lr}
 8000e36:	b084      	sub	sp, #16
 8000e38:	af00      	add	r7, sp, #0
 8000e3a:	6078      	str	r0, [r7, #4]
 8000e3c:	6039      	str	r1, [r7, #0]
  uint8_t index;

  if ((data == NULL) || (length == NULL))
 8000e3e:	687b      	ldr	r3, [r7, #4]
 8000e40:	2b00      	cmp	r3, #0
 8000e42:	d002      	beq.n	8000e4a <FMCWStream_USBNextBuffer+0x16>
 8000e44:	683b      	ldr	r3, [r7, #0]
 8000e46:	2b00      	cmp	r3, #0
 8000e48:	d101      	bne.n	8000e4e <FMCWStream_USBNextBuffer+0x1a>
  {
    return 0U;
 8000e4a:	2300      	movs	r3, #0
 8000e4c:	e01e      	b.n	8000e8c <FMCWStream_USBNextBuffer+0x58>
  __ASM volatile ("cpsid i" : : : "memory");
 8000e4e:	b672      	cpsid	i
}
 8000e50:	bf00      	nop
  }

  __disable_irq();
  if (FMCWStream_PeekReady(&index) == 0U)
 8000e52:	f107 030f 	add.w	r3, r7, #15
 8000e56:	4618      	mov	r0, r3
 8000e58:	f000 f8ec 	bl	8001034 <FMCWStream_PeekReady>
 8000e5c:	4603      	mov	r3, r0
 8000e5e:	2b00      	cmp	r3, #0
 8000e60:	d103      	bne.n	8000e6a <FMCWStream_USBNextBuffer+0x36>
  __ASM volatile ("cpsie i" : : : "memory");
 8000e62:	b662      	cpsie	i
}
 8000e64:	bf00      	nop
  {
    __enable_irq();
    return 0U;
 8000e66:	2300      	movs	r3, #0
 8000e68:	e010      	b.n	8000e8c <FMCWStream_USBNextBuffer+0x58>
  }
  *data = (const uint8_t *)&fmcw_stream_frames[index];
 8000e6a:	7bfb      	ldrb	r3, [r7, #15]
 8000e6c:	461a      	mov	r2, r3
 8000e6e:	4613      	mov	r3, r2
 8000e70:	009b      	lsls	r3, r3, #2
 8000e72:	4413      	add	r3, r2
 8000e74:	031b      	lsls	r3, r3, #12
 8000e76:	4a07      	ldr	r2, [pc, #28]	@ (8000e94 <FMCWStream_USBNextBuffer+0x60>)
 8000e78:	441a      	add	r2, r3
 8000e7a:	687b      	ldr	r3, [r7, #4]
 8000e7c:	601a      	str	r2, [r3, #0]
  *length = FMCW_STREAM_FRAME_BYTES;
 8000e7e:	683b      	ldr	r3, [r7, #0]
 8000e80:	f44f 42a0 	mov.w	r2, #20480	@ 0x5000
 8000e84:	601a      	str	r2, [r3, #0]
  __ASM volatile ("cpsie i" : : : "memory");
 8000e86:	b662      	cpsie	i
}
 8000e88:	bf00      	nop
  __enable_irq();
  return 1U;
 8000e8a:	2301      	movs	r3, #1
}
 8000e8c:	4618      	mov	r0, r3
 8000e8e:	3710      	adds	r7, #16
 8000e90:	46bd      	mov	sp, r7
 8000e92:	bd80      	pop	{r7, pc}
 8000e94:	200000e4 	.word	0x200000e4

08000e98 <FMCWStream_USBTxDone>:

void FMCWStream_USBTxDone(const uint8_t *data, uint32_t length)
{
 8000e98:	b580      	push	{r7, lr}
 8000e9a:	b084      	sub	sp, #16
 8000e9c:	af00      	add	r7, sp, #0
 8000e9e:	6078      	str	r0, [r7, #4]
 8000ea0:	6039      	str	r1, [r7, #0]
  uint8_t index;

  if ((data == NULL) || (length != FMCW_STREAM_FRAME_BYTES))
 8000ea2:	687b      	ldr	r3, [r7, #4]
 8000ea4:	2b00      	cmp	r3, #0
 8000ea6:	d026      	beq.n	8000ef6 <FMCWStream_USBTxDone+0x5e>
 8000ea8:	683b      	ldr	r3, [r7, #0]
 8000eaa:	f5b3 4fa0 	cmp.w	r3, #20480	@ 0x5000
 8000eae:	d122      	bne.n	8000ef6 <FMCWStream_USBTxDone+0x5e>
  __ASM volatile ("cpsid i" : : : "memory");
 8000eb0:	b672      	cpsid	i
}
 8000eb2:	bf00      	nop
  {
    return;
  }

  __disable_irq();
  if ((FMCWStream_PeekReady(&index) != 0U) &&
 8000eb4:	f107 030f 	add.w	r3, r7, #15
 8000eb8:	4618      	mov	r0, r3
 8000eba:	f000 f8bb 	bl	8001034 <FMCWStream_PeekReady>
 8000ebe:	4603      	mov	r3, r0
 8000ec0:	2b00      	cmp	r3, #0
 8000ec2:	d016      	beq.n	8000ef2 <FMCWStream_USBTxDone+0x5a>
      (data == (const uint8_t *)&fmcw_stream_frames[index]) &&
 8000ec4:	7bfb      	ldrb	r3, [r7, #15]
 8000ec6:	461a      	mov	r2, r3
 8000ec8:	4613      	mov	r3, r2
 8000eca:	009b      	lsls	r3, r3, #2
 8000ecc:	4413      	add	r3, r2
 8000ece:	031b      	lsls	r3, r3, #12
 8000ed0:	4a0b      	ldr	r2, [pc, #44]	@ (8000f00 <FMCWStream_USBTxDone+0x68>)
 8000ed2:	4413      	add	r3, r2
  if ((FMCWStream_PeekReady(&index) != 0U) &&
 8000ed4:	687a      	ldr	r2, [r7, #4]
 8000ed6:	429a      	cmp	r2, r3
 8000ed8:	d10b      	bne.n	8000ef2 <FMCWStream_USBTxDone+0x5a>
      (FMCWStream_PopReady(&index) != 0U))
 8000eda:	f107 030f 	add.w	r3, r7, #15
 8000ede:	4618      	mov	r0, r3
 8000ee0:	f000 f8cc 	bl	800107c <FMCWStream_PopReady>
 8000ee4:	4603      	mov	r3, r0
      (data == (const uint8_t *)&fmcw_stream_frames[index]) &&
 8000ee6:	2b00      	cmp	r3, #0
 8000ee8:	d003      	beq.n	8000ef2 <FMCWStream_USBTxDone+0x5a>
  {
    FMCWStream_PushFree(index);
 8000eea:	7bfb      	ldrb	r3, [r7, #15]
 8000eec:	4618      	mov	r0, r3
 8000eee:	f000 f871 	bl	8000fd4 <FMCWStream_PushFree>
  __ASM volatile ("cpsie i" : : : "memory");
 8000ef2:	b662      	cpsie	i
}
 8000ef4:	e000      	b.n	8000ef8 <FMCWStream_USBTxDone+0x60>
    return;
 8000ef6:	bf00      	nop
  }
  __enable_irq();
}
 8000ef8:	3710      	adds	r7, #16
 8000efa:	46bd      	mov	sp, r7
 8000efc:	bd80      	pop	{r7, pc}
 8000efe:	bf00      	nop
 8000f00:	200000e4 	.word	0x200000e4

08000f04 <FMCWStream_ResetQueues>:

static void FMCWStream_ResetQueues(void)
{
 8000f04:	b580      	push	{r7, lr}
 8000f06:	b082      	sub	sp, #8
 8000f08:	af00      	add	r7, sp, #0
  fmcw_stream_free_head = 0U;
 8000f0a:	4b12      	ldr	r3, [pc, #72]	@ (8000f54 <FMCWStream_ResetQueues+0x50>)
 8000f0c:	2200      	movs	r2, #0
 8000f0e:	701a      	strb	r2, [r3, #0]
  fmcw_stream_free_tail = 0U;
 8000f10:	4b11      	ldr	r3, [pc, #68]	@ (8000f58 <FMCWStream_ResetQueues+0x54>)
 8000f12:	2200      	movs	r2, #0
 8000f14:	701a      	strb	r2, [r3, #0]
  fmcw_stream_free_count = 0U;
 8000f16:	4b11      	ldr	r3, [pc, #68]	@ (8000f5c <FMCWStream_ResetQueues+0x58>)
 8000f18:	2200      	movs	r2, #0
 8000f1a:	701a      	strb	r2, [r3, #0]
  fmcw_stream_ready_head = 0U;
 8000f1c:	4b10      	ldr	r3, [pc, #64]	@ (8000f60 <FMCWStream_ResetQueues+0x5c>)
 8000f1e:	2200      	movs	r2, #0
 8000f20:	701a      	strb	r2, [r3, #0]
  fmcw_stream_ready_tail = 0U;
 8000f22:	4b10      	ldr	r3, [pc, #64]	@ (8000f64 <FMCWStream_ResetQueues+0x60>)
 8000f24:	2200      	movs	r2, #0
 8000f26:	701a      	strb	r2, [r3, #0]
  fmcw_stream_ready_count = 0U;
 8000f28:	4b0f      	ldr	r3, [pc, #60]	@ (8000f68 <FMCWStream_ResetQueues+0x64>)
 8000f2a:	2200      	movs	r2, #0
 8000f2c:	701a      	strb	r2, [r3, #0]

  for (uint8_t i = 0U; i < FMCW_STREAM_FRAME_COUNT; ++i)
 8000f2e:	2300      	movs	r3, #0
 8000f30:	71fb      	strb	r3, [r7, #7]
 8000f32:	e006      	b.n	8000f42 <FMCWStream_ResetQueues+0x3e>
  {
    FMCWStream_PushFree(i);
 8000f34:	79fb      	ldrb	r3, [r7, #7]
 8000f36:	4618      	mov	r0, r3
 8000f38:	f000 f84c 	bl	8000fd4 <FMCWStream_PushFree>
  for (uint8_t i = 0U; i < FMCW_STREAM_FRAME_COUNT; ++i)
 8000f3c:	79fb      	ldrb	r3, [r7, #7]
 8000f3e:	3301      	adds	r3, #1
 8000f40:	71fb      	strb	r3, [r7, #7]
 8000f42:	79fb      	ldrb	r3, [r7, #7]
 8000f44:	2b07      	cmp	r3, #7
 8000f46:	d9f5      	bls.n	8000f34 <FMCWStream_ResetQueues+0x30>
  }
}
 8000f48:	bf00      	nop
 8000f4a:	bf00      	nop
 8000f4c:	3708      	adds	r7, #8
 8000f4e:	46bd      	mov	sp, r7
 8000f50:	bd80      	pop	{r7, pc}
 8000f52:	bf00      	nop
 8000f54:	200280f8 	.word	0x200280f8
 8000f58:	200280f9 	.word	0x200280f9
 8000f5c:	200280fa 	.word	0x200280fa
 8000f60:	200280fb 	.word	0x200280fb
 8000f64:	200280fc 	.word	0x200280fc
 8000f68:	200280fd 	.word	0x200280fd

08000f6c <FMCWStream_PopFree>:

static uint8_t FMCWStream_PopFree(uint8_t *index)
{
 8000f6c:	b480      	push	{r7}
 8000f6e:	b083      	sub	sp, #12
 8000f70:	af00      	add	r7, sp, #0
 8000f72:	6078      	str	r0, [r7, #4]
  if ((index == NULL) || (fmcw_stream_free_count == 0U))
 8000f74:	687b      	ldr	r3, [r7, #4]
 8000f76:	2b00      	cmp	r3, #0
 8000f78:	d004      	beq.n	8000f84 <FMCWStream_PopFree+0x18>
 8000f7a:	4b13      	ldr	r3, [pc, #76]	@ (8000fc8 <FMCWStream_PopFree+0x5c>)
 8000f7c:	781b      	ldrb	r3, [r3, #0]
 8000f7e:	b2db      	uxtb	r3, r3
 8000f80:	2b00      	cmp	r3, #0
 8000f82:	d101      	bne.n	8000f88 <FMCWStream_PopFree+0x1c>
  {
    return 0U;
 8000f84:	2300      	movs	r3, #0
 8000f86:	e019      	b.n	8000fbc <FMCWStream_PopFree+0x50>
  }

  *index = fmcw_stream_free_queue[fmcw_stream_free_head];
 8000f88:	4b10      	ldr	r3, [pc, #64]	@ (8000fcc <FMCWStream_PopFree+0x60>)
 8000f8a:	781b      	ldrb	r3, [r3, #0]
 8000f8c:	b2db      	uxtb	r3, r3
 8000f8e:	461a      	mov	r2, r3
 8000f90:	4b0f      	ldr	r3, [pc, #60]	@ (8000fd0 <FMCWStream_PopFree+0x64>)
 8000f92:	5c9a      	ldrb	r2, [r3, r2]
 8000f94:	687b      	ldr	r3, [r7, #4]
 8000f96:	701a      	strb	r2, [r3, #0]
  fmcw_stream_free_head = (uint8_t)((fmcw_stream_free_head + 1U) % FMCW_STREAM_FRAME_COUNT);
 8000f98:	4b0c      	ldr	r3, [pc, #48]	@ (8000fcc <FMCWStream_PopFree+0x60>)
 8000f9a:	781b      	ldrb	r3, [r3, #0]
 8000f9c:	b2db      	uxtb	r3, r3
 8000f9e:	3301      	adds	r3, #1
 8000fa0:	b2db      	uxtb	r3, r3
 8000fa2:	f003 0307 	and.w	r3, r3, #7
 8000fa6:	b2da      	uxtb	r2, r3
 8000fa8:	4b08      	ldr	r3, [pc, #32]	@ (8000fcc <FMCWStream_PopFree+0x60>)
 8000faa:	701a      	strb	r2, [r3, #0]
  --fmcw_stream_free_count;
 8000fac:	4b06      	ldr	r3, [pc, #24]	@ (8000fc8 <FMCWStream_PopFree+0x5c>)
 8000fae:	781b      	ldrb	r3, [r3, #0]
 8000fb0:	b2db      	uxtb	r3, r3
 8000fb2:	3b01      	subs	r3, #1
 8000fb4:	b2da      	uxtb	r2, r3
 8000fb6:	4b04      	ldr	r3, [pc, #16]	@ (8000fc8 <FMCWStream_PopFree+0x5c>)
 8000fb8:	701a      	strb	r2, [r3, #0]
  return 1U;
 8000fba:	2301      	movs	r3, #1
}
 8000fbc:	4618      	mov	r0, r3
 8000fbe:	370c      	adds	r7, #12
 8000fc0:	46bd      	mov	sp, r7
 8000fc2:	f85d 7b04 	ldr.w	r7, [sp], #4
 8000fc6:	4770      	bx	lr
 8000fc8:	200280fa 	.word	0x200280fa
 8000fcc:	200280f8 	.word	0x200280f8
 8000fd0:	200280e8 	.word	0x200280e8

08000fd4 <FMCWStream_PushFree>:

static void FMCWStream_PushFree(uint8_t index)
{
 8000fd4:	b480      	push	{r7}
 8000fd6:	b083      	sub	sp, #12
 8000fd8:	af00      	add	r7, sp, #0
 8000fda:	4603      	mov	r3, r0
 8000fdc:	71fb      	strb	r3, [r7, #7]
  if (fmcw_stream_free_count >= FMCW_STREAM_FRAME_COUNT)
 8000fde:	4b12      	ldr	r3, [pc, #72]	@ (8001028 <FMCWStream_PushFree+0x54>)
 8000fe0:	781b      	ldrb	r3, [r3, #0]
 8000fe2:	b2db      	uxtb	r3, r3
 8000fe4:	2b07      	cmp	r3, #7
 8000fe6:	d818      	bhi.n	800101a <FMCWStream_PushFree+0x46>
  {
    return;
  }

  fmcw_stream_free_queue[fmcw_stream_free_tail] = index;
 8000fe8:	4b10      	ldr	r3, [pc, #64]	@ (800102c <FMCWStream_PushFree+0x58>)
 8000fea:	781b      	ldrb	r3, [r3, #0]
 8000fec:	b2db      	uxtb	r3, r3
 8000fee:	4619      	mov	r1, r3
 8000ff0:	4a0f      	ldr	r2, [pc, #60]	@ (8001030 <FMCWStream_PushFree+0x5c>)
 8000ff2:	79fb      	ldrb	r3, [r7, #7]
 8000ff4:	5453      	strb	r3, [r2, r1]
  fmcw_stream_free_tail = (uint8_t)((fmcw_stream_free_tail + 1U) % FMCW_STREAM_FRAME_COUNT);
 8000ff6:	4b0d      	ldr	r3, [pc, #52]	@ (800102c <FMCWStream_PushFree+0x58>)
 8000ff8:	781b      	ldrb	r3, [r3, #0]
 8000ffa:	b2db      	uxtb	r3, r3
 8000ffc:	3301      	adds	r3, #1
 8000ffe:	b2db      	uxtb	r3, r3
 8001000:	f003 0307 	and.w	r3, r3, #7
 8001004:	b2da      	uxtb	r2, r3
 8001006:	4b09      	ldr	r3, [pc, #36]	@ (800102c <FMCWStream_PushFree+0x58>)
 8001008:	701a      	strb	r2, [r3, #0]
  ++fmcw_stream_free_count;
 800100a:	4b07      	ldr	r3, [pc, #28]	@ (8001028 <FMCWStream_PushFree+0x54>)
 800100c:	781b      	ldrb	r3, [r3, #0]
 800100e:	b2db      	uxtb	r3, r3
 8001010:	3301      	adds	r3, #1
 8001012:	b2da      	uxtb	r2, r3
 8001014:	4b04      	ldr	r3, [pc, #16]	@ (8001028 <FMCWStream_PushFree+0x54>)
 8001016:	701a      	strb	r2, [r3, #0]
 8001018:	e000      	b.n	800101c <FMCWStream_PushFree+0x48>
    return;
 800101a:	bf00      	nop
}
 800101c:	370c      	adds	r7, #12
 800101e:	46bd      	mov	sp, r7
 8001020:	f85d 7b04 	ldr.w	r7, [sp], #4
 8001024:	4770      	bx	lr
 8001026:	bf00      	nop
 8001028:	200280fa 	.word	0x200280fa
 800102c:	200280f9 	.word	0x200280f9
 8001030:	200280e8 	.word	0x200280e8

08001034 <FMCWStream_PeekReady>:

static uint8_t FMCWStream_PeekReady(uint8_t *index)
{
 8001034:	b480      	push	{r7}
 8001036:	b083      	sub	sp, #12
 8001038:	af00      	add	r7, sp, #0
 800103a:	6078      	str	r0, [r7, #4]
  if ((index == NULL) || (fmcw_stream_ready_count == 0U))
 800103c:	687b      	ldr	r3, [r7, #4]
 800103e:	2b00      	cmp	r3, #0
 8001040:	d004      	beq.n	800104c <FMCWStream_PeekReady+0x18>
 8001042:	4b0b      	ldr	r3, [pc, #44]	@ (8001070 <FMCWStream_PeekReady+0x3c>)
 8001044:	781b      	ldrb	r3, [r3, #0]
 8001046:	b2db      	uxtb	r3, r3
 8001048:	2b00      	cmp	r3, #0
 800104a:	d101      	bne.n	8001050 <FMCWStream_PeekReady+0x1c>
  {
    return 0U;
 800104c:	2300      	movs	r3, #0
 800104e:	e008      	b.n	8001062 <FMCWStream_PeekReady+0x2e>
  }

  *index = fmcw_stream_ready_queue[fmcw_stream_ready_head];
 8001050:	4b08      	ldr	r3, [pc, #32]	@ (8001074 <FMCWStream_PeekReady+0x40>)
 8001052:	781b      	ldrb	r3, [r3, #0]
 8001054:	b2db      	uxtb	r3, r3
 8001056:	461a      	mov	r2, r3
 8001058:	4b07      	ldr	r3, [pc, #28]	@ (8001078 <FMCWStream_PeekReady+0x44>)
 800105a:	5c9a      	ldrb	r2, [r3, r2]
 800105c:	687b      	ldr	r3, [r7, #4]
 800105e:	701a      	strb	r2, [r3, #0]
  return 1U;
 8001060:	2301      	movs	r3, #1
}
 8001062:	4618      	mov	r0, r3
 8001064:	370c      	adds	r7, #12
 8001066:	46bd      	mov	sp, r7
 8001068:	f85d 7b04 	ldr.w	r7, [sp], #4
 800106c:	4770      	bx	lr
 800106e:	bf00      	nop
 8001070:	200280fd 	.word	0x200280fd
 8001074:	200280fb 	.word	0x200280fb
 8001078:	200280f0 	.word	0x200280f0

0800107c <FMCWStream_PopReady>:

static uint8_t FMCWStream_PopReady(uint8_t *index)
{
 800107c:	b480      	push	{r7}
 800107e:	b083      	sub	sp, #12
 8001080:	af00      	add	r7, sp, #0
 8001082:	6078      	str	r0, [r7, #4]
  if ((index == NULL) || (fmcw_stream_ready_count == 0U))
 8001084:	687b      	ldr	r3, [r7, #4]
 8001086:	2b00      	cmp	r3, #0
 8001088:	d004      	beq.n	8001094 <FMCWStream_PopReady+0x18>
 800108a:	4b13      	ldr	r3, [pc, #76]	@ (80010d8 <FMCWStream_PopReady+0x5c>)
 800108c:	781b      	ldrb	r3, [r3, #0]
 800108e:	b2db      	uxtb	r3, r3
 8001090:	2b00      	cmp	r3, #0
 8001092:	d101      	bne.n	8001098 <FMCWStream_PopReady+0x1c>
  {
    return 0U;
 8001094:	2300      	movs	r3, #0
 8001096:	e019      	b.n	80010cc <FMCWStream_PopReady+0x50>
  }

  *index = fmcw_stream_ready_queue[fmcw_stream_ready_head];
 8001098:	4b10      	ldr	r3, [pc, #64]	@ (80010dc <FMCWStream_PopReady+0x60>)
 800109a:	781b      	ldrb	r3, [r3, #0]
 800109c:	b2db      	uxtb	r3, r3
 800109e:	461a      	mov	r2, r3
 80010a0:	4b0f      	ldr	r3, [pc, #60]	@ (80010e0 <FMCWStream_PopReady+0x64>)
 80010a2:	5c9a      	ldrb	r2, [r3, r2]
 80010a4:	687b      	ldr	r3, [r7, #4]
 80010a6:	701a      	strb	r2, [r3, #0]
  fmcw_stream_ready_head = (uint8_t)((fmcw_stream_ready_head + 1U) % FMCW_STREAM_FRAME_COUNT);
 80010a8:	4b0c      	ldr	r3, [pc, #48]	@ (80010dc <FMCWStream_PopReady+0x60>)
 80010aa:	781b      	ldrb	r3, [r3, #0]
 80010ac:	b2db      	uxtb	r3, r3
 80010ae:	3301      	adds	r3, #1
 80010b0:	b2db      	uxtb	r3, r3
 80010b2:	f003 0307 	and.w	r3, r3, #7
 80010b6:	b2da      	uxtb	r2, r3
 80010b8:	4b08      	ldr	r3, [pc, #32]	@ (80010dc <FMCWStream_PopReady+0x60>)
 80010ba:	701a      	strb	r2, [r3, #0]
  --fmcw_stream_ready_count;
 80010bc:	4b06      	ldr	r3, [pc, #24]	@ (80010d8 <FMCWStream_PopReady+0x5c>)
 80010be:	781b      	ldrb	r3, [r3, #0]
 80010c0:	b2db      	uxtb	r3, r3
 80010c2:	3b01      	subs	r3, #1
 80010c4:	b2da      	uxtb	r2, r3
 80010c6:	4b04      	ldr	r3, [pc, #16]	@ (80010d8 <FMCWStream_PopReady+0x5c>)
 80010c8:	701a      	strb	r2, [r3, #0]
  return 1U;
 80010ca:	2301      	movs	r3, #1
}
 80010cc:	4618      	mov	r0, r3
 80010ce:	370c      	adds	r7, #12
 80010d0:	46bd      	mov	sp, r7
 80010d2:	f85d 7b04 	ldr.w	r7, [sp], #4
 80010d6:	4770      	bx	lr
 80010d8:	200280fd 	.word	0x200280fd
 80010dc:	200280fb 	.word	0x200280fb
 80010e0:	200280f0 	.word	0x200280f0

080010e4 <FMCWStream_PushReady>:

static void FMCWStream_PushReady(uint8_t index)
{
 80010e4:	b480      	push	{r7}
 80010e6:	b083      	sub	sp, #12
 80010e8:	af00      	add	r7, sp, #0
 80010ea:	4603      	mov	r3, r0
 80010ec:	71fb      	strb	r3, [r7, #7]
  if (fmcw_stream_ready_count >= FMCW_STREAM_FRAME_COUNT)
 80010ee:	4b12      	ldr	r3, [pc, #72]	@ (8001138 <FMCWStream_PushReady+0x54>)
 80010f0:	781b      	ldrb	r3, [r3, #0]
 80010f2:	b2db      	uxtb	r3, r3
 80010f4:	2b07      	cmp	r3, #7
 80010f6:	d818      	bhi.n	800112a <FMCWStream_PushReady+0x46>
  {
    return;
  }

  fmcw_stream_ready_queue[fmcw_stream_ready_tail] = index;
 80010f8:	4b10      	ldr	r3, [pc, #64]	@ (800113c <FMCWStream_PushReady+0x58>)
 80010fa:	781b      	ldrb	r3, [r3, #0]
 80010fc:	b2db      	uxtb	r3, r3
 80010fe:	4619      	mov	r1, r3
 8001100:	4a0f      	ldr	r2, [pc, #60]	@ (8001140 <FMCWStream_PushReady+0x5c>)
 8001102:	79fb      	ldrb	r3, [r7, #7]
 8001104:	5453      	strb	r3, [r2, r1]
  fmcw_stream_ready_tail = (uint8_t)((fmcw_stream_ready_tail + 1U) % FMCW_STREAM_FRAME_COUNT);
 8001106:	4b0d      	ldr	r3, [pc, #52]	@ (800113c <FMCWStream_PushReady+0x58>)
 8001108:	781b      	ldrb	r3, [r3, #0]
 800110a:	b2db      	uxtb	r3, r3
 800110c:	3301      	adds	r3, #1
 800110e:	b2db      	uxtb	r3, r3
 8001110:	f003 0307 	and.w	r3, r3, #7
 8001114:	b2da      	uxtb	r2, r3
 8001116:	4b09      	ldr	r3, [pc, #36]	@ (800113c <FMCWStream_PushReady+0x58>)
 8001118:	701a      	strb	r2, [r3, #0]
  ++fmcw_stream_ready_count;
 800111a:	4b07      	ldr	r3, [pc, #28]	@ (8001138 <FMCWStream_PushReady+0x54>)
 800111c:	781b      	ldrb	r3, [r3, #0]
 800111e:	b2db      	uxtb	r3, r3
 8001120:	3301      	adds	r3, #1
 8001122:	b2da      	uxtb	r2, r3
 8001124:	4b04      	ldr	r3, [pc, #16]	@ (8001138 <FMCWStream_PushReady+0x54>)
 8001126:	701a      	strb	r2, [r3, #0]
 8001128:	e000      	b.n	800112c <FMCWStream_PushReady+0x48>
    return;
 800112a:	bf00      	nop
}
 800112c:	370c      	adds	r7, #12
 800112e:	46bd      	mov	sp, r7
 8001130:	f85d 7b04 	ldr.w	r7, [sp], #4
 8001134:	4770      	bx	lr
 8001136:	bf00      	nop
 8001138:	200280fd 	.word	0x200280fd
 800113c:	200280fc 	.word	0x200280fc
 8001140:	200280f0 	.word	0x200280f0

08001144 <FMCWStream_FillHeader>:

static void FMCWStream_FillHeader(uint8_t frame_index,
                                  uint16_t flags,
                                  uint32_t dcmi_risr,
                                  uint32_t dma_lisr)
{
 8001144:	b580      	push	{r7, lr}
 8001146:	b086      	sub	sp, #24
 8001148:	af00      	add	r7, sp, #0
 800114a:	60ba      	str	r2, [r7, #8]
 800114c:	607b      	str	r3, [r7, #4]
 800114e:	4603      	mov	r3, r0
 8001150:	73fb      	strb	r3, [r7, #15]
 8001152:	460b      	mov	r3, r1
 8001154:	81bb      	strh	r3, [r7, #12]
  FMCWStream_Header *header = &fmcw_stream_frames[frame_index].header;
 8001156:	7bfa      	ldrb	r2, [r7, #15]
 8001158:	4613      	mov	r3, r2
 800115a:	009b      	lsls	r3, r3, #2
 800115c:	4413      	add	r3, r2
 800115e:	031b      	lsls	r3, r3, #12
 8001160:	4a52      	ldr	r2, [pc, #328]	@ (80012ac <FMCWStream_FillHeader+0x168>)
 8001162:	4413      	add	r3, r2
 8001164:	617b      	str	r3, [r7, #20]
  uint32_t seq = fmcw_stream_slope_seq;
 8001166:	4b52      	ldr	r3, [pc, #328]	@ (80012b0 <FMCWStream_FillHeader+0x16c>)
 8001168:	681b      	ldr	r3, [r3, #0]
 800116a:	613b      	str	r3, [r7, #16]

  header->magic = FMCW_STREAM_MAGIC;
 800116c:	697b      	ldr	r3, [r7, #20]
 800116e:	2200      	movs	r2, #0
 8001170:	f042 0252 	orr.w	r2, r2, #82	@ 0x52
 8001174:	701a      	strb	r2, [r3, #0]
 8001176:	2200      	movs	r2, #0
 8001178:	f042 0241 	orr.w	r2, r2, #65	@ 0x41
 800117c:	705a      	strb	r2, [r3, #1]
 800117e:	2200      	movs	r2, #0
 8001180:	f042 0244 	orr.w	r2, r2, #68	@ 0x44
 8001184:	709a      	strb	r2, [r3, #2]
 8001186:	2200      	movs	r2, #0
 8001188:	f042 0252 	orr.w	r2, r2, #82	@ 0x52
 800118c:	70da      	strb	r2, [r3, #3]
  header->version = FMCW_STREAM_VERSION;
 800118e:	697b      	ldr	r3, [r7, #20]
 8001190:	2200      	movs	r2, #0
 8001192:	f042 0201 	orr.w	r2, r2, #1
 8001196:	711a      	strb	r2, [r3, #4]
 8001198:	2200      	movs	r2, #0
 800119a:	715a      	strb	r2, [r3, #5]
  header->header_len = FMCW_STREAM_HEADER_BYTES;
 800119c:	697b      	ldr	r3, [r7, #20]
 800119e:	2200      	movs	r2, #0
 80011a0:	f042 0240 	orr.w	r2, r2, #64	@ 0x40
 80011a4:	719a      	strb	r2, [r3, #6]
 80011a6:	2200      	movs	r2, #0
 80011a8:	71da      	strb	r2, [r3, #7]
  header->frame_len = FMCW_STREAM_FRAME_BYTES;
 80011aa:	697b      	ldr	r3, [r7, #20]
 80011ac:	2200      	movs	r2, #0
 80011ae:	721a      	strb	r2, [r3, #8]
 80011b0:	2200      	movs	r2, #0
 80011b2:	f042 0250 	orr.w	r2, r2, #80	@ 0x50
 80011b6:	725a      	strb	r2, [r3, #9]
 80011b8:	2200      	movs	r2, #0
 80011ba:	729a      	strb	r2, [r3, #10]
 80011bc:	2200      	movs	r2, #0
 80011be:	72da      	strb	r2, [r3, #11]
  header->slope_seq = seq;
 80011c0:	697b      	ldr	r3, [r7, #20]
 80011c2:	693a      	ldr	r2, [r7, #16]
 80011c4:	60da      	str	r2, [r3, #12]
  header->triangle_seq = seq / 2U;
 80011c6:	693b      	ldr	r3, [r7, #16]
 80011c8:	085a      	lsrs	r2, r3, #1
 80011ca:	697b      	ldr	r3, [r7, #20]
 80011cc:	611a      	str	r2, [r3, #16]
  header->slope_id = (uint16_t)(seq & 1U);
 80011ce:	693b      	ldr	r3, [r7, #16]
 80011d0:	b29b      	uxth	r3, r3
 80011d2:	f003 0301 	and.w	r3, r3, #1
 80011d6:	b29a      	uxth	r2, r3
 80011d8:	697b      	ldr	r3, [r7, #20]
 80011da:	829a      	strh	r2, [r3, #20]
  header->flags = flags;
 80011dc:	697b      	ldr	r3, [r7, #20]
 80011de:	89ba      	ldrh	r2, [r7, #12]
 80011e0:	82da      	strh	r2, [r3, #22]
  header->sample_rate_hz = FMCW_STREAM_SAMPLE_RATE_HZ;
 80011e2:	697b      	ldr	r3, [r7, #20]
 80011e4:	2200      	movs	r2, #0
 80011e6:	f062 027f 	orn	r2, r2, #127	@ 0x7f
 80011ea:	761a      	strb	r2, [r3, #24]
 80011ec:	2200      	movs	r2, #0
 80011ee:	f062 0269 	orn	r2, r2, #105	@ 0x69
 80011f2:	765a      	strb	r2, [r3, #25]
 80011f4:	2200      	movs	r2, #0
 80011f6:	f062 0267 	orn	r2, r2, #103	@ 0x67
 80011fa:	769a      	strb	r2, [r3, #26]
 80011fc:	2200      	movs	r2, #0
 80011fe:	76da      	strb	r2, [r3, #27]
  header->samples_per_slope = FMCW_STREAM_SAMPLES_PER_SLOPE;
 8001200:	697b      	ldr	r3, [r7, #20]
 8001202:	2200      	movs	r2, #0
 8001204:	f042 0210 	orr.w	r2, r2, #16
 8001208:	771a      	strb	r2, [r3, #28]
 800120a:	2200      	movs	r2, #0
 800120c:	f042 0227 	orr.w	r2, r2, #39	@ 0x27
 8001210:	775a      	strb	r2, [r3, #29]
 8001212:	2200      	movs	r2, #0
 8001214:	779a      	strb	r2, [r3, #30]
 8001216:	2200      	movs	r2, #0
 8001218:	77da      	strb	r2, [r3, #31]
  header->adc_bits = FMCW_STREAM_ADC_BITS;
 800121a:	697b      	ldr	r3, [r7, #20]
 800121c:	2200      	movs	r2, #0
 800121e:	f042 020c 	orr.w	r2, r2, #12
 8001222:	f883 2020 	strb.w	r2, [r3, #32]
 8001226:	2200      	movs	r2, #0
 8001228:	f883 2021 	strb.w	r2, [r3, #33]	@ 0x21
  header->words_per_slope = FMCW_STREAM_WORDS_PER_SLOPE;
 800122c:	697b      	ldr	r3, [r7, #20]
 800122e:	2200      	movs	r2, #0
 8001230:	f062 0277 	orn	r2, r2, #119	@ 0x77
 8001234:	f883 2022 	strb.w	r2, [r3, #34]	@ 0x22
 8001238:	2200      	movs	r2, #0
 800123a:	f042 0213 	orr.w	r2, r2, #19
 800123e:	f883 2023 	strb.w	r2, [r3, #35]	@ 0x23
  header->timestamp_us = HAL_GetTick() * 1000UL;
 8001242:	f002 fdf9 	bl	8003e38 <HAL_GetTick>
 8001246:	4603      	mov	r3, r0
 8001248:	f44f 727a 	mov.w	r2, #1000	@ 0x3e8
 800124c:	fb03 f202 	mul.w	r2, r3, r2
 8001250:	697b      	ldr	r3, [r7, #20]
 8001252:	625a      	str	r2, [r3, #36]	@ 0x24
  header->muxout_count = fmcw_stream_muxout_count;
 8001254:	4b17      	ldr	r3, [pc, #92]	@ (80012b4 <FMCWStream_FillHeader+0x170>)
 8001256:	681a      	ldr	r2, [r3, #0]
 8001258:	697b      	ldr	r3, [r7, #20]
 800125a:	629a      	str	r2, [r3, #40]	@ 0x28
  header->dropped_frames = fmcw_stream_dropped_frames;
 800125c:	4b16      	ldr	r3, [pc, #88]	@ (80012b8 <FMCWStream_FillHeader+0x174>)
 800125e:	681a      	ldr	r2, [r3, #0]
 8001260:	697b      	ldr	r3, [r7, #20]
 8001262:	62da      	str	r2, [r3, #44]	@ 0x2c
  header->dcmi_risr = dcmi_risr;
 8001264:	697b      	ldr	r3, [r7, #20]
 8001266:	68ba      	ldr	r2, [r7, #8]
 8001268:	631a      	str	r2, [r3, #48]	@ 0x30
  header->dma_lisr = dma_lisr;
 800126a:	697b      	ldr	r3, [r7, #20]
 800126c:	687a      	ldr	r2, [r7, #4]
 800126e:	635a      	str	r2, [r3, #52]	@ 0x34
  header->reserved0 = 0U;
 8001270:	697b      	ldr	r3, [r7, #20]
 8001272:	2200      	movs	r2, #0
 8001274:	f883 2038 	strb.w	r2, [r3, #56]	@ 0x38
 8001278:	2200      	movs	r2, #0
 800127a:	f883 2039 	strb.w	r2, [r3, #57]	@ 0x39
 800127e:	2200      	movs	r2, #0
 8001280:	f883 203a 	strb.w	r2, [r3, #58]	@ 0x3a
 8001284:	2200      	movs	r2, #0
 8001286:	f883 203b 	strb.w	r2, [r3, #59]	@ 0x3b
  header->reserved1 = 0U;
 800128a:	697b      	ldr	r3, [r7, #20]
 800128c:	2200      	movs	r2, #0
 800128e:	f883 203c 	strb.w	r2, [r3, #60]	@ 0x3c
 8001292:	2200      	movs	r2, #0
 8001294:	f883 203d 	strb.w	r2, [r3, #61]	@ 0x3d
 8001298:	2200      	movs	r2, #0
 800129a:	f883 203e 	strb.w	r2, [r3, #62]	@ 0x3e
 800129e:	2200      	movs	r2, #0
 80012a0:	f883 203f 	strb.w	r2, [r3, #63]	@ 0x3f
}
 80012a4:	bf00      	nop
 80012a6:	3718      	adds	r7, #24
 80012a8:	46bd      	mov	sp, r7
 80012aa:	bd80      	pop	{r7, pc}
 80012ac:	200000e4 	.word	0x200000e4
 80012b0:	20028104 	.word	0x20028104
 80012b4:	20028108 	.word	0x20028108
 80012b8:	2002810c 	.word	0x2002810c

080012bc <FMCWStream_ConfigureGain>:

static void FMCWStream_ConfigureGain(void)
{
 80012bc:	b580      	push	{r7, lr}
 80012be:	b086      	sub	sp, #24
 80012c0:	af00      	add	r7, sp, #0
  GPIO_InitTypeDef gpio = {0};
 80012c2:	1d3b      	adds	r3, r7, #4
 80012c4:	2200      	movs	r2, #0
 80012c6:	601a      	str	r2, [r3, #0]
 80012c8:	605a      	str	r2, [r3, #4]
 80012ca:	609a      	str	r2, [r3, #8]
 80012cc:	60da      	str	r2, [r3, #12]
 80012ce:	611a      	str	r2, [r3, #16]

  __HAL_RCC_GPIOD_CLK_ENABLE();
 80012d0:	2300      	movs	r3, #0
 80012d2:	603b      	str	r3, [r7, #0]
 80012d4:	4b13      	ldr	r3, [pc, #76]	@ (8001324 <FMCWStream_ConfigureGain+0x68>)
 80012d6:	6b1b      	ldr	r3, [r3, #48]	@ 0x30
 80012d8:	4a12      	ldr	r2, [pc, #72]	@ (8001324 <FMCWStream_ConfigureGain+0x68>)
 80012da:	f043 0308 	orr.w	r3, r3, #8
 80012de:	6313      	str	r3, [r2, #48]	@ 0x30
 80012e0:	4b10      	ldr	r3, [pc, #64]	@ (8001324 <FMCWStream_ConfigureGain+0x68>)
 80012e2:	6b1b      	ldr	r3, [r3, #48]	@ 0x30
 80012e4:	f003 0308 	and.w	r3, r3, #8
 80012e8:	603b      	str	r3, [r7, #0]
 80012ea:	683b      	ldr	r3, [r7, #0]

  gpio.Pin = ADC_GAIN_Pin;
 80012ec:	f44f 5380 	mov.w	r3, #4096	@ 0x1000
 80012f0:	607b      	str	r3, [r7, #4]
  gpio.Mode = GPIO_MODE_OUTPUT_PP;
 80012f2:	2301      	movs	r3, #1
 80012f4:	60bb      	str	r3, [r7, #8]
  gpio.Pull = GPIO_NOPULL;
 80012f6:	2300      	movs	r3, #0
 80012f8:	60fb      	str	r3, [r7, #12]
  gpio.Speed = GPIO_SPEED_FREQ_LOW;
 80012fa:	2300      	movs	r3, #0
 80012fc:	613b      	str	r3, [r7, #16]
  HAL_GPIO_Init(ADC_GAIN_GPIO_Port, &gpio);
 80012fe:	1d3b      	adds	r3, r7, #4
 8001300:	4619      	mov	r1, r3
 8001302:	4809      	ldr	r0, [pc, #36]	@ (8001328 <FMCWStream_ConfigureGain+0x6c>)
 8001304:	f003 f864 	bl	80043d0 <HAL_GPIO_Init>
  HAL_GPIO_WritePin(ADC_GAIN_GPIO_Port, ADC_GAIN_Pin, GPIO_PIN_SET);
 8001308:	2201      	movs	r2, #1
 800130a:	f44f 5180 	mov.w	r1, #4096	@ 0x1000
 800130e:	4806      	ldr	r0, [pc, #24]	@ (8001328 <FMCWStream_ConfigureGain+0x6c>)
 8001310:	f003 fa22 	bl	8004758 <HAL_GPIO_WritePin>

  printf("STREAM: ADC_GAIN=1x\r\n");
 8001314:	4805      	ldr	r0, [pc, #20]	@ (800132c <FMCWStream_ConfigureGain+0x70>)
 8001316:	f006 ffe5 	bl	80082e4 <puts>
}
 800131a:	bf00      	nop
 800131c:	3718      	adds	r7, #24
 800131e:	46bd      	mov	sp, r7
 8001320:	bd80      	pop	{r7, pc}
 8001322:	bf00      	nop
 8001324:	40023800 	.word	0x40023800
 8001328:	40020c00 	.word	0x40020c00
 800132c:	08009600 	.word	0x08009600

08001330 <FMCWStream_ConfigureHsyncDrive>:

static void FMCWStream_ConfigureHsyncDrive(void)
{
 8001330:	b580      	push	{r7, lr}
 8001332:	b086      	sub	sp, #24
 8001334:	af00      	add	r7, sp, #0
  GPIO_InitTypeDef gpio = {0};
 8001336:	1d3b      	adds	r3, r7, #4
 8001338:	2200      	movs	r2, #0
 800133a:	601a      	str	r2, [r3, #0]
 800133c:	605a      	str	r2, [r3, #4]
 800133e:	609a      	str	r2, [r3, #8]
 8001340:	60da      	str	r2, [r3, #12]
 8001342:	611a      	str	r2, [r3, #16]

  __HAL_RCC_GPIOA_CLK_ENABLE();
 8001344:	2300      	movs	r3, #0
 8001346:	603b      	str	r3, [r7, #0]
 8001348:	4b10      	ldr	r3, [pc, #64]	@ (800138c <FMCWStream_ConfigureHsyncDrive+0x5c>)
 800134a:	6b1b      	ldr	r3, [r3, #48]	@ 0x30
 800134c:	4a0f      	ldr	r2, [pc, #60]	@ (800138c <FMCWStream_ConfigureHsyncDrive+0x5c>)
 800134e:	f043 0301 	orr.w	r3, r3, #1
 8001352:	6313      	str	r3, [r2, #48]	@ 0x30
 8001354:	4b0d      	ldr	r3, [pc, #52]	@ (800138c <FMCWStream_ConfigureHsyncDrive+0x5c>)
 8001356:	6b1b      	ldr	r3, [r3, #48]	@ 0x30
 8001358:	f003 0301 	and.w	r3, r3, #1
 800135c:	603b      	str	r3, [r7, #0]
 800135e:	683b      	ldr	r3, [r7, #0]

  gpio.Pin = FMCW_STREAM_HSYNC_DRIVE_PIN;
 8001360:	2380      	movs	r3, #128	@ 0x80
 8001362:	607b      	str	r3, [r7, #4]
  gpio.Mode = GPIO_MODE_OUTPUT_PP;
 8001364:	2301      	movs	r3, #1
 8001366:	60bb      	str	r3, [r7, #8]
  gpio.Pull = GPIO_NOPULL;
 8001368:	2300      	movs	r3, #0
 800136a:	60fb      	str	r3, [r7, #12]
  gpio.Speed = GPIO_SPEED_FREQ_HIGH;
 800136c:	2302      	movs	r3, #2
 800136e:	613b      	str	r3, [r7, #16]
  HAL_GPIO_Init(FMCW_STREAM_HSYNC_DRIVE_PORT, &gpio);
 8001370:	1d3b      	adds	r3, r7, #4
 8001372:	4619      	mov	r1, r3
 8001374:	4806      	ldr	r0, [pc, #24]	@ (8001390 <FMCWStream_ConfigureHsyncDrive+0x60>)
 8001376:	f003 f82b 	bl	80043d0 <HAL_GPIO_Init>
  HAL_GPIO_WritePin(FMCW_STREAM_HSYNC_DRIVE_PORT,
 800137a:	2200      	movs	r2, #0
 800137c:	2180      	movs	r1, #128	@ 0x80
 800137e:	4804      	ldr	r0, [pc, #16]	@ (8001390 <FMCWStream_ConfigureHsyncDrive+0x60>)
 8001380:	f003 f9ea 	bl	8004758 <HAL_GPIO_WritePin>
                    FMCW_STREAM_HSYNC_DRIVE_PIN,
                    GPIO_PIN_RESET);
}
 8001384:	bf00      	nop
 8001386:	3718      	adds	r7, #24
 8001388:	46bd      	mov	sp, r7
 800138a:	bd80      	pop	{r7, pc}
 800138c:	40023800 	.word	0x40023800
 8001390:	40020000 	.word	0x40020000

08001394 <FMCWStream_PrepareVsyncStart>:

static void FMCWStream_PrepareVsyncStart(void)
{
 8001394:	b580      	push	{r7, lr}
 8001396:	b086      	sub	sp, #24
 8001398:	af00      	add	r7, sp, #0
  GPIO_InitTypeDef gpio = {0};
 800139a:	1d3b      	adds	r3, r7, #4
 800139c:	2200      	movs	r2, #0
 800139e:	601a      	str	r2, [r3, #0]
 80013a0:	605a      	str	r2, [r3, #4]
 80013a2:	609a      	str	r2, [r3, #8]
 80013a4:	60da      	str	r2, [r3, #12]
 80013a6:	611a      	str	r2, [r3, #16]

  __HAL_RCC_GPIOB_CLK_ENABLE();
 80013a8:	2300      	movs	r3, #0
 80013aa:	603b      	str	r3, [r7, #0]
 80013ac:	4b10      	ldr	r3, [pc, #64]	@ (80013f0 <FMCWStream_PrepareVsyncStart+0x5c>)
 80013ae:	6b1b      	ldr	r3, [r3, #48]	@ 0x30
 80013b0:	4a0f      	ldr	r2, [pc, #60]	@ (80013f0 <FMCWStream_PrepareVsyncStart+0x5c>)
 80013b2:	f043 0302 	orr.w	r3, r3, #2
 80013b6:	6313      	str	r3, [r2, #48]	@ 0x30
 80013b8:	4b0d      	ldr	r3, [pc, #52]	@ (80013f0 <FMCWStream_PrepareVsyncStart+0x5c>)
 80013ba:	6b1b      	ldr	r3, [r3, #48]	@ 0x30
 80013bc:	f003 0302 	and.w	r3, r3, #2
 80013c0:	603b      	str	r3, [r7, #0]
 80013c2:	683b      	ldr	r3, [r7, #0]

  gpio.Pin = FMCW_STREAM_VSYNC_PIN;
 80013c4:	2380      	movs	r3, #128	@ 0x80
 80013c6:	607b      	str	r3, [r7, #4]
  gpio.Mode = GPIO_MODE_OUTPUT_PP;
 80013c8:	2301      	movs	r3, #1
 80013ca:	60bb      	str	r3, [r7, #8]
  gpio.Pull = GPIO_NOPULL;
 80013cc:	2300      	movs	r3, #0
 80013ce:	60fb      	str	r3, [r7, #12]
  gpio.Speed = GPIO_SPEED_FREQ_LOW;
 80013d0:	2300      	movs	r3, #0
 80013d2:	613b      	str	r3, [r7, #16]
  HAL_GPIO_Init(FMCW_STREAM_VSYNC_PORT, &gpio);
 80013d4:	1d3b      	adds	r3, r7, #4
 80013d6:	4619      	mov	r1, r3
 80013d8:	4806      	ldr	r0, [pc, #24]	@ (80013f4 <FMCWStream_PrepareVsyncStart+0x60>)
 80013da:	f002 fff9 	bl	80043d0 <HAL_GPIO_Init>
  HAL_GPIO_WritePin(FMCW_STREAM_VSYNC_PORT, FMCW_STREAM_VSYNC_PIN, GPIO_PIN_SET);
 80013de:	2201      	movs	r2, #1
 80013e0:	2180      	movs	r1, #128	@ 0x80
 80013e2:	4804      	ldr	r0, [pc, #16]	@ (80013f4 <FMCWStream_PrepareVsyncStart+0x60>)
 80013e4:	f003 f9b8 	bl	8004758 <HAL_GPIO_WritePin>
}
 80013e8:	bf00      	nop
 80013ea:	3718      	adds	r7, #24
 80013ec:	46bd      	mov	sp, r7
 80013ee:	bd80      	pop	{r7, pc}
 80013f0:	40023800 	.word	0x40023800
 80013f4:	40020400 	.word	0x40020400

080013f8 <FMCWStream_ReleaseVsyncToDcmi>:

static void FMCWStream_ReleaseVsyncToDcmi(void)
{
 80013f8:	b580      	push	{r7, lr}
 80013fa:	b086      	sub	sp, #24
 80013fc:	af00      	add	r7, sp, #0
  GPIO_InitTypeDef gpio = {0};
 80013fe:	1d3b      	adds	r3, r7, #4
 8001400:	2200      	movs	r2, #0
 8001402:	601a      	str	r2, [r3, #0]
 8001404:	605a      	str	r2, [r3, #4]
 8001406:	609a      	str	r2, [r3, #8]
 8001408:	60da      	str	r2, [r3, #12]
 800140a:	611a      	str	r2, [r3, #16]

  gpio.Pin = FMCW_STREAM_VSYNC_PIN;
 800140c:	2380      	movs	r3, #128	@ 0x80
 800140e:	607b      	str	r3, [r7, #4]
  gpio.Mode = GPIO_MODE_AF_PP;
 8001410:	2302      	movs	r3, #2
 8001412:	60bb      	str	r3, [r7, #8]
  gpio.Pull = GPIO_NOPULL;
 8001414:	2300      	movs	r3, #0
 8001416:	60fb      	str	r3, [r7, #12]
  gpio.Speed = GPIO_SPEED_FREQ_VERY_HIGH;
 8001418:	2303      	movs	r3, #3
 800141a:	613b      	str	r3, [r7, #16]
  gpio.Alternate = GPIO_AF13_DCMI;
 800141c:	230d      	movs	r3, #13
 800141e:	617b      	str	r3, [r7, #20]
  HAL_GPIO_Init(FMCW_STREAM_VSYNC_PORT, &gpio);
 8001420:	1d3b      	adds	r3, r7, #4
 8001422:	4619      	mov	r1, r3
 8001424:	4803      	ldr	r0, [pc, #12]	@ (8001434 <FMCWStream_ReleaseVsyncToDcmi+0x3c>)
 8001426:	f002 ffd3 	bl	80043d0 <HAL_GPIO_Init>
}
 800142a:	bf00      	nop
 800142c:	3718      	adds	r7, #24
 800142e:	46bd      	mov	sp, r7
 8001430:	bd80      	pop	{r7, pc}
 8001432:	bf00      	nop
 8001434:	40020400 	.word	0x40020400

08001438 <FMCWStream_ShortDelay>:

static void FMCWStream_ShortDelay(void)
{
 8001438:	b480      	push	{r7}
 800143a:	b083      	sub	sp, #12
 800143c:	af00      	add	r7, sp, #0
  for (volatile uint32_t i = 0U; i < 2000U; ++i)
 800143e:	2300      	movs	r3, #0
 8001440:	607b      	str	r3, [r7, #4]
 8001442:	e002      	b.n	800144a <FMCWStream_ShortDelay+0x12>
 8001444:	687b      	ldr	r3, [r7, #4]
 8001446:	3301      	adds	r3, #1
 8001448:	607b      	str	r3, [r7, #4]
 800144a:	687b      	ldr	r3, [r7, #4]
 800144c:	f5b3 6ffa 	cmp.w	r3, #2000	@ 0x7d0
 8001450:	d3f8      	bcc.n	8001444 <FMCWStream_ShortDelay+0xc>
  {
  }
}
 8001452:	bf00      	nop
 8001454:	bf00      	nop
 8001456:	370c      	adds	r7, #12
 8001458:	46bd      	mov	sp, r7
 800145a:	f85d 7b04 	ldr.w	r7, [sp], #4
 800145e:	4770      	bx	lr

08001460 <FMCWStream_ConfigureDcmiPins>:

static void FMCWStream_ConfigureDcmiPins(void)
{
 8001460:	b580      	push	{r7, lr}
 8001462:	b08a      	sub	sp, #40	@ 0x28
 8001464:	af00      	add	r7, sp, #0
  GPIO_InitTypeDef gpio = {0};
 8001466:	f107 0314 	add.w	r3, r7, #20
 800146a:	2200      	movs	r2, #0
 800146c:	601a      	str	r2, [r3, #0]
 800146e:	605a      	str	r2, [r3, #4]
 8001470:	609a      	str	r2, [r3, #8]
 8001472:	60da      	str	r2, [r3, #12]
 8001474:	611a      	str	r2, [r3, #16]

  __HAL_RCC_GPIOA_CLK_ENABLE();
 8001476:	2300      	movs	r3, #0
 8001478:	613b      	str	r3, [r7, #16]
 800147a:	4b34      	ldr	r3, [pc, #208]	@ (800154c <FMCWStream_ConfigureDcmiPins+0xec>)
 800147c:	6b1b      	ldr	r3, [r3, #48]	@ 0x30
 800147e:	4a33      	ldr	r2, [pc, #204]	@ (800154c <FMCWStream_ConfigureDcmiPins+0xec>)
 8001480:	f043 0301 	orr.w	r3, r3, #1
 8001484:	6313      	str	r3, [r2, #48]	@ 0x30
 8001486:	4b31      	ldr	r3, [pc, #196]	@ (800154c <FMCWStream_ConfigureDcmiPins+0xec>)
 8001488:	6b1b      	ldr	r3, [r3, #48]	@ 0x30
 800148a:	f003 0301 	and.w	r3, r3, #1
 800148e:	613b      	str	r3, [r7, #16]
 8001490:	693b      	ldr	r3, [r7, #16]
  __HAL_RCC_GPIOB_CLK_ENABLE();
 8001492:	2300      	movs	r3, #0
 8001494:	60fb      	str	r3, [r7, #12]
 8001496:	4b2d      	ldr	r3, [pc, #180]	@ (800154c <FMCWStream_ConfigureDcmiPins+0xec>)
 8001498:	6b1b      	ldr	r3, [r3, #48]	@ 0x30
 800149a:	4a2c      	ldr	r2, [pc, #176]	@ (800154c <FMCWStream_ConfigureDcmiPins+0xec>)
 800149c:	f043 0302 	orr.w	r3, r3, #2
 80014a0:	6313      	str	r3, [r2, #48]	@ 0x30
 80014a2:	4b2a      	ldr	r3, [pc, #168]	@ (800154c <FMCWStream_ConfigureDcmiPins+0xec>)
 80014a4:	6b1b      	ldr	r3, [r3, #48]	@ 0x30
 80014a6:	f003 0302 	and.w	r3, r3, #2
 80014aa:	60fb      	str	r3, [r7, #12]
 80014ac:	68fb      	ldr	r3, [r7, #12]
  __HAL_RCC_GPIOC_CLK_ENABLE();
 80014ae:	2300      	movs	r3, #0
 80014b0:	60bb      	str	r3, [r7, #8]
 80014b2:	4b26      	ldr	r3, [pc, #152]	@ (800154c <FMCWStream_ConfigureDcmiPins+0xec>)
 80014b4:	6b1b      	ldr	r3, [r3, #48]	@ 0x30
 80014b6:	4a25      	ldr	r2, [pc, #148]	@ (800154c <FMCWStream_ConfigureDcmiPins+0xec>)
 80014b8:	f043 0304 	orr.w	r3, r3, #4
 80014bc:	6313      	str	r3, [r2, #48]	@ 0x30
 80014be:	4b23      	ldr	r3, [pc, #140]	@ (800154c <FMCWStream_ConfigureDcmiPins+0xec>)
 80014c0:	6b1b      	ldr	r3, [r3, #48]	@ 0x30
 80014c2:	f003 0304 	and.w	r3, r3, #4
 80014c6:	60bb      	str	r3, [r7, #8]
 80014c8:	68bb      	ldr	r3, [r7, #8]
  __HAL_RCC_GPIOD_CLK_ENABLE();
 80014ca:	2300      	movs	r3, #0
 80014cc:	607b      	str	r3, [r7, #4]
 80014ce:	4b1f      	ldr	r3, [pc, #124]	@ (800154c <FMCWStream_ConfigureDcmiPins+0xec>)
 80014d0:	6b1b      	ldr	r3, [r3, #48]	@ 0x30
 80014d2:	4a1e      	ldr	r2, [pc, #120]	@ (800154c <FMCWStream_ConfigureDcmiPins+0xec>)
 80014d4:	f043 0308 	orr.w	r3, r3, #8
 80014d8:	6313      	str	r3, [r2, #48]	@ 0x30
 80014da:	4b1c      	ldr	r3, [pc, #112]	@ (800154c <FMCWStream_ConfigureDcmiPins+0xec>)
 80014dc:	6b1b      	ldr	r3, [r3, #48]	@ 0x30
 80014de:	f003 0308 	and.w	r3, r3, #8
 80014e2:	607b      	str	r3, [r7, #4]
 80014e4:	687b      	ldr	r3, [r7, #4]

  gpio.Mode = GPIO_MODE_AF_PP;
 80014e6:	2302      	movs	r3, #2
 80014e8:	61bb      	str	r3, [r7, #24]
  gpio.Pull = GPIO_NOPULL;
 80014ea:	2300      	movs	r3, #0
 80014ec:	61fb      	str	r3, [r7, #28]
  gpio.Speed = GPIO_SPEED_FREQ_VERY_HIGH;
 80014ee:	2303      	movs	r3, #3
 80014f0:	623b      	str	r3, [r7, #32]
  gpio.Alternate = GPIO_AF13_DCMI;
 80014f2:	230d      	movs	r3, #13
 80014f4:	627b      	str	r3, [r7, #36]	@ 0x24

  gpio.Pin = GPIO_PIN_4 | GPIO_PIN_6 | GPIO_PIN_9;
 80014f6:	f44f 7314 	mov.w	r3, #592	@ 0x250
 80014fa:	617b      	str	r3, [r7, #20]
  HAL_GPIO_Init(GPIOA, &gpio);
 80014fc:	f107 0314 	add.w	r3, r7, #20
 8001500:	4619      	mov	r1, r3
 8001502:	4813      	ldr	r0, [pc, #76]	@ (8001550 <FMCWStream_ConfigureDcmiPins+0xf0>)
 8001504:	f002 ff64 	bl	80043d0 <HAL_GPIO_Init>

  gpio.Pin = GPIO_PIN_8 | GPIO_PIN_9;
 8001508:	f44f 7340 	mov.w	r3, #768	@ 0x300
 800150c:	617b      	str	r3, [r7, #20]
  HAL_GPIO_Init(GPIOB, &gpio);
 800150e:	f107 0314 	add.w	r3, r7, #20
 8001512:	4619      	mov	r1, r3
 8001514:	480f      	ldr	r0, [pc, #60]	@ (8001554 <FMCWStream_ConfigureDcmiPins+0xf4>)
 8001516:	f002 ff5b 	bl	80043d0 <HAL_GPIO_Init>

  gpio.Pin = GPIO_PIN_7 | GPIO_PIN_8 | GPIO_PIN_9 |
 800151a:	f44f 53fc 	mov.w	r3, #8064	@ 0x1f80
 800151e:	617b      	str	r3, [r7, #20]
             GPIO_PIN_10 | GPIO_PIN_11 | GPIO_PIN_12;
  HAL_GPIO_Init(GPIOC, &gpio);
 8001520:	f107 0314 	add.w	r3, r7, #20
 8001524:	4619      	mov	r1, r3
 8001526:	480c      	ldr	r0, [pc, #48]	@ (8001558 <FMCWStream_ConfigureDcmiPins+0xf8>)
 8001528:	f002 ff52 	bl	80043d0 <HAL_GPIO_Init>

  gpio.Pin = GPIO_PIN_2 | GPIO_PIN_3 | GPIO_PIN_6;
 800152c:	234c      	movs	r3, #76	@ 0x4c
 800152e:	617b      	str	r3, [r7, #20]
  HAL_GPIO_Init(GPIOD, &gpio);
 8001530:	f107 0314 	add.w	r3, r7, #20
 8001534:	4619      	mov	r1, r3
 8001536:	4809      	ldr	r0, [pc, #36]	@ (800155c <FMCWStream_ConfigureDcmiPins+0xfc>)
 8001538:	f002 ff4a 	bl	80043d0 <HAL_GPIO_Init>

  printf("STREAM: DCMI GPIO configured, PA7 drives HSYNC, PB7 prepared for VSYNC edge\r\n");
 800153c:	4808      	ldr	r0, [pc, #32]	@ (8001560 <FMCWStream_ConfigureDcmiPins+0x100>)
 800153e:	f006 fed1 	bl	80082e4 <puts>
}
 8001542:	bf00      	nop
 8001544:	3728      	adds	r7, #40	@ 0x28
 8001546:	46bd      	mov	sp, r7
 8001548:	bd80      	pop	{r7, pc}
 800154a:	bf00      	nop
 800154c:	40023800 	.word	0x40023800
 8001550:	40020000 	.word	0x40020000
 8001554:	40020400 	.word	0x40020400
 8001558:	40020800 	.word	0x40020800
 800155c:	40020c00 	.word	0x40020c00
 8001560:	08009618 	.word	0x08009618

08001564 <FMCWStream_ConfigureMuxoutExti>:

static void FMCWStream_ConfigureMuxoutExti(void)
{
 8001564:	b580      	push	{r7, lr}
 8001566:	b088      	sub	sp, #32
 8001568:	af00      	add	r7, sp, #0
  GPIO_InitTypeDef gpio = {0};
 800156a:	f107 030c 	add.w	r3, r7, #12
 800156e:	2200      	movs	r2, #0
 8001570:	601a      	str	r2, [r3, #0]
 8001572:	605a      	str	r2, [r3, #4]
 8001574:	609a      	str	r2, [r3, #8]
 8001576:	60da      	str	r2, [r3, #12]
 8001578:	611a      	str	r2, [r3, #16]

  __HAL_RCC_GPIOE_CLK_ENABLE();
 800157a:	2300      	movs	r3, #0
 800157c:	60bb      	str	r3, [r7, #8]
 800157e:	4b19      	ldr	r3, [pc, #100]	@ (80015e4 <FMCWStream_ConfigureMuxoutExti+0x80>)
 8001580:	6b1b      	ldr	r3, [r3, #48]	@ 0x30
 8001582:	4a18      	ldr	r2, [pc, #96]	@ (80015e4 <FMCWStream_ConfigureMuxoutExti+0x80>)
 8001584:	f043 0310 	orr.w	r3, r3, #16
 8001588:	6313      	str	r3, [r2, #48]	@ 0x30
 800158a:	4b16      	ldr	r3, [pc, #88]	@ (80015e4 <FMCWStream_ConfigureMuxoutExti+0x80>)
 800158c:	6b1b      	ldr	r3, [r3, #48]	@ 0x30
 800158e:	f003 0310 	and.w	r3, r3, #16
 8001592:	60bb      	str	r3, [r7, #8]
 8001594:	68bb      	ldr	r3, [r7, #8]
  __HAL_RCC_SYSCFG_CLK_ENABLE();
 8001596:	2300      	movs	r3, #0
 8001598:	607b      	str	r3, [r7, #4]
 800159a:	4b12      	ldr	r3, [pc, #72]	@ (80015e4 <FMCWStream_ConfigureMuxoutExti+0x80>)
 800159c:	6c5b      	ldr	r3, [r3, #68]	@ 0x44
 800159e:	4a11      	ldr	r2, [pc, #68]	@ (80015e4 <FMCWStream_ConfigureMuxoutExti+0x80>)
 80015a0:	f443 4380 	orr.w	r3, r3, #16384	@ 0x4000
 80015a4:	6453      	str	r3, [r2, #68]	@ 0x44
 80015a6:	4b0f      	ldr	r3, [pc, #60]	@ (80015e4 <FMCWStream_ConfigureMuxoutExti+0x80>)
 80015a8:	6c5b      	ldr	r3, [r3, #68]	@ 0x44
 80015aa:	f403 4380 	and.w	r3, r3, #16384	@ 0x4000
 80015ae:	607b      	str	r3, [r7, #4]
 80015b0:	687b      	ldr	r3, [r7, #4]

  gpio.Pin = PLL_MUXOUT_Pin;
 80015b2:	2320      	movs	r3, #32
 80015b4:	60fb      	str	r3, [r7, #12]
  gpio.Mode = GPIO_MODE_IT_RISING;
 80015b6:	f44f 1388 	mov.w	r3, #1114112	@ 0x110000
 80015ba:	613b      	str	r3, [r7, #16]
  gpio.Pull = GPIO_NOPULL;
 80015bc:	2300      	movs	r3, #0
 80015be:	617b      	str	r3, [r7, #20]
  HAL_GPIO_Init(PLL_MUXOUT_GPIO_Port, &gpio);
 80015c0:	f107 030c 	add.w	r3, r7, #12
 80015c4:	4619      	mov	r1, r3
 80015c6:	4808      	ldr	r0, [pc, #32]	@ (80015e8 <FMCWStream_ConfigureMuxoutExti+0x84>)
 80015c8:	f002 ff02 	bl	80043d0 <HAL_GPIO_Init>

  HAL_NVIC_SetPriority(EXTI9_5_IRQn, 1U, 0U);
 80015cc:	2200      	movs	r2, #0
 80015ce:	2101      	movs	r1, #1
 80015d0:	2017      	movs	r0, #23
 80015d2:	f002 fd3c 	bl	800404e <HAL_NVIC_SetPriority>
  HAL_NVIC_EnableIRQ(EXTI9_5_IRQn);
 80015d6:	2017      	movs	r0, #23
 80015d8:	f002 fd55 	bl	8004086 <HAL_NVIC_EnableIRQ>
}
 80015dc:	bf00      	nop
 80015de:	3720      	adds	r7, #32
 80015e0:	46bd      	mov	sp, r7
 80015e2:	bd80      	pop	{r7, pc}
 80015e4:	40023800 	.word	0x40023800
 80015e8:	40021000 	.word	0x40021000

080015ec <FMCWStream_ConfigureDcmi>:

static void FMCWStream_ConfigureDcmi(void)
{
 80015ec:	b580      	push	{r7, lr}
 80015ee:	b082      	sub	sp, #8
 80015f0:	af00      	add	r7, sp, #0
  __HAL_RCC_DCMI_CLK_ENABLE();
 80015f2:	2300      	movs	r3, #0
 80015f4:	607b      	str	r3, [r7, #4]
 80015f6:	4b14      	ldr	r3, [pc, #80]	@ (8001648 <FMCWStream_ConfigureDcmi+0x5c>)
 80015f8:	6b5b      	ldr	r3, [r3, #52]	@ 0x34
 80015fa:	4a13      	ldr	r2, [pc, #76]	@ (8001648 <FMCWStream_ConfigureDcmi+0x5c>)
 80015fc:	f043 0301 	orr.w	r3, r3, #1
 8001600:	6353      	str	r3, [r2, #52]	@ 0x34
 8001602:	4b11      	ldr	r3, [pc, #68]	@ (8001648 <FMCWStream_ConfigureDcmi+0x5c>)
 8001604:	6b5b      	ldr	r3, [r3, #52]	@ 0x34
 8001606:	f003 0301 	and.w	r3, r3, #1
 800160a:	607b      	str	r3, [r7, #4]
 800160c:	687b      	ldr	r3, [r7, #4]
  __HAL_RCC_DCMI_FORCE_RESET();
 800160e:	4b0e      	ldr	r3, [pc, #56]	@ (8001648 <FMCWStream_ConfigureDcmi+0x5c>)
 8001610:	695b      	ldr	r3, [r3, #20]
 8001612:	4a0d      	ldr	r2, [pc, #52]	@ (8001648 <FMCWStream_ConfigureDcmi+0x5c>)
 8001614:	f043 0301 	orr.w	r3, r3, #1
 8001618:	6153      	str	r3, [r2, #20]
  __HAL_RCC_DCMI_RELEASE_RESET();
 800161a:	4b0b      	ldr	r3, [pc, #44]	@ (8001648 <FMCWStream_ConfigureDcmi+0x5c>)
 800161c:	695b      	ldr	r3, [r3, #20]
 800161e:	4a0a      	ldr	r2, [pc, #40]	@ (8001648 <FMCWStream_ConfigureDcmi+0x5c>)
 8001620:	f023 0301 	bic.w	r3, r3, #1
 8001624:	6153      	str	r3, [r2, #20]

  DCMI->CR = FMCW_STREAM_DCMI_CR;
 8001626:	4b09      	ldr	r3, [pc, #36]	@ (800164c <FMCWStream_ConfigureDcmi+0x60>)
 8001628:	f44f 620a 	mov.w	r2, #2208	@ 0x8a0
 800162c:	601a      	str	r2, [r3, #0]
  DCMI->IER = 0U;
 800162e:	4b07      	ldr	r3, [pc, #28]	@ (800164c <FMCWStream_ConfigureDcmi+0x60>)
 8001630:	2200      	movs	r2, #0
 8001632:	60da      	str	r2, [r3, #12]
  DCMI->ICR = DCMI_ICR_FRAME_ISC | DCMI_ICR_OVR_ISC |
 8001634:	4b05      	ldr	r3, [pc, #20]	@ (800164c <FMCWStream_ConfigureDcmi+0x60>)
 8001636:	221f      	movs	r2, #31
 8001638:	615a      	str	r2, [r3, #20]
              DCMI_ICR_ERR_ISC | DCMI_ICR_VSYNC_ISC |
              DCMI_ICR_LINE_ISC;

  printf("STREAM: DCMI ready, 12-bit falling-edge capture\r\n");
 800163a:	4805      	ldr	r0, [pc, #20]	@ (8001650 <FMCWStream_ConfigureDcmi+0x64>)
 800163c:	f006 fe52 	bl	80082e4 <puts>
}
 8001640:	bf00      	nop
 8001642:	3708      	adds	r7, #8
 8001644:	46bd      	mov	sp, r7
 8001646:	bd80      	pop	{r7, pc}
 8001648:	40023800 	.word	0x40023800
 800164c:	50050000 	.word	0x50050000
 8001650:	08009668 	.word	0x08009668

08001654 <FMCWStream_ConfigureDma>:

static void FMCWStream_ConfigureDma(void)
{
 8001654:	b580      	push	{r7, lr}
 8001656:	b082      	sub	sp, #8
 8001658:	af00      	add	r7, sp, #0
  __HAL_RCC_DMA2_CLK_ENABLE();
 800165a:	2300      	movs	r3, #0
 800165c:	607b      	str	r3, [r7, #4]
 800165e:	4b29      	ldr	r3, [pc, #164]	@ (8001704 <FMCWStream_ConfigureDma+0xb0>)
 8001660:	6b1b      	ldr	r3, [r3, #48]	@ 0x30
 8001662:	4a28      	ldr	r2, [pc, #160]	@ (8001704 <FMCWStream_ConfigureDma+0xb0>)
 8001664:	f443 0380 	orr.w	r3, r3, #4194304	@ 0x400000
 8001668:	6313      	str	r3, [r2, #48]	@ 0x30
 800166a:	4b26      	ldr	r3, [pc, #152]	@ (8001704 <FMCWStream_ConfigureDma+0xb0>)
 800166c:	6b1b      	ldr	r3, [r3, #48]	@ 0x30
 800166e:	f403 0380 	and.w	r3, r3, #4194304	@ 0x400000
 8001672:	607b      	str	r3, [r7, #4]
 8001674:	687b      	ldr	r3, [r7, #4]

  DMA2_Stream1->CR &= ~DMA_SxCR_EN;
 8001676:	4b24      	ldr	r3, [pc, #144]	@ (8001708 <FMCWStream_ConfigureDma+0xb4>)
 8001678:	681b      	ldr	r3, [r3, #0]
 800167a:	4a23      	ldr	r2, [pc, #140]	@ (8001708 <FMCWStream_ConfigureDma+0xb4>)
 800167c:	f023 0301 	bic.w	r3, r3, #1
 8001680:	6013      	str	r3, [r2, #0]
  while ((DMA2_Stream1->CR & DMA_SxCR_EN) != 0U)
 8001682:	bf00      	nop
 8001684:	4b20      	ldr	r3, [pc, #128]	@ (8001708 <FMCWStream_ConfigureDma+0xb4>)
 8001686:	681b      	ldr	r3, [r3, #0]
 8001688:	f003 0301 	and.w	r3, r3, #1
 800168c:	2b00      	cmp	r3, #0
 800168e:	d1f9      	bne.n	8001684 <FMCWStream_ConfigureDma+0x30>
  {
  }

  DMA2->LIFCR = DMA_LIFCR_CTCIF1 | DMA_LIFCR_CHTIF1 |
 8001690:	4b1e      	ldr	r3, [pc, #120]	@ (800170c <FMCWStream_ConfigureDma+0xb8>)
 8001692:	f44f 6274 	mov.w	r2, #3904	@ 0xf40
 8001696:	609a      	str	r2, [r3, #8]
                DMA_LIFCR_CTEIF1 | DMA_LIFCR_CDMEIF1 |
                DMA_LIFCR_CFEIF1;

  DMA2_Stream1->PAR = (uint32_t)&DCMI->DR;
 8001698:	4b1b      	ldr	r3, [pc, #108]	@ (8001708 <FMCWStream_ConfigureDma+0xb4>)
 800169a:	4a1d      	ldr	r2, [pc, #116]	@ (8001710 <FMCWStream_ConfigureDma+0xbc>)
 800169c:	609a      	str	r2, [r3, #8]
  DMA2_Stream1->M0AR = (uint32_t)fmcw_stream_frames[fmcw_stream_dma_frame[0]].payload;
 800169e:	4b1d      	ldr	r3, [pc, #116]	@ (8001714 <FMCWStream_ConfigureDma+0xc0>)
 80016a0:	781b      	ldrb	r3, [r3, #0]
 80016a2:	461a      	mov	r2, r3
 80016a4:	4613      	mov	r3, r2
 80016a6:	009b      	lsls	r3, r3, #2
 80016a8:	4413      	add	r3, r2
 80016aa:	031b      	lsls	r3, r3, #12
 80016ac:	3340      	adds	r3, #64	@ 0x40
 80016ae:	4a1a      	ldr	r2, [pc, #104]	@ (8001718 <FMCWStream_ConfigureDma+0xc4>)
 80016b0:	441a      	add	r2, r3
 80016b2:	4b15      	ldr	r3, [pc, #84]	@ (8001708 <FMCWStream_ConfigureDma+0xb4>)
 80016b4:	60da      	str	r2, [r3, #12]
  DMA2_Stream1->M1AR = (uint32_t)fmcw_stream_frames[fmcw_stream_dma_frame[1]].payload;
 80016b6:	4b17      	ldr	r3, [pc, #92]	@ (8001714 <FMCWStream_ConfigureDma+0xc0>)
 80016b8:	785b      	ldrb	r3, [r3, #1]
 80016ba:	461a      	mov	r2, r3
 80016bc:	4613      	mov	r3, r2
 80016be:	009b      	lsls	r3, r3, #2
 80016c0:	4413      	add	r3, r2
 80016c2:	031b      	lsls	r3, r3, #12
 80016c4:	3340      	adds	r3, #64	@ 0x40
 80016c6:	4a14      	ldr	r2, [pc, #80]	@ (8001718 <FMCWStream_ConfigureDma+0xc4>)
 80016c8:	441a      	add	r2, r3
 80016ca:	4b0f      	ldr	r3, [pc, #60]	@ (8001708 <FMCWStream_ConfigureDma+0xb4>)
 80016cc:	611a      	str	r2, [r3, #16]
  DMA2_Stream1->NDTR = FMCW_STREAM_WORDS_PER_SLOPE;
 80016ce:	4b0e      	ldr	r3, [pc, #56]	@ (8001708 <FMCWStream_ConfigureDma+0xb4>)
 80016d0:	f241 3288 	movw	r2, #5000	@ 0x1388
 80016d4:	605a      	str	r2, [r3, #4]
  DMA2_Stream1->FCR = DMA_SxFCR_DMDIS |
 80016d6:	4b0c      	ldr	r3, [pc, #48]	@ (8001708 <FMCWStream_ConfigureDma+0xb4>)
 80016d8:	2287      	movs	r2, #135	@ 0x87
 80016da:	615a      	str	r2, [r3, #20]
                      (3U << DMA_SxFCR_FTH_Pos) |
                      DMA_SxFCR_FEIE;
  DMA2_Stream1->CR = (1U << DMA_SxCR_CHSEL_Pos) |
 80016dc:	4b0a      	ldr	r3, [pc, #40]	@ (8001708 <FMCWStream_ConfigureDma+0xb4>)
 80016de:	4a0f      	ldr	r2, [pc, #60]	@ (800171c <FMCWStream_ConfigureDma+0xc8>)
 80016e0:	601a      	str	r2, [r3, #0]
                     DMA_SxCR_DBM |
                     DMA_SxCR_TCIE |
                     DMA_SxCR_TEIE |
                     DMA_SxCR_DMEIE;

  HAL_NVIC_SetPriority(DMA2_Stream1_IRQn, 0U, 0U);
 80016e2:	2200      	movs	r2, #0
 80016e4:	2100      	movs	r1, #0
 80016e6:	2039      	movs	r0, #57	@ 0x39
 80016e8:	f002 fcb1 	bl	800404e <HAL_NVIC_SetPriority>
  HAL_NVIC_EnableIRQ(DMA2_Stream1_IRQn);
 80016ec:	2039      	movs	r0, #57	@ 0x39
 80016ee:	f002 fcca 	bl	8004086 <HAL_NVIC_EnableIRQ>

  printf("STREAM: DMA2 Stream1 DBM armed for %lu words per slope\r\n",
 80016f2:	f241 3188 	movw	r1, #5000	@ 0x1388
 80016f6:	480a      	ldr	r0, [pc, #40]	@ (8001720 <FMCWStream_ConfigureDma+0xcc>)
 80016f8:	f006 fd8c 	bl	8008214 <iprintf>
         (unsigned long)FMCW_STREAM_WORDS_PER_SLOPE);
}
 80016fc:	bf00      	nop
 80016fe:	3708      	adds	r7, #8
 8001700:	46bd      	mov	sp, r7
 8001702:	bd80      	pop	{r7, pc}
 8001704:	40023800 	.word	0x40023800
 8001708:	40026428 	.word	0x40026428
 800170c:	40026400 	.word	0x40026400
 8001710:	50050028 	.word	0x50050028
 8001714:	200280e4 	.word	0x200280e4
 8001718:	200000e4 	.word	0x200000e4
 800171c:	02075416 	.word	0x02075416
 8001720:	0800969c 	.word	0x0800969c

08001724 <FMCWStream_StartCaptureFromMuxout>:

static void FMCWStream_StartCaptureFromMuxout(void)
{
 8001724:	b580      	push	{r7, lr}
 8001726:	af00      	add	r7, sp, #0
  DMA2->LIFCR = DMA_LIFCR_CTCIF1 | DMA_LIFCR_CHTIF1 |
 8001728:	4b11      	ldr	r3, [pc, #68]	@ (8001770 <FMCWStream_StartCaptureFromMuxout+0x4c>)
 800172a:	f44f 6274 	mov.w	r2, #3904	@ 0xf40
 800172e:	609a      	str	r2, [r3, #8]
                DMA_LIFCR_CTEIF1 | DMA_LIFCR_CDMEIF1 |
                DMA_LIFCR_CFEIF1;
  DCMI->ICR = DCMI_ICR_FRAME_ISC | DCMI_ICR_OVR_ISC |
 8001730:	4b10      	ldr	r3, [pc, #64]	@ (8001774 <FMCWStream_StartCaptureFromMuxout+0x50>)
 8001732:	221f      	movs	r2, #31
 8001734:	615a      	str	r2, [r3, #20]
              DCMI_ICR_ERR_ISC | DCMI_ICR_VSYNC_ISC |
              DCMI_ICR_LINE_ISC;

  DMA2_Stream1->CR |= DMA_SxCR_EN;
 8001736:	4b10      	ldr	r3, [pc, #64]	@ (8001778 <FMCWStream_StartCaptureFromMuxout+0x54>)
 8001738:	681b      	ldr	r3, [r3, #0]
 800173a:	4a0f      	ldr	r2, [pc, #60]	@ (8001778 <FMCWStream_StartCaptureFromMuxout+0x54>)
 800173c:	f043 0301 	orr.w	r3, r3, #1
 8001740:	6013      	str	r3, [r2, #0]
  DCMI->CR = FMCW_STREAM_DCMI_CR | DCMI_CR_ENABLE | DCMI_CR_CAPTURE;
 8001742:	4b0c      	ldr	r3, [pc, #48]	@ (8001774 <FMCWStream_StartCaptureFromMuxout+0x50>)
 8001744:	f644 02a1 	movw	r2, #18593	@ 0x48a1
 8001748:	601a      	str	r2, [r3, #0]

  FMCWStream_ReleaseVsyncToDcmi();
 800174a:	f7ff fe55 	bl	80013f8 <FMCWStream_ReleaseVsyncToDcmi>
  FMCWStream_ShortDelay();
 800174e:	f7ff fe73 	bl	8001438 <FMCWStream_ShortDelay>
  FMCW_STREAM_HSYNC_DRIVE_PORT->BSRR = FMCW_STREAM_HSYNC_DRIVE_PIN;
 8001752:	4b0a      	ldr	r3, [pc, #40]	@ (800177c <FMCWStream_StartCaptureFromMuxout+0x58>)
 8001754:	2280      	movs	r2, #128	@ 0x80
 8001756:	619a      	str	r2, [r3, #24]
  FMCWStream_ShortDelay();
 8001758:	f7ff fe6e 	bl	8001438 <FMCWStream_ShortDelay>

  fmcw_stream_started_tick = HAL_GetTick();
 800175c:	f002 fb6c 	bl	8003e38 <HAL_GetTick>
 8001760:	4603      	mov	r3, r0
 8001762:	4a07      	ldr	r2, [pc, #28]	@ (8001780 <FMCWStream_StartCaptureFromMuxout+0x5c>)
 8001764:	6013      	str	r3, [r2, #0]
  fmcw_stream_running = 1U;
 8001766:	4b07      	ldr	r3, [pc, #28]	@ (8001784 <FMCWStream_StartCaptureFromMuxout+0x60>)
 8001768:	2201      	movs	r2, #1
 800176a:	701a      	strb	r2, [r3, #0]
}
 800176c:	bf00      	nop
 800176e:	bd80      	pop	{r7, pc}
 8001770:	40026400 	.word	0x40026400
 8001774:	50050000 	.word	0x50050000
 8001778:	40026428 	.word	0x40026428
 800177c:	40020000 	.word	0x40020000
 8001780:	20028118 	.word	0x20028118
 8001784:	20028100 	.word	0x20028100

08001788 <FMCWStream_ReadAdcBus>:

static uint16_t FMCWStream_ReadAdcBus(void)
{
 8001788:	b580      	push	{r7, lr}
 800178a:	b082      	sub	sp, #8
 800178c:	af00      	add	r7, sp, #0
  uint16_t sample = 0U;
 800178e:	2300      	movs	r3, #0
 8001790:	80fb      	strh	r3, [r7, #6]

  sample |= (HAL_GPIO_ReadPin(GPIOA, GPIO_PIN_9)  == GPIO_PIN_SET) ? (1U << 0U)  : 0U;
 8001792:	f44f 7100 	mov.w	r1, #512	@ 0x200
 8001796:	485b      	ldr	r0, [pc, #364]	@ (8001904 <FMCWStream_ReadAdcBus+0x17c>)
 8001798:	f002 ffc6 	bl	8004728 <HAL_GPIO_ReadPin>
 800179c:	4603      	mov	r3, r0
 800179e:	2b01      	cmp	r3, #1
 80017a0:	d101      	bne.n	80017a6 <FMCWStream_ReadAdcBus+0x1e>
 80017a2:	2301      	movs	r3, #1
 80017a4:	e000      	b.n	80017a8 <FMCWStream_ReadAdcBus+0x20>
 80017a6:	2300      	movs	r3, #0
 80017a8:	b29a      	uxth	r2, r3
 80017aa:	88fb      	ldrh	r3, [r7, #6]
 80017ac:	4313      	orrs	r3, r2
 80017ae:	80fb      	strh	r3, [r7, #6]
  sample |= (HAL_GPIO_ReadPin(GPIOC, GPIO_PIN_7)  == GPIO_PIN_SET) ? (1U << 1U)  : 0U;
 80017b0:	2180      	movs	r1, #128	@ 0x80
 80017b2:	4855      	ldr	r0, [pc, #340]	@ (8001908 <FMCWStream_ReadAdcBus+0x180>)
 80017b4:	f002 ffb8 	bl	8004728 <HAL_GPIO_ReadPin>
 80017b8:	4603      	mov	r3, r0
 80017ba:	2b01      	cmp	r3, #1
 80017bc:	d101      	bne.n	80017c2 <FMCWStream_ReadAdcBus+0x3a>
 80017be:	2302      	movs	r3, #2
 80017c0:	e000      	b.n	80017c4 <FMCWStream_ReadAdcBus+0x3c>
 80017c2:	2300      	movs	r3, #0
 80017c4:	b29a      	uxth	r2, r3
 80017c6:	88fb      	ldrh	r3, [r7, #6]
 80017c8:	4313      	orrs	r3, r2
 80017ca:	80fb      	strh	r3, [r7, #6]
  sample |= (HAL_GPIO_ReadPin(GPIOC, GPIO_PIN_8)  == GPIO_PIN_SET) ? (1U << 2U)  : 0U;
 80017cc:	f44f 7180 	mov.w	r1, #256	@ 0x100
 80017d0:	484d      	ldr	r0, [pc, #308]	@ (8001908 <FMCWStream_ReadAdcBus+0x180>)
 80017d2:	f002 ffa9 	bl	8004728 <HAL_GPIO_ReadPin>
 80017d6:	4603      	mov	r3, r0
 80017d8:	2b01      	cmp	r3, #1
 80017da:	d101      	bne.n	80017e0 <FMCWStream_ReadAdcBus+0x58>
 80017dc:	2304      	movs	r3, #4
 80017de:	e000      	b.n	80017e2 <FMCWStream_ReadAdcBus+0x5a>
 80017e0:	2300      	movs	r3, #0
 80017e2:	b29a      	uxth	r2, r3
 80017e4:	88fb      	ldrh	r3, [r7, #6]
 80017e6:	4313      	orrs	r3, r2
 80017e8:	80fb      	strh	r3, [r7, #6]
  sample |= (HAL_GPIO_ReadPin(GPIOC, GPIO_PIN_9)  == GPIO_PIN_SET) ? (1U << 3U)  : 0U;
 80017ea:	f44f 7100 	mov.w	r1, #512	@ 0x200
 80017ee:	4846      	ldr	r0, [pc, #280]	@ (8001908 <FMCWStream_ReadAdcBus+0x180>)
 80017f0:	f002 ff9a 	bl	8004728 <HAL_GPIO_ReadPin>
 80017f4:	4603      	mov	r3, r0
 80017f6:	2b01      	cmp	r3, #1
 80017f8:	d101      	bne.n	80017fe <FMCWStream_ReadAdcBus+0x76>
 80017fa:	2308      	movs	r3, #8
 80017fc:	e000      	b.n	8001800 <FMCWStream_ReadAdcBus+0x78>
 80017fe:	2300      	movs	r3, #0
 8001800:	b29a      	uxth	r2, r3
 8001802:	88fb      	ldrh	r3, [r7, #6]
 8001804:	4313      	orrs	r3, r2
 8001806:	80fb      	strh	r3, [r7, #6]
  sample |= (HAL_GPIO_ReadPin(GPIOC, GPIO_PIN_11) == GPIO_PIN_SET) ? (1U << 4U)  : 0U;
 8001808:	f44f 6100 	mov.w	r1, #2048	@ 0x800
 800180c:	483e      	ldr	r0, [pc, #248]	@ (8001908 <FMCWStream_ReadAdcBus+0x180>)
 800180e:	f002 ff8b 	bl	8004728 <HAL_GPIO_ReadPin>
 8001812:	4603      	mov	r3, r0
 8001814:	2b01      	cmp	r3, #1
 8001816:	d101      	bne.n	800181c <FMCWStream_ReadAdcBus+0x94>
 8001818:	2310      	movs	r3, #16
 800181a:	e000      	b.n	800181e <FMCWStream_ReadAdcBus+0x96>
 800181c:	2300      	movs	r3, #0
 800181e:	b29a      	uxth	r2, r3
 8001820:	88fb      	ldrh	r3, [r7, #6]
 8001822:	4313      	orrs	r3, r2
 8001824:	80fb      	strh	r3, [r7, #6]
  sample |= (HAL_GPIO_ReadPin(GPIOD, GPIO_PIN_3)  == GPIO_PIN_SET) ? (1U << 5U)  : 0U;
 8001826:	2108      	movs	r1, #8
 8001828:	4838      	ldr	r0, [pc, #224]	@ (800190c <FMCWStream_ReadAdcBus+0x184>)
 800182a:	f002 ff7d 	bl	8004728 <HAL_GPIO_ReadPin>
 800182e:	4603      	mov	r3, r0
 8001830:	2b01      	cmp	r3, #1
 8001832:	d101      	bne.n	8001838 <FMCWStream_ReadAdcBus+0xb0>
 8001834:	2320      	movs	r3, #32
 8001836:	e000      	b.n	800183a <FMCWStream_ReadAdcBus+0xb2>
 8001838:	2300      	movs	r3, #0
 800183a:	b29a      	uxth	r2, r3
 800183c:	88fb      	ldrh	r3, [r7, #6]
 800183e:	4313      	orrs	r3, r2
 8001840:	80fb      	strh	r3, [r7, #6]
  sample |= (HAL_GPIO_ReadPin(GPIOB, GPIO_PIN_8)  == GPIO_PIN_SET) ? (1U << 6U)  : 0U;
 8001842:	f44f 7180 	mov.w	r1, #256	@ 0x100
 8001846:	4832      	ldr	r0, [pc, #200]	@ (8001910 <FMCWStream_ReadAdcBus+0x188>)
 8001848:	f002 ff6e 	bl	8004728 <HAL_GPIO_ReadPin>
 800184c:	4603      	mov	r3, r0
 800184e:	2b01      	cmp	r3, #1
 8001850:	d101      	bne.n	8001856 <FMCWStream_ReadAdcBus+0xce>
 8001852:	2340      	movs	r3, #64	@ 0x40
 8001854:	e000      	b.n	8001858 <FMCWStream_ReadAdcBus+0xd0>
 8001856:	2300      	movs	r3, #0
 8001858:	b29a      	uxth	r2, r3
 800185a:	88fb      	ldrh	r3, [r7, #6]
 800185c:	4313      	orrs	r3, r2
 800185e:	80fb      	strh	r3, [r7, #6]
  sample |= (HAL_GPIO_ReadPin(GPIOB, GPIO_PIN_9)  == GPIO_PIN_SET) ? (1U << 7U)  : 0U;
 8001860:	f44f 7100 	mov.w	r1, #512	@ 0x200
 8001864:	482a      	ldr	r0, [pc, #168]	@ (8001910 <FMCWStream_ReadAdcBus+0x188>)
 8001866:	f002 ff5f 	bl	8004728 <HAL_GPIO_ReadPin>
 800186a:	4603      	mov	r3, r0
 800186c:	2b01      	cmp	r3, #1
 800186e:	d101      	bne.n	8001874 <FMCWStream_ReadAdcBus+0xec>
 8001870:	2380      	movs	r3, #128	@ 0x80
 8001872:	e000      	b.n	8001876 <FMCWStream_ReadAdcBus+0xee>
 8001874:	2300      	movs	r3, #0
 8001876:	b29a      	uxth	r2, r3
 8001878:	88fb      	ldrh	r3, [r7, #6]
 800187a:	4313      	orrs	r3, r2
 800187c:	80fb      	strh	r3, [r7, #6]
  sample |= (HAL_GPIO_ReadPin(GPIOC, GPIO_PIN_10) == GPIO_PIN_SET) ? (1U << 8U)  : 0U;
 800187e:	f44f 6180 	mov.w	r1, #1024	@ 0x400
 8001882:	4821      	ldr	r0, [pc, #132]	@ (8001908 <FMCWStream_ReadAdcBus+0x180>)
 8001884:	f002 ff50 	bl	8004728 <HAL_GPIO_ReadPin>
 8001888:	4603      	mov	r3, r0
 800188a:	2b01      	cmp	r3, #1
 800188c:	d102      	bne.n	8001894 <FMCWStream_ReadAdcBus+0x10c>
 800188e:	f44f 7380 	mov.w	r3, #256	@ 0x100
 8001892:	e000      	b.n	8001896 <FMCWStream_ReadAdcBus+0x10e>
 8001894:	2300      	movs	r3, #0
 8001896:	b29a      	uxth	r2, r3
 8001898:	88fb      	ldrh	r3, [r7, #6]
 800189a:	4313      	orrs	r3, r2
 800189c:	80fb      	strh	r3, [r7, #6]
  sample |= (HAL_GPIO_ReadPin(GPIOC, GPIO_PIN_12) == GPIO_PIN_SET) ? (1U << 9U)  : 0U;
 800189e:	f44f 5180 	mov.w	r1, #4096	@ 0x1000
 80018a2:	4819      	ldr	r0, [pc, #100]	@ (8001908 <FMCWStream_ReadAdcBus+0x180>)
 80018a4:	f002 ff40 	bl	8004728 <HAL_GPIO_ReadPin>
 80018a8:	4603      	mov	r3, r0
 80018aa:	2b01      	cmp	r3, #1
 80018ac:	d102      	bne.n	80018b4 <FMCWStream_ReadAdcBus+0x12c>
 80018ae:	f44f 7300 	mov.w	r3, #512	@ 0x200
 80018b2:	e000      	b.n	80018b6 <FMCWStream_ReadAdcBus+0x12e>
 80018b4:	2300      	movs	r3, #0
 80018b6:	b29a      	uxth	r2, r3
 80018b8:	88fb      	ldrh	r3, [r7, #6]
 80018ba:	4313      	orrs	r3, r2
 80018bc:	80fb      	strh	r3, [r7, #6]
  sample |= (HAL_GPIO_ReadPin(GPIOD, GPIO_PIN_6)  == GPIO_PIN_SET) ? (1U << 10U) : 0U;
 80018be:	2140      	movs	r1, #64	@ 0x40
 80018c0:	4812      	ldr	r0, [pc, #72]	@ (800190c <FMCWStream_ReadAdcBus+0x184>)
 80018c2:	f002 ff31 	bl	8004728 <HAL_GPIO_ReadPin>
 80018c6:	4603      	mov	r3, r0
 80018c8:	2b01      	cmp	r3, #1
 80018ca:	d102      	bne.n	80018d2 <FMCWStream_ReadAdcBus+0x14a>
 80018cc:	f44f 6380 	mov.w	r3, #1024	@ 0x400
 80018d0:	e000      	b.n	80018d4 <FMCWStream_ReadAdcBus+0x14c>
 80018d2:	2300      	movs	r3, #0
 80018d4:	b29a      	uxth	r2, r3
 80018d6:	88fb      	ldrh	r3, [r7, #6]
 80018d8:	4313      	orrs	r3, r2
 80018da:	80fb      	strh	r3, [r7, #6]
  sample |= (HAL_GPIO_ReadPin(GPIOD, GPIO_PIN_2)  == GPIO_PIN_SET) ? (1U << 11U) : 0U;
 80018dc:	2104      	movs	r1, #4
 80018de:	480b      	ldr	r0, [pc, #44]	@ (800190c <FMCWStream_ReadAdcBus+0x184>)
 80018e0:	f002 ff22 	bl	8004728 <HAL_GPIO_ReadPin>
 80018e4:	4603      	mov	r3, r0
 80018e6:	2b01      	cmp	r3, #1
 80018e8:	d102      	bne.n	80018f0 <FMCWStream_ReadAdcBus+0x168>
 80018ea:	f44f 6300 	mov.w	r3, #2048	@ 0x800
 80018ee:	e000      	b.n	80018f2 <FMCWStream_ReadAdcBus+0x16a>
 80018f0:	2300      	movs	r3, #0
 80018f2:	b29a      	uxth	r2, r3
 80018f4:	88fb      	ldrh	r3, [r7, #6]
 80018f6:	4313      	orrs	r3, r2
 80018f8:	80fb      	strh	r3, [r7, #6]

  return sample;
 80018fa:	88fb      	ldrh	r3, [r7, #6]
}
 80018fc:	4618      	mov	r0, r3
 80018fe:	3708      	adds	r7, #8
 8001900:	46bd      	mov	sp, r7
 8001902:	bd80      	pop	{r7, pc}
 8001904:	40020000 	.word	0x40020000
 8001908:	40020800 	.word	0x40020800
 800190c:	40020c00 	.word	0x40020c00
 8001910:	40020400 	.word	0x40020400

08001914 <FMCWStream_CountPixclkEdges>:

static uint32_t FMCWStream_CountPixclkEdges(uint32_t sample_ms)
{
 8001914:	b580      	push	{r7, lr}
 8001916:	b086      	sub	sp, #24
 8001918:	af00      	add	r7, sp, #0
 800191a:	6078      	str	r0, [r7, #4]
  uint32_t count = 0U;
 800191c:	2300      	movs	r3, #0
 800191e:	617b      	str	r3, [r7, #20]
  GPIO_PinState last = HAL_GPIO_ReadPin(FMCW_STREAM_PIXCLK_PORT, FMCW_STREAM_PIXCLK_PIN);
 8001920:	2140      	movs	r1, #64	@ 0x40
 8001922:	4812      	ldr	r0, [pc, #72]	@ (800196c <FMCWStream_CountPixclkEdges+0x58>)
 8001924:	f002 ff00 	bl	8004728 <HAL_GPIO_ReadPin>
 8001928:	4603      	mov	r3, r0
 800192a:	74fb      	strb	r3, [r7, #19]
  uint32_t start = HAL_GetTick();
 800192c:	f002 fa84 	bl	8003e38 <HAL_GetTick>
 8001930:	60f8      	str	r0, [r7, #12]

  while ((HAL_GetTick() - start) < sample_ms)
 8001932:	e00e      	b.n	8001952 <FMCWStream_CountPixclkEdges+0x3e>
  {
    GPIO_PinState now = HAL_GPIO_ReadPin(FMCW_STREAM_PIXCLK_PORT, FMCW_STREAM_PIXCLK_PIN);
 8001934:	2140      	movs	r1, #64	@ 0x40
 8001936:	480d      	ldr	r0, [pc, #52]	@ (800196c <FMCWStream_CountPixclkEdges+0x58>)
 8001938:	f002 fef6 	bl	8004728 <HAL_GPIO_ReadPin>
 800193c:	4603      	mov	r3, r0
 800193e:	72fb      	strb	r3, [r7, #11]
    if (now != last)
 8001940:	7afa      	ldrb	r2, [r7, #11]
 8001942:	7cfb      	ldrb	r3, [r7, #19]
 8001944:	429a      	cmp	r2, r3
 8001946:	d004      	beq.n	8001952 <FMCWStream_CountPixclkEdges+0x3e>
    {
      ++count;
 8001948:	697b      	ldr	r3, [r7, #20]
 800194a:	3301      	adds	r3, #1
 800194c:	617b      	str	r3, [r7, #20]
      last = now;
 800194e:	7afb      	ldrb	r3, [r7, #11]
 8001950:	74fb      	strb	r3, [r7, #19]
  while ((HAL_GetTick() - start) < sample_ms)
 8001952:	f002 fa71 	bl	8003e38 <HAL_GetTick>
 8001956:	4602      	mov	r2, r0
 8001958:	68fb      	ldr	r3, [r7, #12]
 800195a:	1ad3      	subs	r3, r2, r3
 800195c:	687a      	ldr	r2, [r7, #4]
 800195e:	429a      	cmp	r2, r3
 8001960:	d8e8      	bhi.n	8001934 <FMCWStream_CountPixclkEdges+0x20>
    }
  }

  return count;
 8001962:	697b      	ldr	r3, [r7, #20]
}
 8001964:	4618      	mov	r0, r3
 8001966:	3718      	adds	r7, #24
 8001968:	46bd      	mov	sp, r7
 800196a:	bd80      	pop	{r7, pc}
 800196c:	40020000 	.word	0x40020000

08001970 <FMCWStream_PrintCapturePins>:

static void FMCWStream_PrintCapturePins(const char *tag)
{
 8001970:	b5b0      	push	{r4, r5, r7, lr}
 8001972:	b086      	sub	sp, #24
 8001974:	af04      	add	r7, sp, #16
 8001976:	6078      	str	r0, [r7, #4]
  printf("STREAM: %s pins PA7=%lu PA4(HSYNC)=%lu PB7(VSYNC)=%lu SR=0x%08lX NDTR=%lu\r\n",
         tag,
         (unsigned long)HAL_GPIO_ReadPin(FMCW_STREAM_HSYNC_DRIVE_PORT,
 8001978:	2180      	movs	r1, #128	@ 0x80
 800197a:	4811      	ldr	r0, [pc, #68]	@ (80019c0 <FMCWStream_PrintCapturePins+0x50>)
 800197c:	f002 fed4 	bl	8004728 <HAL_GPIO_ReadPin>
 8001980:	4603      	mov	r3, r0
  printf("STREAM: %s pins PA7=%lu PA4(HSYNC)=%lu PB7(VSYNC)=%lu SR=0x%08lX NDTR=%lu\r\n",
 8001982:	461c      	mov	r4, r3
                                         FMCW_STREAM_HSYNC_DRIVE_PIN),
         (unsigned long)HAL_GPIO_ReadPin(FMCW_STREAM_DCMI_HSYNC_PORT,
 8001984:	2110      	movs	r1, #16
 8001986:	480e      	ldr	r0, [pc, #56]	@ (80019c0 <FMCWStream_PrintCapturePins+0x50>)
 8001988:	f002 fece 	bl	8004728 <HAL_GPIO_ReadPin>
 800198c:	4603      	mov	r3, r0
  printf("STREAM: %s pins PA7=%lu PA4(HSYNC)=%lu PB7(VSYNC)=%lu SR=0x%08lX NDTR=%lu\r\n",
 800198e:	461d      	mov	r5, r3
                                         FMCW_STREAM_DCMI_HSYNC_PIN),
         (unsigned long)HAL_GPIO_ReadPin(FMCW_STREAM_VSYNC_PORT,
 8001990:	2180      	movs	r1, #128	@ 0x80
 8001992:	480c      	ldr	r0, [pc, #48]	@ (80019c4 <FMCWStream_PrintCapturePins+0x54>)
 8001994:	f002 fec8 	bl	8004728 <HAL_GPIO_ReadPin>
 8001998:	4603      	mov	r3, r0
  printf("STREAM: %s pins PA7=%lu PA4(HSYNC)=%lu PB7(VSYNC)=%lu SR=0x%08lX NDTR=%lu\r\n",
 800199a:	4619      	mov	r1, r3
                                         FMCW_STREAM_VSYNC_PIN),
         (unsigned long)DCMI->SR,
 800199c:	4b0a      	ldr	r3, [pc, #40]	@ (80019c8 <FMCWStream_PrintCapturePins+0x58>)
 800199e:	685b      	ldr	r3, [r3, #4]
         (unsigned long)DMA2_Stream1->NDTR);
 80019a0:	4a0a      	ldr	r2, [pc, #40]	@ (80019cc <FMCWStream_PrintCapturePins+0x5c>)
 80019a2:	6852      	ldr	r2, [r2, #4]
  printf("STREAM: %s pins PA7=%lu PA4(HSYNC)=%lu PB7(VSYNC)=%lu SR=0x%08lX NDTR=%lu\r\n",
 80019a4:	9202      	str	r2, [sp, #8]
 80019a6:	9301      	str	r3, [sp, #4]
 80019a8:	9100      	str	r1, [sp, #0]
 80019aa:	462b      	mov	r3, r5
 80019ac:	4622      	mov	r2, r4
 80019ae:	6879      	ldr	r1, [r7, #4]
 80019b0:	4807      	ldr	r0, [pc, #28]	@ (80019d0 <FMCWStream_PrintCapturePins+0x60>)
 80019b2:	f006 fc2f 	bl	8008214 <iprintf>
}
 80019b6:	bf00      	nop
 80019b8:	3708      	adds	r7, #8
 80019ba:	46bd      	mov	sp, r7
 80019bc:	bdb0      	pop	{r4, r5, r7, pc}
 80019be:	bf00      	nop
 80019c0:	40020000 	.word	0x40020000
 80019c4:	40020400 	.word	0x40020400
 80019c8:	50050000 	.word	0x50050000
 80019cc:	40026428 	.word	0x40026428
 80019d0:	080096d8 	.word	0x080096d8

080019d4 <ITM_SendChar>:
           \li Is blocking when a debugger is connected, but the previous character sent has not been transmitted.
  \param [in]     ch  Character to transmit.
  \returns            Character to transmit.
 */
__STATIC_INLINE uint32_t ITM_SendChar (uint32_t ch)
{
 80019d4:	b480      	push	{r7}
 80019d6:	b083      	sub	sp, #12
 80019d8:	af00      	add	r7, sp, #0
 80019da:	6078      	str	r0, [r7, #4]
  if (((ITM->TCR & ITM_TCR_ITMENA_Msk) != 0UL) &&      /* ITM enabled */
 80019dc:	f04f 4360 	mov.w	r3, #3758096384	@ 0xe0000000
 80019e0:	f8d3 3e80 	ldr.w	r3, [r3, #3712]	@ 0xe80
 80019e4:	f003 0301 	and.w	r3, r3, #1
 80019e8:	2b00      	cmp	r3, #0
 80019ea:	d013      	beq.n	8001a14 <ITM_SendChar+0x40>
      ((ITM->TER & 1UL               ) != 0UL)   )     /* ITM Port #0 enabled */
 80019ec:	f04f 4360 	mov.w	r3, #3758096384	@ 0xe0000000
 80019f0:	f8d3 3e00 	ldr.w	r3, [r3, #3584]	@ 0xe00
 80019f4:	f003 0301 	and.w	r3, r3, #1
  if (((ITM->TCR & ITM_TCR_ITMENA_Msk) != 0UL) &&      /* ITM enabled */
 80019f8:	2b00      	cmp	r3, #0
 80019fa:	d00b      	beq.n	8001a14 <ITM_SendChar+0x40>
  {
    while (ITM->PORT[0U].u32 == 0UL)
 80019fc:	e000      	b.n	8001a00 <ITM_SendChar+0x2c>
    {
      __NOP();
 80019fe:	bf00      	nop
    while (ITM->PORT[0U].u32 == 0UL)
 8001a00:	f04f 4360 	mov.w	r3, #3758096384	@ 0xe0000000
 8001a04:	681b      	ldr	r3, [r3, #0]
 8001a06:	2b00      	cmp	r3, #0
 8001a08:	d0f9      	beq.n	80019fe <ITM_SendChar+0x2a>
    }
    ITM->PORT[0U].u8 = (uint8_t)ch;
 8001a0a:	f04f 4360 	mov.w	r3, #3758096384	@ 0xe0000000
 8001a0e:	687a      	ldr	r2, [r7, #4]
 8001a10:	b2d2      	uxtb	r2, r2
 8001a12:	701a      	strb	r2, [r3, #0]
  }
  return (ch);
 8001a14:	687b      	ldr	r3, [r7, #4]
}
 8001a16:	4618      	mov	r0, r3
 8001a18:	370c      	adds	r7, #12
 8001a1a:	46bd      	mov	sp, r7
 8001a1c:	f85d 7b04 	ldr.w	r7, [sp], #4
 8001a20:	4770      	bx	lr

08001a22 <__io_putchar>:
static void MX_DMA_Init(void) FMCW_MAYBE_UNUSED;
static void MX_DCMI_Init(void) FMCW_MAYBE_UNUSED;
static void MX_USB_OTG_HS_PCD_Init(void) FMCW_MAYBE_UNUSED;

int __io_putchar(int ch)
{
 8001a22:	b580      	push	{r7, lr}
 8001a24:	b082      	sub	sp, #8
 8001a26:	af00      	add	r7, sp, #0
 8001a28:	6078      	str	r0, [r7, #4]
  ITM_SendChar((uint32_t)ch);
 8001a2a:	687b      	ldr	r3, [r7, #4]
 8001a2c:	4618      	mov	r0, r3
 8001a2e:	f7ff ffd1 	bl	80019d4 <ITM_SendChar>
  return ch;
 8001a32:	687b      	ldr	r3, [r7, #4]
}
 8001a34:	4618      	mov	r0, r3
 8001a36:	3708      	adds	r7, #8
 8001a38:	46bd      	mov	sp, r7
 8001a3a:	bd80      	pop	{r7, pc}

08001a3c <main>:

int main(void)
{
 8001a3c:	b580      	push	{r7, lr}
 8001a3e:	af00      	add	r7, sp, #0
  HAL_Init();
 8001a40:	f002 f994 	bl	8003d6c <HAL_Init>

  SystemClock_Config();
 8001a44:	f000 f850 	bl	8001ae8 <SystemClock_Config>

  printf("CLOCK: initialized, SYSCLK=%lu Hz\r\n", HAL_RCC_GetSysClockFreq());
 8001a48:	f004 fcb4 	bl	80063b4 <HAL_RCC_GetSysClockFreq>
 8001a4c:	4603      	mov	r3, r0
 8001a4e:	4619      	mov	r1, r3
 8001a50:	481e      	ldr	r0, [pc, #120]	@ (8001acc <main+0x90>)
 8001a52:	f006 fbdf 	bl	8008214 <iprintf>

#if ENABLE_USB_HS_DEBUG
  USBHSDebug_Init(&hpcd_USB_OTG_HS);
#elif ENABLE_FMCW_STREAM
  PDET_Init();
 8001a56:	f000 f911 	bl	8001c7c <PDET_Init>
  ADF4158_Init();
 8001a5a:	f7fe fdaf 	bl	80005bc <ADF4158_Init>
//  ADF4158_Program();
  ADF4158_ProgramFastChirpTest();
 8001a5e:	f7fe fea5 	bl	80007ac <ADF4158_ProgramFastChirpTest>
  //ADF4158_ProgramBladeRfTest();
  ADF4158_EnableRfOutput();
 8001a62:	f7fe fee9 	bl	8000838 <ADF4158_EnableRfOutput>
  PDET_PrintOnce();
 8001a66:	f000 f9af 	bl	8001dc8 <PDET_PrintOnce>

  USBHSDebug_SetTxCallbacks(FMCWStream_USBNextBuffer, FMCWStream_USBTxDone);
 8001a6a:	4919      	ldr	r1, [pc, #100]	@ (8001ad0 <main+0x94>)
 8001a6c:	4819      	ldr	r0, [pc, #100]	@ (8001ad4 <main+0x98>)
 8001a6e:	f000 fc4d 	bl	800230c <USBHSDebug_SetTxCallbacks>
  USBHSDebug_Init(&hpcd_USB_OTG_HS);
 8001a72:	4819      	ldr	r0, [pc, #100]	@ (8001ad8 <main+0x9c>)
 8001a74:	f000 fbac 	bl	80021d0 <USBHSDebug_Init>

  USBHSDebug_ClearStreamStartRequest();
 8001a78:	f000 fc6e 	bl	8002358 <USBHSDebug_ClearStreamStartRequest>
  printf("STREAM: waiting for USB host configuration before ADC capture\r\n");
 8001a7c:	4817      	ldr	r0, [pc, #92]	@ (8001adc <main+0xa0>)
 8001a7e:	f006 fc31 	bl	80082e4 <puts>
  while (USBHSDebug_IsConfigured() == 0U)
 8001a82:	e001      	b.n	8001a88 <main+0x4c>
  {
    USBHSDebug_Task();
 8001a84:	f000 fc86 	bl	8002394 <USBHSDebug_Task>
  while (USBHSDebug_IsConfigured() == 0U)
 8001a88:	f000 fc56 	bl	8002338 <USBHSDebug_IsConfigured>
 8001a8c:	4603      	mov	r3, r0
 8001a8e:	2b00      	cmp	r3, #0
 8001a90:	d0f8      	beq.n	8001a84 <main+0x48>
  }
  printf("STREAM: USB configured, waiting for PC stream-start request\r\n");
 8001a92:	4813      	ldr	r0, [pc, #76]	@ (8001ae0 <main+0xa4>)
 8001a94:	f006 fc26 	bl	80082e4 <puts>
  while (USBHSDebug_IsStreamStartRequested() == 0U)
 8001a98:	e001      	b.n	8001a9e <main+0x62>
  {
    USBHSDebug_Task();
 8001a9a:	f000 fc7b 	bl	8002394 <USBHSDebug_Task>
  while (USBHSDebug_IsStreamStartRequested() == 0U)
 8001a9e:	f000 fc67 	bl	8002370 <USBHSDebug_IsStreamStartRequested>
 8001aa2:	4603      	mov	r3, r0
 8001aa4:	2b00      	cmp	r3, #0
 8001aa6:	d0f8      	beq.n	8001a9a <main+0x5e>
  }
  printf("STREAM: PC ready, starting MUXOUT-aligned ADC capture\r\n");
 8001aa8:	480e      	ldr	r0, [pc, #56]	@ (8001ae4 <main+0xa8>)
 8001aaa:	f006 fc1b 	bl	80082e4 <puts>
  FMCWStream_Init();
 8001aae:	f7fe ff51 	bl	8000954 <FMCWStream_Init>
  if (FMCWStream_Start() == 0U)
 8001ab2:	f7fe ffcd 	bl	8000a50 <FMCWStream_Start>
 8001ab6:	4603      	mov	r3, r0
 8001ab8:	2b00      	cmp	r3, #0
 8001aba:	d101      	bne.n	8001ac0 <main+0x84>
  {
    Error_Handler();
 8001abc:	f000 f8d8 	bl	8001c70 <Error_Handler>
  while (1)
  {
#if ENABLE_USB_HS_DEBUG
    USBHSDebug_Task();
#elif ENABLE_FMCW_STREAM
    USBHSDebug_Task();
 8001ac0:	f000 fc68 	bl	8002394 <USBHSDebug_Task>
    FMCWStream_Task();
 8001ac4:	f7ff f838 	bl	8000b38 <FMCWStream_Task>
    USBHSDebug_Task();
 8001ac8:	bf00      	nop
 8001aca:	e7f9      	b.n	8001ac0 <main+0x84>
 8001acc:	08009724 	.word	0x08009724
 8001ad0:	08000e99 	.word	0x08000e99
 8001ad4:	08000e35 	.word	0x08000e35
 8001ad8:	20028184 	.word	0x20028184
 8001adc:	08009748 	.word	0x08009748
 8001ae0:	08009788 	.word	0x08009788
 8001ae4:	080097c8 	.word	0x080097c8

08001ae8 <SystemClock_Config>:
  }

}

void SystemClock_Config(void)
{
 8001ae8:	b580      	push	{r7, lr}
 8001aea:	b094      	sub	sp, #80	@ 0x50
 8001aec:	af00      	add	r7, sp, #0
  HAL_StatusTypeDef status;
  RCC_OscInitTypeDef RCC_OscInitStruct = {0};
 8001aee:	f107 031c 	add.w	r3, r7, #28
 8001af2:	2230      	movs	r2, #48	@ 0x30
 8001af4:	2100      	movs	r1, #0
 8001af6:	4618      	mov	r0, r3
 8001af8:	f006 fcd4 	bl	80084a4 <memset>
  RCC_ClkInitTypeDef RCC_ClkInitStruct = {0};
 8001afc:	f107 0308 	add.w	r3, r7, #8
 8001b00:	2200      	movs	r2, #0
 8001b02:	601a      	str	r2, [r3, #0]
 8001b04:	605a      	str	r2, [r3, #4]
 8001b06:	609a      	str	r2, [r3, #8]
 8001b08:	60da      	str	r2, [r3, #12]
 8001b0a:	611a      	str	r2, [r3, #16]

  clock_failure_stage = 0U;
 8001b0c:	4b42      	ldr	r3, [pc, #264]	@ (8001c18 <SystemClock_Config+0x130>)
 8001b0e:	2200      	movs	r2, #0
 8001b10:	601a      	str	r2, [r3, #0]
  clock_failure_status = HAL_OK;
 8001b12:	4b42      	ldr	r3, [pc, #264]	@ (8001c1c <SystemClock_Config+0x134>)
 8001b14:	2200      	movs	r2, #0
 8001b16:	601a      	str	r2, [r3, #0]
  clock_failure_rcc_cr = 0U;
 8001b18:	4b41      	ldr	r3, [pc, #260]	@ (8001c20 <SystemClock_Config+0x138>)
 8001b1a:	2200      	movs	r2, #0
 8001b1c:	601a      	str	r2, [r3, #0]
  clock_failure_rcc_pllcfgr = 0U;
 8001b1e:	4b41      	ldr	r3, [pc, #260]	@ (8001c24 <SystemClock_Config+0x13c>)
 8001b20:	2200      	movs	r2, #0
 8001b22:	601a      	str	r2, [r3, #0]

  __HAL_RCC_PWR_CLK_ENABLE();
 8001b24:	2300      	movs	r3, #0
 8001b26:	607b      	str	r3, [r7, #4]
 8001b28:	4b3f      	ldr	r3, [pc, #252]	@ (8001c28 <SystemClock_Config+0x140>)
 8001b2a:	6c1b      	ldr	r3, [r3, #64]	@ 0x40
 8001b2c:	4a3e      	ldr	r2, [pc, #248]	@ (8001c28 <SystemClock_Config+0x140>)
 8001b2e:	f043 5380 	orr.w	r3, r3, #268435456	@ 0x10000000
 8001b32:	6413      	str	r3, [r2, #64]	@ 0x40
 8001b34:	4b3c      	ldr	r3, [pc, #240]	@ (8001c28 <SystemClock_Config+0x140>)
 8001b36:	6c1b      	ldr	r3, [r3, #64]	@ 0x40
 8001b38:	f003 5380 	and.w	r3, r3, #268435456	@ 0x10000000
 8001b3c:	607b      	str	r3, [r7, #4]
 8001b3e:	687b      	ldr	r3, [r7, #4]
  __HAL_PWR_VOLTAGESCALING_CONFIG(PWR_REGULATOR_VOLTAGE_SCALE1);
 8001b40:	2300      	movs	r3, #0
 8001b42:	603b      	str	r3, [r7, #0]
 8001b44:	4b39      	ldr	r3, [pc, #228]	@ (8001c2c <SystemClock_Config+0x144>)
 8001b46:	681b      	ldr	r3, [r3, #0]
 8001b48:	4a38      	ldr	r2, [pc, #224]	@ (8001c2c <SystemClock_Config+0x144>)
 8001b4a:	f443 4340 	orr.w	r3, r3, #49152	@ 0xc000
 8001b4e:	6013      	str	r3, [r2, #0]
 8001b50:	4b36      	ldr	r3, [pc, #216]	@ (8001c2c <SystemClock_Config+0x144>)
 8001b52:	681b      	ldr	r3, [r3, #0]
 8001b54:	f403 4340 	and.w	r3, r3, #49152	@ 0xc000
 8001b58:	603b      	str	r3, [r7, #0]
 8001b5a:	683b      	ldr	r3, [r7, #0]

  RCC_OscInitStruct.OscillatorType = RCC_OSCILLATORTYPE_HSE;
 8001b5c:	2301      	movs	r3, #1
 8001b5e:	61fb      	str	r3, [r7, #28]
  RCC_OscInitStruct.HSEState = RCC_HSE_BYPASS;
 8001b60:	f44f 23a0 	mov.w	r3, #327680	@ 0x50000
 8001b64:	623b      	str	r3, [r7, #32]
  RCC_OscInitStruct.PLL.PLLState = RCC_PLL_NONE;
 8001b66:	2300      	movs	r3, #0
 8001b68:	637b      	str	r3, [r7, #52]	@ 0x34
  status = HAL_RCC_OscConfig(&RCC_OscInitStruct);
 8001b6a:	f107 031c 	add.w	r3, r7, #28
 8001b6e:	4618      	mov	r0, r3
 8001b70:	f004 f85a 	bl	8005c28 <HAL_RCC_OscConfig>
 8001b74:	4603      	mov	r3, r0
 8001b76:	f887 304f 	strb.w	r3, [r7, #79]	@ 0x4f
  if (status != HAL_OK)
 8001b7a:	f897 304f 	ldrb.w	r3, [r7, #79]	@ 0x4f
 8001b7e:	2b00      	cmp	r3, #0
 8001b80:	d005      	beq.n	8001b8e <SystemClock_Config+0xa6>
  {
    Clock_Failure(1U, status);
 8001b82:	f897 304f 	ldrb.w	r3, [r7, #79]	@ 0x4f
 8001b86:	4619      	mov	r1, r3
 8001b88:	2001      	movs	r0, #1
 8001b8a:	f000 f851 	bl	8001c30 <Clock_Failure>
  }

  RCC_OscInitStruct.OscillatorType = RCC_OSCILLATORTYPE_NONE;
 8001b8e:	2300      	movs	r3, #0
 8001b90:	61fb      	str	r3, [r7, #28]
  RCC_OscInitStruct.PLL.PLLState = RCC_PLL_ON;
 8001b92:	2302      	movs	r3, #2
 8001b94:	637b      	str	r3, [r7, #52]	@ 0x34
  RCC_OscInitStruct.PLL.PLLSource = RCC_PLLSOURCE_HSE;
 8001b96:	f44f 0380 	mov.w	r3, #4194304	@ 0x400000
 8001b9a:	63bb      	str	r3, [r7, #56]	@ 0x38
  RCC_OscInitStruct.PLL.PLLM = 20;
 8001b9c:	2314      	movs	r3, #20
 8001b9e:	63fb      	str	r3, [r7, #60]	@ 0x3c
  RCC_OscInitStruct.PLL.PLLN = 336;
 8001ba0:	f44f 73a8 	mov.w	r3, #336	@ 0x150
 8001ba4:	643b      	str	r3, [r7, #64]	@ 0x40
  RCC_OscInitStruct.PLL.PLLP = RCC_PLLP_DIV2;
 8001ba6:	2302      	movs	r3, #2
 8001ba8:	647b      	str	r3, [r7, #68]	@ 0x44
  RCC_OscInitStruct.PLL.PLLQ = 7;
 8001baa:	2307      	movs	r3, #7
 8001bac:	64bb      	str	r3, [r7, #72]	@ 0x48
  status = HAL_RCC_OscConfig(&RCC_OscInitStruct);
 8001bae:	f107 031c 	add.w	r3, r7, #28
 8001bb2:	4618      	mov	r0, r3
 8001bb4:	f004 f838 	bl	8005c28 <HAL_RCC_OscConfig>
 8001bb8:	4603      	mov	r3, r0
 8001bba:	f887 304f 	strb.w	r3, [r7, #79]	@ 0x4f
  if (status != HAL_OK)
 8001bbe:	f897 304f 	ldrb.w	r3, [r7, #79]	@ 0x4f
 8001bc2:	2b00      	cmp	r3, #0
 8001bc4:	d005      	beq.n	8001bd2 <SystemClock_Config+0xea>
  {
    Clock_Failure(2U, status);
 8001bc6:	f897 304f 	ldrb.w	r3, [r7, #79]	@ 0x4f
 8001bca:	4619      	mov	r1, r3
 8001bcc:	2002      	movs	r0, #2
 8001bce:	f000 f82f 	bl	8001c30 <Clock_Failure>
  }

  RCC_ClkInitStruct.ClockType = RCC_CLOCKTYPE_HCLK|RCC_CLOCKTYPE_SYSCLK
 8001bd2:	230f      	movs	r3, #15
 8001bd4:	60bb      	str	r3, [r7, #8]
                              |RCC_CLOCKTYPE_PCLK1|RCC_CLOCKTYPE_PCLK2;
  RCC_ClkInitStruct.SYSCLKSource = RCC_SYSCLKSOURCE_PLLCLK;
 8001bd6:	2302      	movs	r3, #2
 8001bd8:	60fb      	str	r3, [r7, #12]
  RCC_ClkInitStruct.AHBCLKDivider = RCC_SYSCLK_DIV1;
 8001bda:	2300      	movs	r3, #0
 8001bdc:	613b      	str	r3, [r7, #16]
  RCC_ClkInitStruct.APB1CLKDivider = RCC_HCLK_DIV4;
 8001bde:	f44f 53a0 	mov.w	r3, #5120	@ 0x1400
 8001be2:	617b      	str	r3, [r7, #20]
  RCC_ClkInitStruct.APB2CLKDivider = RCC_HCLK_DIV2;
 8001be4:	f44f 5380 	mov.w	r3, #4096	@ 0x1000
 8001be8:	61bb      	str	r3, [r7, #24]

  if (HAL_RCC_ClockConfig(&RCC_ClkInitStruct, FLASH_LATENCY_5) != HAL_OK)
 8001bea:	f107 0308 	add.w	r3, r7, #8
 8001bee:	2105      	movs	r1, #5
 8001bf0:	4618      	mov	r0, r3
 8001bf2:	f004 fa91 	bl	8006118 <HAL_RCC_ClockConfig>
 8001bf6:	4603      	mov	r3, r0
 8001bf8:	2b00      	cmp	r3, #0
 8001bfa:	d001      	beq.n	8001c00 <SystemClock_Config+0x118>
  {
    Error_Handler();
 8001bfc:	f000 f838 	bl	8001c70 <Error_Handler>
  }

  HAL_RCC_MCOConfig(RCC_MCO1, RCC_MCO1SOURCE_HSE, RCC_MCODIV_2);
 8001c00:	f04f 6280 	mov.w	r2, #67108864	@ 0x4000000
 8001c04:	f44f 0180 	mov.w	r1, #4194304	@ 0x400000
 8001c08:	2000      	movs	r0, #0
 8001c0a:	f004 fb6b 	bl	80062e4 <HAL_RCC_MCOConfig>
}
 8001c0e:	bf00      	nop
 8001c10:	3750      	adds	r7, #80	@ 0x50
 8001c12:	46bd      	mov	sp, r7
 8001c14:	bd80      	pop	{r7, pc}
 8001c16:	bf00      	nop
 8001c18:	20028668 	.word	0x20028668
 8001c1c:	2002866c 	.word	0x2002866c
 8001c20:	20028670 	.word	0x20028670
 8001c24:	20028674 	.word	0x20028674
 8001c28:	40023800 	.word	0x40023800
 8001c2c:	40007000 	.word	0x40007000

08001c30 <Clock_Failure>:

static void Clock_Failure(uint32_t stage, HAL_StatusTypeDef status)
{
 8001c30:	b480      	push	{r7}
 8001c32:	b083      	sub	sp, #12
 8001c34:	af00      	add	r7, sp, #0
 8001c36:	6078      	str	r0, [r7, #4]
 8001c38:	460b      	mov	r3, r1
 8001c3a:	70fb      	strb	r3, [r7, #3]
  clock_failure_stage = stage;
 8001c3c:	4a07      	ldr	r2, [pc, #28]	@ (8001c5c <Clock_Failure+0x2c>)
 8001c3e:	687b      	ldr	r3, [r7, #4]
 8001c40:	6013      	str	r3, [r2, #0]
  clock_failure_status = status;
 8001c42:	78fb      	ldrb	r3, [r7, #3]
 8001c44:	4a06      	ldr	r2, [pc, #24]	@ (8001c60 <Clock_Failure+0x30>)
 8001c46:	6013      	str	r3, [r2, #0]
  clock_failure_rcc_cr = RCC->CR;
 8001c48:	4b06      	ldr	r3, [pc, #24]	@ (8001c64 <Clock_Failure+0x34>)
 8001c4a:	681b      	ldr	r3, [r3, #0]
 8001c4c:	4a06      	ldr	r2, [pc, #24]	@ (8001c68 <Clock_Failure+0x38>)
 8001c4e:	6013      	str	r3, [r2, #0]
  clock_failure_rcc_pllcfgr = RCC->PLLCFGR;
 8001c50:	4b04      	ldr	r3, [pc, #16]	@ (8001c64 <Clock_Failure+0x34>)
 8001c52:	685b      	ldr	r3, [r3, #4]
 8001c54:	4a05      	ldr	r2, [pc, #20]	@ (8001c6c <Clock_Failure+0x3c>)
 8001c56:	6013      	str	r3, [r2, #0]

  while (1)
 8001c58:	bf00      	nop
 8001c5a:	e7fd      	b.n	8001c58 <Clock_Failure+0x28>
 8001c5c:	20028668 	.word	0x20028668
 8001c60:	2002866c 	.word	0x2002866c
 8001c64:	40023800 	.word	0x40023800
 8001c68:	20028670 	.word	0x20028670
 8001c6c:	20028674 	.word	0x20028674

08001c70 <Error_Handler>:

}


void Error_Handler(void)
{
 8001c70:	b480      	push	{r7}
 8001c72:	af00      	add	r7, sp, #0
  __ASM volatile ("cpsid i" : : : "memory");
 8001c74:	b672      	cpsid	i
}
 8001c76:	bf00      	nop
  /* USER CODE BEGIN Error_Handler_Debug */
  __disable_irq();
  while (1)
 8001c78:	bf00      	nop
 8001c7a:	e7fd      	b.n	8001c78 <Error_Handler+0x8>

08001c7c <PDET_Init>:

volatile uint32_t pdet_failure_stage;
volatile uint32_t pdet_failure_sr;

void PDET_Init(void)
{
 8001c7c:	b580      	push	{r7, lr}
 8001c7e:	b088      	sub	sp, #32
 8001c80:	af00      	add	r7, sp, #0
  GPIO_InitTypeDef gpio = {0};
 8001c82:	f107 030c 	add.w	r3, r7, #12
 8001c86:	2200      	movs	r2, #0
 8001c88:	601a      	str	r2, [r3, #0]
 8001c8a:	605a      	str	r2, [r3, #4]
 8001c8c:	609a      	str	r2, [r3, #8]
 8001c8e:	60da      	str	r2, [r3, #12]
 8001c90:	611a      	str	r2, [r3, #16]

  pdet_failure_stage = 0U;
 8001c92:	4b2a      	ldr	r3, [pc, #168]	@ (8001d3c <PDET_Init+0xc0>)
 8001c94:	2200      	movs	r2, #0
 8001c96:	601a      	str	r2, [r3, #0]
  pdet_failure_sr = 0U;
 8001c98:	4b29      	ldr	r3, [pc, #164]	@ (8001d40 <PDET_Init+0xc4>)
 8001c9a:	2200      	movs	r2, #0
 8001c9c:	601a      	str	r2, [r3, #0]

  __HAL_RCC_GPIOC_CLK_ENABLE();
 8001c9e:	2300      	movs	r3, #0
 8001ca0:	60bb      	str	r3, [r7, #8]
 8001ca2:	4b28      	ldr	r3, [pc, #160]	@ (8001d44 <PDET_Init+0xc8>)
 8001ca4:	6b1b      	ldr	r3, [r3, #48]	@ 0x30
 8001ca6:	4a27      	ldr	r2, [pc, #156]	@ (8001d44 <PDET_Init+0xc8>)
 8001ca8:	f043 0304 	orr.w	r3, r3, #4
 8001cac:	6313      	str	r3, [r2, #48]	@ 0x30
 8001cae:	4b25      	ldr	r3, [pc, #148]	@ (8001d44 <PDET_Init+0xc8>)
 8001cb0:	6b1b      	ldr	r3, [r3, #48]	@ 0x30
 8001cb2:	f003 0304 	and.w	r3, r3, #4
 8001cb6:	60bb      	str	r3, [r7, #8]
 8001cb8:	68bb      	ldr	r3, [r7, #8]
  __HAL_RCC_ADC1_CLK_ENABLE();
 8001cba:	2300      	movs	r3, #0
 8001cbc:	607b      	str	r3, [r7, #4]
 8001cbe:	4b21      	ldr	r3, [pc, #132]	@ (8001d44 <PDET_Init+0xc8>)
 8001cc0:	6c5b      	ldr	r3, [r3, #68]	@ 0x44
 8001cc2:	4a20      	ldr	r2, [pc, #128]	@ (8001d44 <PDET_Init+0xc8>)
 8001cc4:	f443 7380 	orr.w	r3, r3, #256	@ 0x100
 8001cc8:	6453      	str	r3, [r2, #68]	@ 0x44
 8001cca:	4b1e      	ldr	r3, [pc, #120]	@ (8001d44 <PDET_Init+0xc8>)
 8001ccc:	6c5b      	ldr	r3, [r3, #68]	@ 0x44
 8001cce:	f403 7380 	and.w	r3, r3, #256	@ 0x100
 8001cd2:	607b      	str	r3, [r7, #4]
 8001cd4:	687b      	ldr	r3, [r7, #4]

  gpio.Pin = PDET_Pin;
 8001cd6:	2310      	movs	r3, #16
 8001cd8:	60fb      	str	r3, [r7, #12]
  gpio.Mode = GPIO_MODE_ANALOG;
 8001cda:	2303      	movs	r3, #3
 8001cdc:	613b      	str	r3, [r7, #16]
  gpio.Pull = GPIO_NOPULL;
 8001cde:	2300      	movs	r3, #0
 8001ce0:	617b      	str	r3, [r7, #20]
  HAL_GPIO_Init(PDET_GPIO_Port, &gpio);
 8001ce2:	f107 030c 	add.w	r3, r7, #12
 8001ce6:	4619      	mov	r1, r3
 8001ce8:	4817      	ldr	r0, [pc, #92]	@ (8001d48 <PDET_Init+0xcc>)
 8001cea:	f002 fb71 	bl	80043d0 <HAL_GPIO_Init>

  ADC1->CR1 = 0U;                         /* 12-bit, single conversion. */
 8001cee:	4b17      	ldr	r3, [pc, #92]	@ (8001d4c <PDET_Init+0xd0>)
 8001cf0:	2200      	movs	r2, #0
 8001cf2:	605a      	str	r2, [r3, #4]
  ADC1->CR2 = 0U;
 8001cf4:	4b15      	ldr	r3, [pc, #84]	@ (8001d4c <PDET_Init+0xd0>)
 8001cf6:	2200      	movs	r2, #0
 8001cf8:	609a      	str	r2, [r3, #8]
  ADC1->SQR1 = 0U;                        /* One regular conversion. */
 8001cfa:	4b14      	ldr	r3, [pc, #80]	@ (8001d4c <PDET_Init+0xd0>)
 8001cfc:	2200      	movs	r2, #0
 8001cfe:	62da      	str	r2, [r3, #44]	@ 0x2c
  ADC1->SQR3 = PDET_ADC_CHANNEL;
 8001d00:	4b12      	ldr	r3, [pc, #72]	@ (8001d4c <PDET_Init+0xd0>)
 8001d02:	220e      	movs	r2, #14
 8001d04:	635a      	str	r2, [r3, #52]	@ 0x34
  ADC1->SMPR1 = (ADC1->SMPR1 & ~ADC_SMPR1_SMP14) | ADC_SMPR1_SMP14;
 8001d06:	4b11      	ldr	r3, [pc, #68]	@ (8001d4c <PDET_Init+0xd0>)
 8001d08:	68db      	ldr	r3, [r3, #12]
 8001d0a:	4a10      	ldr	r2, [pc, #64]	@ (8001d4c <PDET_Init+0xd0>)
 8001d0c:	f443 43e0 	orr.w	r3, r3, #28672	@ 0x7000
 8001d10:	60d3      	str	r3, [r2, #12]

  ADC->CCR = (ADC->CCR & ~ADC_CCR_ADCPRE) | ADC_CCR_ADCPRE_0;
 8001d12:	4b0f      	ldr	r3, [pc, #60]	@ (8001d50 <PDET_Init+0xd4>)
 8001d14:	685b      	ldr	r3, [r3, #4]
 8001d16:	f423 3340 	bic.w	r3, r3, #196608	@ 0x30000
 8001d1a:	4a0d      	ldr	r2, [pc, #52]	@ (8001d50 <PDET_Init+0xd4>)
 8001d1c:	f443 3380 	orr.w	r3, r3, #65536	@ 0x10000
 8001d20:	6053      	str	r3, [r2, #4]
  ADC1->CR2 |= ADC_CR2_ADON;
 8001d22:	4b0a      	ldr	r3, [pc, #40]	@ (8001d4c <PDET_Init+0xd0>)
 8001d24:	689b      	ldr	r3, [r3, #8]
 8001d26:	4a09      	ldr	r2, [pc, #36]	@ (8001d4c <PDET_Init+0xd0>)
 8001d28:	f043 0301 	orr.w	r3, r3, #1
 8001d2c:	6093      	str	r3, [r2, #8]

  printf("PDET: ADC1 channel 14 initialized\r\n");
 8001d2e:	4809      	ldr	r0, [pc, #36]	@ (8001d54 <PDET_Init+0xd8>)
 8001d30:	f006 fad8 	bl	80082e4 <puts>
}
 8001d34:	bf00      	nop
 8001d36:	3720      	adds	r7, #32
 8001d38:	46bd      	mov	sp, r7
 8001d3a:	bd80      	pop	{r7, pc}
 8001d3c:	20028678 	.word	0x20028678
 8001d40:	2002867c 	.word	0x2002867c
 8001d44:	40023800 	.word	0x40023800
 8001d48:	40020800 	.word	0x40020800
 8001d4c:	40012000 	.word	0x40012000
 8001d50:	40012300 	.word	0x40012300
 8001d54:	08009800 	.word	0x08009800

08001d58 <PDET_ReadRaw>:

uint32_t PDET_ReadRaw(uint32_t *raw)
{
 8001d58:	b580      	push	{r7, lr}
 8001d5a:	b084      	sub	sp, #16
 8001d5c:	af00      	add	r7, sp, #0
 8001d5e:	6078      	str	r0, [r7, #4]
  uint32_t tickstart;

  ADC1->SR = 0U;
 8001d60:	4b16      	ldr	r3, [pc, #88]	@ (8001dbc <PDET_ReadRaw+0x64>)
 8001d62:	2200      	movs	r2, #0
 8001d64:	601a      	str	r2, [r3, #0]
  ADC1->CR2 |= ADC_CR2_SWSTART;
 8001d66:	4b15      	ldr	r3, [pc, #84]	@ (8001dbc <PDET_ReadRaw+0x64>)
 8001d68:	689b      	ldr	r3, [r3, #8]
 8001d6a:	4a14      	ldr	r2, [pc, #80]	@ (8001dbc <PDET_ReadRaw+0x64>)
 8001d6c:	f043 4380 	orr.w	r3, r3, #1073741824	@ 0x40000000
 8001d70:	6093      	str	r3, [r2, #8]

  tickstart = HAL_GetTick();
 8001d72:	f002 f861 	bl	8003e38 <HAL_GetTick>
 8001d76:	60f8      	str	r0, [r7, #12]
  while ((ADC1->SR & ADC_SR_EOC) == 0U)
 8001d78:	e00f      	b.n	8001d9a <PDET_ReadRaw+0x42>
  {
    if ((HAL_GetTick() - tickstart) > PDET_ADC_TIMEOUT_MS)
 8001d7a:	f002 f85d 	bl	8003e38 <HAL_GetTick>
 8001d7e:	4602      	mov	r2, r0
 8001d80:	68fb      	ldr	r3, [r7, #12]
 8001d82:	1ad3      	subs	r3, r2, r3
 8001d84:	2b0a      	cmp	r3, #10
 8001d86:	d908      	bls.n	8001d9a <PDET_ReadRaw+0x42>
    {
      pdet_failure_stage = 1U;
 8001d88:	4b0d      	ldr	r3, [pc, #52]	@ (8001dc0 <PDET_ReadRaw+0x68>)
 8001d8a:	2201      	movs	r2, #1
 8001d8c:	601a      	str	r2, [r3, #0]
      pdet_failure_sr = ADC1->SR;
 8001d8e:	4b0b      	ldr	r3, [pc, #44]	@ (8001dbc <PDET_ReadRaw+0x64>)
 8001d90:	681b      	ldr	r3, [r3, #0]
 8001d92:	4a0c      	ldr	r2, [pc, #48]	@ (8001dc4 <PDET_ReadRaw+0x6c>)
 8001d94:	6013      	str	r3, [r2, #0]
      return 0U;
 8001d96:	2300      	movs	r3, #0
 8001d98:	e00c      	b.n	8001db4 <PDET_ReadRaw+0x5c>
  while ((ADC1->SR & ADC_SR_EOC) == 0U)
 8001d9a:	4b08      	ldr	r3, [pc, #32]	@ (8001dbc <PDET_ReadRaw+0x64>)
 8001d9c:	681b      	ldr	r3, [r3, #0]
 8001d9e:	f003 0302 	and.w	r3, r3, #2
 8001da2:	2b00      	cmp	r3, #0
 8001da4:	d0e9      	beq.n	8001d7a <PDET_ReadRaw+0x22>
    }
  }

  *raw = ADC1->DR & PDET_ADC_MAX_COUNT;
 8001da6:	4b05      	ldr	r3, [pc, #20]	@ (8001dbc <PDET_ReadRaw+0x64>)
 8001da8:	6cdb      	ldr	r3, [r3, #76]	@ 0x4c
 8001daa:	f3c3 020b 	ubfx	r2, r3, #0, #12
 8001dae:	687b      	ldr	r3, [r7, #4]
 8001db0:	601a      	str	r2, [r3, #0]
  return 1U;
 8001db2:	2301      	movs	r3, #1
}
 8001db4:	4618      	mov	r0, r3
 8001db6:	3710      	adds	r7, #16
 8001db8:	46bd      	mov	sp, r7
 8001dba:	bd80      	pop	{r7, pc}
 8001dbc:	40012000 	.word	0x40012000
 8001dc0:	20028678 	.word	0x20028678
 8001dc4:	2002867c 	.word	0x2002867c

08001dc8 <PDET_PrintOnce>:

void PDET_PrintOnce(void)
{
 8001dc8:	b580      	push	{r7, lr}
 8001dca:	b082      	sub	sp, #8
 8001dcc:	af00      	add	r7, sp, #0
  uint32_t raw;
  uint32_t millivolts;

  if (PDET_ReadRaw(&raw) == 0U)
 8001dce:	463b      	mov	r3, r7
 8001dd0:	4618      	mov	r0, r3
 8001dd2:	f7ff ffc1 	bl	8001d58 <PDET_ReadRaw>
 8001dd6:	4603      	mov	r3, r0
 8001dd8:	2b00      	cmp	r3, #0
 8001dda:	d106      	bne.n	8001dea <PDET_PrintOnce+0x22>
  {
    printf("PDET: ADC timeout, SR=0x%08lX\r\n", (unsigned long)pdet_failure_sr);
 8001ddc:	4b0e      	ldr	r3, [pc, #56]	@ (8001e18 <PDET_PrintOnce+0x50>)
 8001dde:	681b      	ldr	r3, [r3, #0]
 8001de0:	4619      	mov	r1, r3
 8001de2:	480e      	ldr	r0, [pc, #56]	@ (8001e1c <PDET_PrintOnce+0x54>)
 8001de4:	f006 fa16 	bl	8008214 <iprintf>
 8001de8:	e012      	b.n	8001e10 <PDET_PrintOnce+0x48>
    return;
  }

  millivolts = (raw * PDET_ADC_VREF_MV) / PDET_ADC_MAX_COUNT;
 8001dea:	683b      	ldr	r3, [r7, #0]
 8001dec:	f640 42e4 	movw	r2, #3300	@ 0xce4
 8001df0:	fb03 f202 	mul.w	r2, r3, r2
 8001df4:	4b0a      	ldr	r3, [pc, #40]	@ (8001e20 <PDET_PrintOnce+0x58>)
 8001df6:	fba3 1302 	umull	r1, r3, r3, r2
 8001dfa:	1ad2      	subs	r2, r2, r3
 8001dfc:	0852      	lsrs	r2, r2, #1
 8001dfe:	4413      	add	r3, r2
 8001e00:	0adb      	lsrs	r3, r3, #11
 8001e02:	607b      	str	r3, [r7, #4]
  printf("PDET: raw=%lu, voltage=%lu mV\r\n",
 8001e04:	683b      	ldr	r3, [r7, #0]
 8001e06:	687a      	ldr	r2, [r7, #4]
 8001e08:	4619      	mov	r1, r3
 8001e0a:	4806      	ldr	r0, [pc, #24]	@ (8001e24 <PDET_PrintOnce+0x5c>)
 8001e0c:	f006 fa02 	bl	8008214 <iprintf>
         (unsigned long)raw,
         (unsigned long)millivolts);
}
 8001e10:	3708      	adds	r7, #8
 8001e12:	46bd      	mov	sp, r7
 8001e14:	bd80      	pop	{r7, pc}
 8001e16:	bf00      	nop
 8001e18:	2002867c 	.word	0x2002867c
 8001e1c:	08009824 	.word	0x08009824
 8001e20:	00100101 	.word	0x00100101
 8001e24:	08009844 	.word	0x08009844

08001e28 <HAL_MspInit>:
/* USER CODE END 0 */
/**
  * Initializes the Global MSP.
  */
void HAL_MspInit(void)
{
 8001e28:	b480      	push	{r7}
 8001e2a:	b083      	sub	sp, #12
 8001e2c:	af00      	add	r7, sp, #0

  /* USER CODE BEGIN MspInit 0 */

  /* USER CODE END MspInit 0 */

  __HAL_RCC_SYSCFG_CLK_ENABLE();
 8001e2e:	2300      	movs	r3, #0
 8001e30:	607b      	str	r3, [r7, #4]
 8001e32:	4b10      	ldr	r3, [pc, #64]	@ (8001e74 <HAL_MspInit+0x4c>)
 8001e34:	6c5b      	ldr	r3, [r3, #68]	@ 0x44
 8001e36:	4a0f      	ldr	r2, [pc, #60]	@ (8001e74 <HAL_MspInit+0x4c>)
 8001e38:	f443 4380 	orr.w	r3, r3, #16384	@ 0x4000
 8001e3c:	6453      	str	r3, [r2, #68]	@ 0x44
 8001e3e:	4b0d      	ldr	r3, [pc, #52]	@ (8001e74 <HAL_MspInit+0x4c>)
 8001e40:	6c5b      	ldr	r3, [r3, #68]	@ 0x44
 8001e42:	f403 4380 	and.w	r3, r3, #16384	@ 0x4000
 8001e46:	607b      	str	r3, [r7, #4]
 8001e48:	687b      	ldr	r3, [r7, #4]
  __HAL_RCC_PWR_CLK_ENABLE();
 8001e4a:	2300      	movs	r3, #0
 8001e4c:	603b      	str	r3, [r7, #0]
 8001e4e:	4b09      	ldr	r3, [pc, #36]	@ (8001e74 <HAL_MspInit+0x4c>)
 8001e50:	6c1b      	ldr	r3, [r3, #64]	@ 0x40
 8001e52:	4a08      	ldr	r2, [pc, #32]	@ (8001e74 <HAL_MspInit+0x4c>)
 8001e54:	f043 5380 	orr.w	r3, r3, #268435456	@ 0x10000000
 8001e58:	6413      	str	r3, [r2, #64]	@ 0x40
 8001e5a:	4b06      	ldr	r3, [pc, #24]	@ (8001e74 <HAL_MspInit+0x4c>)
 8001e5c:	6c1b      	ldr	r3, [r3, #64]	@ 0x40
 8001e5e:	f003 5380 	and.w	r3, r3, #268435456	@ 0x10000000
 8001e62:	603b      	str	r3, [r7, #0]
 8001e64:	683b      	ldr	r3, [r7, #0]
  /* System interrupt init*/

  /* USER CODE BEGIN MspInit 1 */

  /* USER CODE END MspInit 1 */
}
 8001e66:	bf00      	nop
 8001e68:	370c      	adds	r7, #12
 8001e6a:	46bd      	mov	sp, r7
 8001e6c:	f85d 7b04 	ldr.w	r7, [sp], #4
 8001e70:	4770      	bx	lr
 8001e72:	bf00      	nop
 8001e74:	40023800 	.word	0x40023800

08001e78 <HAL_PCD_MspInit>:
  * This function configures the hardware resources used in this example
  * @param hpcd: PCD handle pointer
  * @retval None
  */
void HAL_PCD_MspInit(PCD_HandleTypeDef* hpcd)
{
 8001e78:	b580      	push	{r7, lr}
 8001e7a:	b08c      	sub	sp, #48	@ 0x30
 8001e7c:	af00      	add	r7, sp, #0
 8001e7e:	6078      	str	r0, [r7, #4]
  GPIO_InitTypeDef GPIO_InitStruct = {0};
 8001e80:	f107 031c 	add.w	r3, r7, #28
 8001e84:	2200      	movs	r2, #0
 8001e86:	601a      	str	r2, [r3, #0]
 8001e88:	605a      	str	r2, [r3, #4]
 8001e8a:	609a      	str	r2, [r3, #8]
 8001e8c:	60da      	str	r2, [r3, #12]
 8001e8e:	611a      	str	r2, [r3, #16]
  if(hpcd->Instance==USB_OTG_HS)
 8001e90:	687b      	ldr	r3, [r7, #4]
 8001e92:	681b      	ldr	r3, [r3, #0]
 8001e94:	4a3e      	ldr	r2, [pc, #248]	@ (8001f90 <HAL_PCD_MspInit+0x118>)
 8001e96:	4293      	cmp	r3, r2
 8001e98:	d176      	bne.n	8001f88 <HAL_PCD_MspInit+0x110>
  {
    /* USER CODE BEGIN USB_OTG_HS_MspInit 0 */

    /* USER CODE END USB_OTG_HS_MspInit 0 */

    __HAL_RCC_GPIOC_CLK_ENABLE();
 8001e9a:	2300      	movs	r3, #0
 8001e9c:	61bb      	str	r3, [r7, #24]
 8001e9e:	4b3d      	ldr	r3, [pc, #244]	@ (8001f94 <HAL_PCD_MspInit+0x11c>)
 8001ea0:	6b1b      	ldr	r3, [r3, #48]	@ 0x30
 8001ea2:	4a3c      	ldr	r2, [pc, #240]	@ (8001f94 <HAL_PCD_MspInit+0x11c>)
 8001ea4:	f043 0304 	orr.w	r3, r3, #4
 8001ea8:	6313      	str	r3, [r2, #48]	@ 0x30
 8001eaa:	4b3a      	ldr	r3, [pc, #232]	@ (8001f94 <HAL_PCD_MspInit+0x11c>)
 8001eac:	6b1b      	ldr	r3, [r3, #48]	@ 0x30
 8001eae:	f003 0304 	and.w	r3, r3, #4
 8001eb2:	61bb      	str	r3, [r7, #24]
 8001eb4:	69bb      	ldr	r3, [r7, #24]
    __HAL_RCC_GPIOA_CLK_ENABLE();
 8001eb6:	2300      	movs	r3, #0
 8001eb8:	617b      	str	r3, [r7, #20]
 8001eba:	4b36      	ldr	r3, [pc, #216]	@ (8001f94 <HAL_PCD_MspInit+0x11c>)
 8001ebc:	6b1b      	ldr	r3, [r3, #48]	@ 0x30
 8001ebe:	4a35      	ldr	r2, [pc, #212]	@ (8001f94 <HAL_PCD_MspInit+0x11c>)
 8001ec0:	f043 0301 	orr.w	r3, r3, #1
 8001ec4:	6313      	str	r3, [r2, #48]	@ 0x30
 8001ec6:	4b33      	ldr	r3, [pc, #204]	@ (8001f94 <HAL_PCD_MspInit+0x11c>)
 8001ec8:	6b1b      	ldr	r3, [r3, #48]	@ 0x30
 8001eca:	f003 0301 	and.w	r3, r3, #1
 8001ece:	617b      	str	r3, [r7, #20]
 8001ed0:	697b      	ldr	r3, [r7, #20]
    __HAL_RCC_GPIOB_CLK_ENABLE();
 8001ed2:	2300      	movs	r3, #0
 8001ed4:	613b      	str	r3, [r7, #16]
 8001ed6:	4b2f      	ldr	r3, [pc, #188]	@ (8001f94 <HAL_PCD_MspInit+0x11c>)
 8001ed8:	6b1b      	ldr	r3, [r3, #48]	@ 0x30
 8001eda:	4a2e      	ldr	r2, [pc, #184]	@ (8001f94 <HAL_PCD_MspInit+0x11c>)
 8001edc:	f043 0302 	orr.w	r3, r3, #2
 8001ee0:	6313      	str	r3, [r2, #48]	@ 0x30
 8001ee2:	4b2c      	ldr	r3, [pc, #176]	@ (8001f94 <HAL_PCD_MspInit+0x11c>)
 8001ee4:	6b1b      	ldr	r3, [r3, #48]	@ 0x30
 8001ee6:	f003 0302 	and.w	r3, r3, #2
 8001eea:	613b      	str	r3, [r7, #16]
 8001eec:	693b      	ldr	r3, [r7, #16]
    PB11     ------> USB_OTG_HS_ULPI_D4
    PB12     ------> USB_OTG_HS_ULPI_D5
    PB13     ------> USB_OTG_HS_ULPI_D6
    PB5     ------> USB_OTG_HS_ULPI_D7
    */
    GPIO_InitStruct.Pin = ULP_STP_Pin|ULPI_DIR_Pin|ULPI_NXT_Pin;
 8001eee:	230d      	movs	r3, #13
 8001ef0:	61fb      	str	r3, [r7, #28]
    GPIO_InitStruct.Mode = GPIO_MODE_AF_PP;
 8001ef2:	2302      	movs	r3, #2
 8001ef4:	623b      	str	r3, [r7, #32]
    GPIO_InitStruct.Pull = GPIO_NOPULL;
 8001ef6:	2300      	movs	r3, #0
 8001ef8:	627b      	str	r3, [r7, #36]	@ 0x24
    GPIO_InitStruct.Speed = GPIO_SPEED_FREQ_VERY_HIGH;
 8001efa:	2303      	movs	r3, #3
 8001efc:	62bb      	str	r3, [r7, #40]	@ 0x28
    GPIO_InitStruct.Alternate = GPIO_AF10_OTG_HS;
 8001efe:	230a      	movs	r3, #10
 8001f00:	62fb      	str	r3, [r7, #44]	@ 0x2c
    HAL_GPIO_Init(GPIOC, &GPIO_InitStruct);
 8001f02:	f107 031c 	add.w	r3, r7, #28
 8001f06:	4619      	mov	r1, r3
 8001f08:	4823      	ldr	r0, [pc, #140]	@ (8001f98 <HAL_PCD_MspInit+0x120>)
 8001f0a:	f002 fa61 	bl	80043d0 <HAL_GPIO_Init>

    GPIO_InitStruct.Pin = ULPI_D0_Pin|ULPI_CLK_Pin;
 8001f0e:	2328      	movs	r3, #40	@ 0x28
 8001f10:	61fb      	str	r3, [r7, #28]
    GPIO_InitStruct.Mode = GPIO_MODE_AF_PP;
 8001f12:	2302      	movs	r3, #2
 8001f14:	623b      	str	r3, [r7, #32]
    GPIO_InitStruct.Pull = GPIO_NOPULL;
 8001f16:	2300      	movs	r3, #0
 8001f18:	627b      	str	r3, [r7, #36]	@ 0x24
    GPIO_InitStruct.Speed = GPIO_SPEED_FREQ_VERY_HIGH;
 8001f1a:	2303      	movs	r3, #3
 8001f1c:	62bb      	str	r3, [r7, #40]	@ 0x28
    GPIO_InitStruct.Alternate = GPIO_AF10_OTG_HS;
 8001f1e:	230a      	movs	r3, #10
 8001f20:	62fb      	str	r3, [r7, #44]	@ 0x2c
    HAL_GPIO_Init(GPIOA, &GPIO_InitStruct);
 8001f22:	f107 031c 	add.w	r3, r7, #28
 8001f26:	4619      	mov	r1, r3
 8001f28:	481c      	ldr	r0, [pc, #112]	@ (8001f9c <HAL_PCD_MspInit+0x124>)
 8001f2a:	f002 fa51 	bl	80043d0 <HAL_GPIO_Init>

    GPIO_InitStruct.Pin = ULPI_D1_Pin|ULPI_D2_Pin|ULPI_D3_Pin|ULPI_D4_Pin
 8001f2e:	f643 4323 	movw	r3, #15395	@ 0x3c23
 8001f32:	61fb      	str	r3, [r7, #28]
                          |ULPI_D5_Pin|ULPI_D6_Pin|ULPI_D7_Pin;
    GPIO_InitStruct.Mode = GPIO_MODE_AF_PP;
 8001f34:	2302      	movs	r3, #2
 8001f36:	623b      	str	r3, [r7, #32]
    GPIO_InitStruct.Pull = GPIO_NOPULL;
 8001f38:	2300      	movs	r3, #0
 8001f3a:	627b      	str	r3, [r7, #36]	@ 0x24
    GPIO_InitStruct.Speed = GPIO_SPEED_FREQ_VERY_HIGH;
 8001f3c:	2303      	movs	r3, #3
 8001f3e:	62bb      	str	r3, [r7, #40]	@ 0x28
    GPIO_InitStruct.Alternate = GPIO_AF10_OTG_HS;
 8001f40:	230a      	movs	r3, #10
 8001f42:	62fb      	str	r3, [r7, #44]	@ 0x2c
    HAL_GPIO_Init(GPIOB, &GPIO_InitStruct);
 8001f44:	f107 031c 	add.w	r3, r7, #28
 8001f48:	4619      	mov	r1, r3
 8001f4a:	4815      	ldr	r0, [pc, #84]	@ (8001fa0 <HAL_PCD_MspInit+0x128>)
 8001f4c:	f002 fa40 	bl	80043d0 <HAL_GPIO_Init>

    /* Peripheral clock enable */
    __HAL_RCC_USB_OTG_HS_CLK_ENABLE();
 8001f50:	2300      	movs	r3, #0
 8001f52:	60fb      	str	r3, [r7, #12]
 8001f54:	4b0f      	ldr	r3, [pc, #60]	@ (8001f94 <HAL_PCD_MspInit+0x11c>)
 8001f56:	6b1b      	ldr	r3, [r3, #48]	@ 0x30
 8001f58:	4a0e      	ldr	r2, [pc, #56]	@ (8001f94 <HAL_PCD_MspInit+0x11c>)
 8001f5a:	f043 5300 	orr.w	r3, r3, #536870912	@ 0x20000000
 8001f5e:	6313      	str	r3, [r2, #48]	@ 0x30
 8001f60:	4b0c      	ldr	r3, [pc, #48]	@ (8001f94 <HAL_PCD_MspInit+0x11c>)
 8001f62:	6b1b      	ldr	r3, [r3, #48]	@ 0x30
 8001f64:	f003 5300 	and.w	r3, r3, #536870912	@ 0x20000000
 8001f68:	60fb      	str	r3, [r7, #12]
 8001f6a:	68fb      	ldr	r3, [r7, #12]
    __HAL_RCC_USB_OTG_HS_ULPI_CLK_ENABLE();
 8001f6c:	2300      	movs	r3, #0
 8001f6e:	60bb      	str	r3, [r7, #8]
 8001f70:	4b08      	ldr	r3, [pc, #32]	@ (8001f94 <HAL_PCD_MspInit+0x11c>)
 8001f72:	6b1b      	ldr	r3, [r3, #48]	@ 0x30
 8001f74:	4a07      	ldr	r2, [pc, #28]	@ (8001f94 <HAL_PCD_MspInit+0x11c>)
 8001f76:	f043 4380 	orr.w	r3, r3, #1073741824	@ 0x40000000
 8001f7a:	6313      	str	r3, [r2, #48]	@ 0x30
 8001f7c:	4b05      	ldr	r3, [pc, #20]	@ (8001f94 <HAL_PCD_MspInit+0x11c>)
 8001f7e:	6b1b      	ldr	r3, [r3, #48]	@ 0x30
 8001f80:	f003 4380 	and.w	r3, r3, #1073741824	@ 0x40000000
 8001f84:	60bb      	str	r3, [r7, #8]
 8001f86:	68bb      	ldr	r3, [r7, #8]

    /* USER CODE END USB_OTG_HS_MspInit 1 */

  }

}
 8001f88:	bf00      	nop
 8001f8a:	3730      	adds	r7, #48	@ 0x30
 8001f8c:	46bd      	mov	sp, r7
 8001f8e:	bd80      	pop	{r7, pc}
 8001f90:	40040000 	.word	0x40040000
 8001f94:	40023800 	.word	0x40023800
 8001f98:	40020800 	.word	0x40020800
 8001f9c:	40020000 	.word	0x40020000
 8001fa0:	40020400 	.word	0x40020400

08001fa4 <NMI_Handler>:
/******************************************************************************/
/**
  * @brief This function handles Non maskable interrupt.
  */
void NMI_Handler(void)
{
 8001fa4:	b480      	push	{r7}
 8001fa6:	af00      	add	r7, sp, #0
  /* USER CODE BEGIN NonMaskableInt_IRQn 0 */

  /* USER CODE END NonMaskableInt_IRQn 0 */
  /* USER CODE BEGIN NonMaskableInt_IRQn 1 */
   while (1)
 8001fa8:	bf00      	nop
 8001faa:	e7fd      	b.n	8001fa8 <NMI_Handler+0x4>

08001fac <HardFault_Handler>:

/**
  * @brief This function handles Hard fault interrupt.
  */
void HardFault_Handler(void)
{
 8001fac:	b480      	push	{r7}
 8001fae:	af00      	add	r7, sp, #0
  /* USER CODE BEGIN HardFault_IRQn 0 */

  /* USER CODE END HardFault_IRQn 0 */
  while (1)
 8001fb0:	bf00      	nop
 8001fb2:	e7fd      	b.n	8001fb0 <HardFault_Handler+0x4>

08001fb4 <MemManage_Handler>:

/**
  * @brief This function handles Memory management fault.
  */
void MemManage_Handler(void)
{
 8001fb4:	b480      	push	{r7}
 8001fb6:	af00      	add	r7, sp, #0
  /* USER CODE BEGIN MemoryManagement_IRQn 0 */

  /* USER CODE END MemoryManagement_IRQn 0 */
  while (1)
 8001fb8:	bf00      	nop
 8001fba:	e7fd      	b.n	8001fb8 <MemManage_Handler+0x4>

08001fbc <BusFault_Handler>:

/**
  * @brief This function handles Pre-fetch fault, memory access fault.
  */
void BusFault_Handler(void)
{
 8001fbc:	b480      	push	{r7}
 8001fbe:	af00      	add	r7, sp, #0
  /* USER CODE BEGIN BusFault_IRQn 0 */

  /* USER CODE END BusFault_IRQn 0 */
  while (1)
 8001fc0:	bf00      	nop
 8001fc2:	e7fd      	b.n	8001fc0 <BusFault_Handler+0x4>

08001fc4 <UsageFault_Handler>:

/**
  * @brief This function handles Undefined instruction or illegal state.
  */
void UsageFault_Handler(void)
{
 8001fc4:	b480      	push	{r7}
 8001fc6:	af00      	add	r7, sp, #0
  /* USER CODE BEGIN UsageFault_IRQn 0 */

  /* USER CODE END UsageFault_IRQn 0 */
  while (1)
 8001fc8:	bf00      	nop
 8001fca:	e7fd      	b.n	8001fc8 <UsageFault_Handler+0x4>

08001fcc <SVC_Handler>:

/**
  * @brief This function handles System service call via SWI instruction.
  */
void SVC_Handler(void)
{
 8001fcc:	b480      	push	{r7}
 8001fce:	af00      	add	r7, sp, #0

  /* USER CODE END SVCall_IRQn 0 */
  /* USER CODE BEGIN SVCall_IRQn 1 */

  /* USER CODE END SVCall_IRQn 1 */
}
 8001fd0:	bf00      	nop
 8001fd2:	46bd      	mov	sp, r7
 8001fd4:	f85d 7b04 	ldr.w	r7, [sp], #4
 8001fd8:	4770      	bx	lr

08001fda <DebugMon_Handler>:

/**
  * @brief This function handles Debug monitor.
  */
void DebugMon_Handler(void)
{
 8001fda:	b480      	push	{r7}
 8001fdc:	af00      	add	r7, sp, #0

  /* USER CODE END DebugMonitor_IRQn 0 */
  /* USER CODE BEGIN DebugMonitor_IRQn 1 */

  /* USER CODE END DebugMonitor_IRQn 1 */
}
 8001fde:	bf00      	nop
 8001fe0:	46bd      	mov	sp, r7
 8001fe2:	f85d 7b04 	ldr.w	r7, [sp], #4
 8001fe6:	4770      	bx	lr

08001fe8 <PendSV_Handler>:

/**
  * @brief This function handles Pendable request for system service.
  */
void PendSV_Handler(void)
{
 8001fe8:	b480      	push	{r7}
 8001fea:	af00      	add	r7, sp, #0

  /* USER CODE END PendSV_IRQn 0 */
  /* USER CODE BEGIN PendSV_IRQn 1 */

  /* USER CODE END PendSV_IRQn 1 */
}
 8001fec:	bf00      	nop
 8001fee:	46bd      	mov	sp, r7
 8001ff0:	f85d 7b04 	ldr.w	r7, [sp], #4
 8001ff4:	4770      	bx	lr

08001ff6 <SysTick_Handler>:

/**
  * @brief This function handles System tick timer.
  */
void SysTick_Handler(void)
{
 8001ff6:	b580      	push	{r7, lr}
 8001ff8:	af00      	add	r7, sp, #0
  /* USER CODE BEGIN SysTick_IRQn 0 */

  /* USER CODE END SysTick_IRQn 0 */
  HAL_IncTick();
 8001ffa:	f001 ff09 	bl	8003e10 <HAL_IncTick>
  /* USER CODE BEGIN SysTick_IRQn 1 */

  /* USER CODE END SysTick_IRQn 1 */
}
 8001ffe:	bf00      	nop
 8002000:	bd80      	pop	{r7, pc}
	...

08002004 <DMA2_Stream1_IRQHandler>:

/**
  * @brief This function handles DMA2 stream1 global interrupt.
  */
void DMA2_Stream1_IRQHandler(void)
{
 8002004:	b580      	push	{r7, lr}
 8002006:	af00      	add	r7, sp, #0
  /* USER CODE BEGIN DMA2_Stream1_IRQn 0 */
  if (FMCWStream_DMA_IRQHandler() != 0U)
 8002008:	f7fe fe3e 	bl	8000c88 <FMCWStream_DMA_IRQHandler>
 800200c:	4603      	mov	r3, r0
 800200e:	2b00      	cmp	r3, #0
 8002010:	d103      	bne.n	800201a <DMA2_Stream1_IRQHandler+0x16>
  {
    return;
  }
  /* USER CODE END DMA2_Stream1_IRQn 0 */
  HAL_DMA_IRQHandler(&hdma_dcmi);
 8002012:	4803      	ldr	r0, [pc, #12]	@ (8002020 <DMA2_Stream1_IRQHandler+0x1c>)
 8002014:	f002 f852 	bl	80040bc <HAL_DMA_IRQHandler>
 8002018:	e000      	b.n	800201c <DMA2_Stream1_IRQHandler+0x18>
    return;
 800201a:	bf00      	nop
  /* USER CODE BEGIN DMA2_Stream1_IRQn 1 */

  /* USER CODE END DMA2_Stream1_IRQn 1 */
}
 800201c:	bd80      	pop	{r7, pc}
 800201e:	bf00      	nop
 8002020:	20028124 	.word	0x20028124

08002024 <EXTI9_5_IRQHandler>:

/**
  * @brief This function handles EXTI line[9:5] interrupts.
  */
void EXTI9_5_IRQHandler(void)
{
 8002024:	b580      	push	{r7, lr}
 8002026:	af00      	add	r7, sp, #0
  if (__HAL_GPIO_EXTI_GET_IT(PLL_MUXOUT_Pin) != RESET)
 8002028:	4b06      	ldr	r3, [pc, #24]	@ (8002044 <EXTI9_5_IRQHandler+0x20>)
 800202a:	695b      	ldr	r3, [r3, #20]
 800202c:	f003 0320 	and.w	r3, r3, #32
 8002030:	2b00      	cmp	r3, #0
 8002032:	d004      	beq.n	800203e <EXTI9_5_IRQHandler+0x1a>
  {
    __HAL_GPIO_EXTI_CLEAR_IT(PLL_MUXOUT_Pin);
 8002034:	4b03      	ldr	r3, [pc, #12]	@ (8002044 <EXTI9_5_IRQHandler+0x20>)
 8002036:	2220      	movs	r2, #32
 8002038:	615a      	str	r2, [r3, #20]
    FMCWStream_MuxoutIRQHandler();
 800203a:	f7fe fedd 	bl	8000df8 <FMCWStream_MuxoutIRQHandler>
  }
}
 800203e:	bf00      	nop
 8002040:	bd80      	pop	{r7, pc}
 8002042:	bf00      	nop
 8002044:	40013c00 	.word	0x40013c00

08002048 <OTG_HS_IRQHandler>:

/**
  * @brief This function handles USB On The Go HS global interrupt.
  */
void OTG_HS_IRQHandler(void)
{
 8002048:	b580      	push	{r7, lr}
 800204a:	af00      	add	r7, sp, #0
  HAL_PCD_IRQHandler(&hpcd_USB_OTG_HS);
 800204c:	4802      	ldr	r0, [pc, #8]	@ (8002058 <OTG_HS_IRQHandler+0x10>)
 800204e:	f002 fce0 	bl	8004a12 <HAL_PCD_IRQHandler>
}
 8002052:	bf00      	nop
 8002054:	bd80      	pop	{r7, pc}
 8002056:	bf00      	nop
 8002058:	20028184 	.word	0x20028184

0800205c <_read>:
  _kill(status, -1);
  while (1) {}    /* Make sure we hang here */
}

__attribute__((weak)) int _read(int file, char *ptr, int len)
{
 800205c:	b580      	push	{r7, lr}
 800205e:	b086      	sub	sp, #24
 8002060:	af00      	add	r7, sp, #0
 8002062:	60f8      	str	r0, [r7, #12]
 8002064:	60b9      	str	r1, [r7, #8]
 8002066:	607a      	str	r2, [r7, #4]
  (void)file;
  int DataIdx;

  for (DataIdx = 0; DataIdx < len; DataIdx++)
 8002068:	2300      	movs	r3, #0
 800206a:	617b      	str	r3, [r7, #20]
 800206c:	e00a      	b.n	8002084 <_read+0x28>
  {
    *ptr++ = __io_getchar();
 800206e:	f3af 8000 	nop.w
 8002072:	4601      	mov	r1, r0
 8002074:	68bb      	ldr	r3, [r7, #8]
 8002076:	1c5a      	adds	r2, r3, #1
 8002078:	60ba      	str	r2, [r7, #8]
 800207a:	b2ca      	uxtb	r2, r1
 800207c:	701a      	strb	r2, [r3, #0]
  for (DataIdx = 0; DataIdx < len; DataIdx++)
 800207e:	697b      	ldr	r3, [r7, #20]
 8002080:	3301      	adds	r3, #1
 8002082:	617b      	str	r3, [r7, #20]
 8002084:	697a      	ldr	r2, [r7, #20]
 8002086:	687b      	ldr	r3, [r7, #4]
 8002088:	429a      	cmp	r2, r3
 800208a:	dbf0      	blt.n	800206e <_read+0x12>
  }

  return len;
 800208c:	687b      	ldr	r3, [r7, #4]
}
 800208e:	4618      	mov	r0, r3
 8002090:	3718      	adds	r7, #24
 8002092:	46bd      	mov	sp, r7
 8002094:	bd80      	pop	{r7, pc}

08002096 <_write>:

__attribute__((weak)) int _write(int file, char *ptr, int len)
{
 8002096:	b580      	push	{r7, lr}
 8002098:	b086      	sub	sp, #24
 800209a:	af00      	add	r7, sp, #0
 800209c:	60f8      	str	r0, [r7, #12]
 800209e:	60b9      	str	r1, [r7, #8]
 80020a0:	607a      	str	r2, [r7, #4]
  (void)file;
  int DataIdx;

  for (DataIdx = 0; DataIdx < len; DataIdx++)
 80020a2:	2300      	movs	r3, #0
 80020a4:	617b      	str	r3, [r7, #20]
 80020a6:	e009      	b.n	80020bc <_write+0x26>
  {
    __io_putchar(*ptr++);
 80020a8:	68bb      	ldr	r3, [r7, #8]
 80020aa:	1c5a      	adds	r2, r3, #1
 80020ac:	60ba      	str	r2, [r7, #8]
 80020ae:	781b      	ldrb	r3, [r3, #0]
 80020b0:	4618      	mov	r0, r3
 80020b2:	f7ff fcb6 	bl	8001a22 <__io_putchar>
  for (DataIdx = 0; DataIdx < len; DataIdx++)
 80020b6:	697b      	ldr	r3, [r7, #20]
 80020b8:	3301      	adds	r3, #1
 80020ba:	617b      	str	r3, [r7, #20]
 80020bc:	697a      	ldr	r2, [r7, #20]
 80020be:	687b      	ldr	r3, [r7, #4]
 80020c0:	429a      	cmp	r2, r3
 80020c2:	dbf1      	blt.n	80020a8 <_write+0x12>
  }
  return len;
 80020c4:	687b      	ldr	r3, [r7, #4]
}
 80020c6:	4618      	mov	r0, r3
 80020c8:	3718      	adds	r7, #24
 80020ca:	46bd      	mov	sp, r7
 80020cc:	bd80      	pop	{r7, pc}

080020ce <_close>:

int _close(int file)
{
 80020ce:	b480      	push	{r7}
 80020d0:	b083      	sub	sp, #12
 80020d2:	af00      	add	r7, sp, #0
 80020d4:	6078      	str	r0, [r7, #4]
  (void)file;
  return -1;
 80020d6:	f04f 33ff 	mov.w	r3, #4294967295
}
 80020da:	4618      	mov	r0, r3
 80020dc:	370c      	adds	r7, #12
 80020de:	46bd      	mov	sp, r7
 80020e0:	f85d 7b04 	ldr.w	r7, [sp], #4
 80020e4:	4770      	bx	lr

080020e6 <_fstat>:


int _fstat(int file, struct stat *st)
{
 80020e6:	b480      	push	{r7}
 80020e8:	b083      	sub	sp, #12
 80020ea:	af00      	add	r7, sp, #0
 80020ec:	6078      	str	r0, [r7, #4]
 80020ee:	6039      	str	r1, [r7, #0]
  (void)file;
  st->st_mode = S_IFCHR;
 80020f0:	683b      	ldr	r3, [r7, #0]
 80020f2:	f44f 5200 	mov.w	r2, #8192	@ 0x2000
 80020f6:	605a      	str	r2, [r3, #4]
  return 0;
 80020f8:	2300      	movs	r3, #0
}
 80020fa:	4618      	mov	r0, r3
 80020fc:	370c      	adds	r7, #12
 80020fe:	46bd      	mov	sp, r7
 8002100:	f85d 7b04 	ldr.w	r7, [sp], #4
 8002104:	4770      	bx	lr

08002106 <_isatty>:

int _isatty(int file)
{
 8002106:	b480      	push	{r7}
 8002108:	b083      	sub	sp, #12
 800210a:	af00      	add	r7, sp, #0
 800210c:	6078      	str	r0, [r7, #4]
  (void)file;
  return 1;
 800210e:	2301      	movs	r3, #1
}
 8002110:	4618      	mov	r0, r3
 8002112:	370c      	adds	r7, #12
 8002114:	46bd      	mov	sp, r7
 8002116:	f85d 7b04 	ldr.w	r7, [sp], #4
 800211a:	4770      	bx	lr

0800211c <_lseek>:

int _lseek(int file, int ptr, int dir)
{
 800211c:	b480      	push	{r7}
 800211e:	b085      	sub	sp, #20
 8002120:	af00      	add	r7, sp, #0
 8002122:	60f8      	str	r0, [r7, #12]
 8002124:	60b9      	str	r1, [r7, #8]
 8002126:	607a      	str	r2, [r7, #4]
  (void)file;
  (void)ptr;
  (void)dir;
  return 0;
 8002128:	2300      	movs	r3, #0
}
 800212a:	4618      	mov	r0, r3
 800212c:	3714      	adds	r7, #20
 800212e:	46bd      	mov	sp, r7
 8002130:	f85d 7b04 	ldr.w	r7, [sp], #4
 8002134:	4770      	bx	lr
	...

08002138 <_sbrk>:
 *
 * @param incr Memory size
 * @return Pointer to allocated memory
 */
void *_sbrk(ptrdiff_t incr)
{
 8002138:	b580      	push	{r7, lr}
 800213a:	b086      	sub	sp, #24
 800213c:	af00      	add	r7, sp, #0
 800213e:	6078      	str	r0, [r7, #4]
  extern uint8_t _end; /* Symbol defined in the linker script */
  extern uint8_t _estack; /* Symbol defined in the linker script */
  extern uint32_t _Min_Stack_Size; /* Symbol defined in the linker script */
  const uint32_t stack_limit = (uint32_t)&_estack - (uint32_t)&_Min_Stack_Size;
 8002140:	4a14      	ldr	r2, [pc, #80]	@ (8002194 <_sbrk+0x5c>)
 8002142:	4b15      	ldr	r3, [pc, #84]	@ (8002198 <_sbrk+0x60>)
 8002144:	1ad3      	subs	r3, r2, r3
 8002146:	617b      	str	r3, [r7, #20]
  const uint8_t *max_heap = (uint8_t *)stack_limit;
 8002148:	697b      	ldr	r3, [r7, #20]
 800214a:	613b      	str	r3, [r7, #16]
  uint8_t *prev_heap_end;

  /* Initialize heap end at first call */
  if (NULL == __sbrk_heap_end)
 800214c:	4b13      	ldr	r3, [pc, #76]	@ (800219c <_sbrk+0x64>)
 800214e:	681b      	ldr	r3, [r3, #0]
 8002150:	2b00      	cmp	r3, #0
 8002152:	d102      	bne.n	800215a <_sbrk+0x22>
  {
    __sbrk_heap_end = &_end;
 8002154:	4b11      	ldr	r3, [pc, #68]	@ (800219c <_sbrk+0x64>)
 8002156:	4a12      	ldr	r2, [pc, #72]	@ (80021a0 <_sbrk+0x68>)
 8002158:	601a      	str	r2, [r3, #0]
  }

  /* Protect heap from growing into the reserved MSP stack */
  if (__sbrk_heap_end + incr > max_heap)
 800215a:	4b10      	ldr	r3, [pc, #64]	@ (800219c <_sbrk+0x64>)
 800215c:	681a      	ldr	r2, [r3, #0]
 800215e:	687b      	ldr	r3, [r7, #4]
 8002160:	4413      	add	r3, r2
 8002162:	693a      	ldr	r2, [r7, #16]
 8002164:	429a      	cmp	r2, r3
 8002166:	d207      	bcs.n	8002178 <_sbrk+0x40>
  {
    errno = ENOMEM;
 8002168:	f006 f9ea 	bl	8008540 <__errno>
 800216c:	4603      	mov	r3, r0
 800216e:	220c      	movs	r2, #12
 8002170:	601a      	str	r2, [r3, #0]
    return (void *)-1;
 8002172:	f04f 33ff 	mov.w	r3, #4294967295
 8002176:	e009      	b.n	800218c <_sbrk+0x54>
  }

  prev_heap_end = __sbrk_heap_end;
 8002178:	4b08      	ldr	r3, [pc, #32]	@ (800219c <_sbrk+0x64>)
 800217a:	681b      	ldr	r3, [r3, #0]
 800217c:	60fb      	str	r3, [r7, #12]
  __sbrk_heap_end += incr;
 800217e:	4b07      	ldr	r3, [pc, #28]	@ (800219c <_sbrk+0x64>)
 8002180:	681a      	ldr	r2, [r3, #0]
 8002182:	687b      	ldr	r3, [r7, #4]
 8002184:	4413      	add	r3, r2
 8002186:	4a05      	ldr	r2, [pc, #20]	@ (800219c <_sbrk+0x64>)
 8002188:	6013      	str	r3, [r2, #0]

  return (void *)prev_heap_end;
 800218a:	68fb      	ldr	r3, [r7, #12]
}
 800218c:	4618      	mov	r0, r3
 800218e:	3718      	adds	r7, #24
 8002190:	46bd      	mov	sp, r7
 8002192:	bd80      	pop	{r7, pc}
 8002194:	20030000 	.word	0x20030000
 8002198:	00001000 	.word	0x00001000
 800219c:	20028680 	.word	0x20028680
 80021a0:	20029860 	.word	0x20029860

080021a4 <SystemInit>:
  *         configuration.
  * @param  None
  * @retval None
  */
void SystemInit(void)
{
 80021a4:	b480      	push	{r7}
 80021a6:	af00      	add	r7, sp, #0
  /* FPU settings ------------------------------------------------------------*/
  #if (__FPU_PRESENT == 1) && (__FPU_USED == 1)
    SCB->CPACR |= ((3UL << 10*2)|(3UL << 11*2));  /* set CP10 and CP11 Full Access */
 80021a8:	4b08      	ldr	r3, [pc, #32]	@ (80021cc <SystemInit+0x28>)
 80021aa:	f8d3 3088 	ldr.w	r3, [r3, #136]	@ 0x88
 80021ae:	4a07      	ldr	r2, [pc, #28]	@ (80021cc <SystemInit+0x28>)
 80021b0:	f443 0370 	orr.w	r3, r3, #15728640	@ 0xf00000
 80021b4:	f8c2 3088 	str.w	r3, [r2, #136]	@ 0x88
  SystemInit_ExtMemCtl(); 
#endif /* DATA_IN_ExtSRAM || DATA_IN_ExtSDRAM */

  /* Configure the Vector Table location -------------------------------------*/
#if defined(USER_VECT_TAB_ADDRESS)
  SCB->VTOR = VECT_TAB_BASE_ADDRESS | VECT_TAB_OFFSET; /* Vector Table Relocation in Internal SRAM */
 80021b8:	4b04      	ldr	r3, [pc, #16]	@ (80021cc <SystemInit+0x28>)
 80021ba:	f04f 6200 	mov.w	r2, #134217728	@ 0x8000000
 80021be:	609a      	str	r2, [r3, #8]
#endif /* USER_VECT_TAB_ADDRESS */
}
 80021c0:	bf00      	nop
 80021c2:	46bd      	mov	sp, r7
 80021c4:	f85d 7b04 	ldr.w	r7, [sp], #4
 80021c8:	4770      	bx	lr
 80021ca:	bf00      	nop
 80021cc:	e000ed00 	.word	0xe000ed00

080021d0 <USBHSDebug_Init>:
static void USBHSDebug_PrepareTxBuffer(void);
static void USBHSDebug_QueueNextPacket(void);
static const char *USBHSDebug_SpeedName(const PCD_HandleTypeDef *hpcd);

void USBHSDebug_Init(PCD_HandleTypeDef *hpcd)
{
 80021d0:	b580      	push	{r7, lr}
 80021d2:	b082      	sub	sp, #8
 80021d4:	af00      	add	r7, sp, #0
 80021d6:	6078      	str	r0, [r7, #4]
  usb_hs_debug_pcd = hpcd;
 80021d8:	4a33      	ldr	r2, [pc, #204]	@ (80022a8 <USBHSDebug_Init+0xd8>)
 80021da:	687b      	ldr	r3, [r7, #4]
 80021dc:	6013      	str	r3, [r2, #0]
  usb_hs_debug_configuration = 0U;
 80021de:	4b33      	ldr	r3, [pc, #204]	@ (80022ac <USBHSDebug_Init+0xdc>)
 80021e0:	2200      	movs	r2, #0
 80021e2:	701a      	strb	r2, [r3, #0]
  usb_hs_debug_pending_address = 0U;
 80021e4:	4b32      	ldr	r3, [pc, #200]	@ (80022b0 <USBHSDebug_Init+0xe0>)
 80021e6:	2200      	movs	r2, #0
 80021e8:	701a      	strb	r2, [r3, #0]
  usb_hs_debug_has_pending_address = 0U;
 80021ea:	4b32      	ldr	r3, [pc, #200]	@ (80022b4 <USBHSDebug_Init+0xe4>)
 80021ec:	2200      	movs	r2, #0
 80021ee:	701a      	strb	r2, [r3, #0]
  usb_hs_debug_ep0_state = USB_HS_DEBUG_EP0_IDLE;
 80021f0:	4b31      	ldr	r3, [pc, #196]	@ (80022b8 <USBHSDebug_Init+0xe8>)
 80021f2:	2200      	movs	r2, #0
 80021f4:	701a      	strb	r2, [r3, #0]
  usb_hs_debug_stream_enabled = 0U;
 80021f6:	4b31      	ldr	r3, [pc, #196]	@ (80022bc <USBHSDebug_Init+0xec>)
 80021f8:	2200      	movs	r2, #0
 80021fa:	701a      	strb	r2, [r3, #0]
  usb_hs_debug_tx_busy = 0U;
 80021fc:	4b30      	ldr	r3, [pc, #192]	@ (80022c0 <USBHSDebug_Init+0xf0>)
 80021fe:	2200      	movs	r2, #0
 8002200:	701a      	strb	r2, [r3, #0]
  usb_hs_debug_stream_start_requested = 0U;
 8002202:	4b30      	ldr	r3, [pc, #192]	@ (80022c4 <USBHSDebug_Init+0xf4>)
 8002204:	2200      	movs	r2, #0
 8002206:	701a      	strb	r2, [r3, #0]
  usb_hs_debug_first_stream_tx_reported = 0U;
 8002208:	4b2f      	ldr	r3, [pc, #188]	@ (80022c8 <USBHSDebug_Init+0xf8>)
 800220a:	2200      	movs	r2, #0
 800220c:	701a      	strb	r2, [r3, #0]
  usb_hs_debug_sequence = 0U;
 800220e:	4b2f      	ldr	r3, [pc, #188]	@ (80022cc <USBHSDebug_Init+0xfc>)
 8002210:	2200      	movs	r2, #0
 8002212:	601a      	str	r2, [r3, #0]
  usb_hs_debug_completed_bytes = 0U;
 8002214:	492e      	ldr	r1, [pc, #184]	@ (80022d0 <USBHSDebug_Init+0x100>)
 8002216:	f04f 0200 	mov.w	r2, #0
 800221a:	f04f 0300 	mov.w	r3, #0
 800221e:	e9c1 2300 	strd	r2, r3, [r1]
  usb_hs_debug_completed_transfers = 0U;
 8002222:	4b2c      	ldr	r3, [pc, #176]	@ (80022d4 <USBHSDebug_Init+0x104>)
 8002224:	2200      	movs	r2, #0
 8002226:	601a      	str	r2, [r3, #0]
  usb_hs_debug_current_tx_data = NULL;
 8002228:	4b2b      	ldr	r3, [pc, #172]	@ (80022d8 <USBHSDebug_Init+0x108>)
 800222a:	2200      	movs	r2, #0
 800222c:	601a      	str	r2, [r3, #0]
  usb_hs_debug_current_tx_len = 0U;
 800222e:	4b2b      	ldr	r3, [pc, #172]	@ (80022dc <USBHSDebug_Init+0x10c>)
 8002230:	2200      	movs	r2, #0
 8002232:	601a      	str	r2, [r3, #0]
  usb_hs_debug_last_report_tick = HAL_GetTick();
 8002234:	f001 fe00 	bl	8003e38 <HAL_GetTick>
 8002238:	4603      	mov	r3, r0
 800223a:	4a29      	ldr	r2, [pc, #164]	@ (80022e0 <USBHSDebug_Init+0x110>)
 800223c:	6013      	str	r3, [r2, #0]
  usb_hs_debug_last_report_bytes = 0U;
 800223e:	4929      	ldr	r1, [pc, #164]	@ (80022e4 <USBHSDebug_Init+0x114>)
 8002240:	f04f 0200 	mov.w	r2, #0
 8002244:	f04f 0300 	mov.w	r3, #0
 8002248:	e9c1 2300 	strd	r2, r3, [r1]
  usb_hs_debug_setup_print_count = 0U;
 800224c:	4b26      	ldr	r3, [pc, #152]	@ (80022e8 <USBHSDebug_Init+0x118>)
 800224e:	2200      	movs	r2, #0
 8002250:	701a      	strb	r2, [r3, #0]
  usb_hs_debug_ep0_print_count = 0U;
 8002252:	4b26      	ldr	r3, [pc, #152]	@ (80022ec <USBHSDebug_Init+0x11c>)
 8002254:	2200      	movs	r2, #0
 8002256:	701a      	strb	r2, [r3, #0]
  usb_hs_debug_phy_clock_ready = 0U;
 8002258:	4b25      	ldr	r3, [pc, #148]	@ (80022f0 <USBHSDebug_Init+0x120>)
 800225a:	2200      	movs	r2, #0
 800225c:	701a      	strb	r2, [r3, #0]
  usb_hs_debug_usb_started = 0U;
 800225e:	4b25      	ldr	r3, [pc, #148]	@ (80022f4 <USBHSDebug_Init+0x124>)
 8002260:	2200      	movs	r2, #0
 8002262:	701a      	strb	r2, [r3, #0]
  USBHSDebug_PrepareTxBuffer();
 8002264:	f001 fac0 	bl	80037e8 <USBHSDebug_PrepareTxBuffer>

  printf("USB HS DEBUG BUILD: %s\r\n", USB_HS_DEBUG_BUILD_TAG);
 8002268:	4923      	ldr	r1, [pc, #140]	@ (80022f8 <USBHSDebug_Init+0x128>)
 800226a:	4824      	ldr	r0, [pc, #144]	@ (80022fc <USBHSDebug_Init+0x12c>)
 800226c:	f005 ffd2 	bl	8008214 <iprintf>
  printf("USB HS DEBUG: resetting USB3317 PHY\r\n");
 8002270:	4823      	ldr	r0, [pc, #140]	@ (8002300 <USBHSDebug_Init+0x130>)
 8002272:	f006 f837 	bl	80082e4 <puts>
  USBHSDebug_PreparePhyPinsForReset();
 8002276:	f000 fa13 	bl	80026a0 <USBHSDebug_PreparePhyPinsForReset>
  USBHSDebug_PrintUlpiPins("pins before PHY reset");
 800227a:	4822      	ldr	r0, [pc, #136]	@ (8002304 <USBHSDebug_Init+0x134>)
 800227c:	f000 fc12 	bl	8002aa4 <USBHSDebug_PrintUlpiPins>
  usb_hs_debug_phy_clock_ready = USBHSDebug_BringUpPhyClock();
 8002280:	f000 faca 	bl	8002818 <USBHSDebug_BringUpPhyClock>
 8002284:	4603      	mov	r3, r0
 8002286:	461a      	mov	r2, r3
 8002288:	4b19      	ldr	r3, [pc, #100]	@ (80022f0 <USBHSDebug_Init+0x120>)
 800228a:	701a      	strb	r2, [r3, #0]
  if (usb_hs_debug_phy_clock_ready == 0U)
 800228c:	4b18      	ldr	r3, [pc, #96]	@ (80022f0 <USBHSDebug_Init+0x120>)
 800228e:	781b      	ldrb	r3, [r3, #0]
 8002290:	2b00      	cmp	r3, #0
 8002292:	d103      	bne.n	800229c <USBHSDebug_Init+0xcc>
  {
    printf("USB HS DEBUG: ULPI clock is not running; skip USB core init\r\n");
 8002294:	481c      	ldr	r0, [pc, #112]	@ (8002308 <USBHSDebug_Init+0x138>)
 8002296:	f006 f825 	bl	80082e4 <puts>
    return;
 800229a:	e002      	b.n	80022a2 <USBHSDebug_Init+0xd2>
  }

  USBHSDebug_StartDevice(hpcd);
 800229c:	6878      	ldr	r0, [r7, #4]
 800229e:	f000 f93d 	bl	800251c <USBHSDebug_StartDevice>
}
 80022a2:	3708      	adds	r7, #8
 80022a4:	46bd      	mov	sp, r7
 80022a6:	bd80      	pop	{r7, pc}
 80022a8:	20028684 	.word	0x20028684
 80022ac:	20028688 	.word	0x20028688
 80022b0:	20028689 	.word	0x20028689
 80022b4:	2002868a 	.word	0x2002868a
 80022b8:	2002868b 	.word	0x2002868b
 80022bc:	2002868d 	.word	0x2002868d
 80022c0:	2002868c 	.word	0x2002868c
 80022c4:	200286a0 	.word	0x200286a0
 80022c8:	200286a1 	.word	0x200286a1
 80022cc:	200296f4 	.word	0x200296f4
 80022d0:	20028698 	.word	0x20028698
 80022d4:	20028690 	.word	0x20028690
 80022d8:	200286a8 	.word	0x200286a8
 80022dc:	200286a4 	.word	0x200286a4
 80022e0:	200296f8 	.word	0x200296f8
 80022e4:	20029700 	.word	0x20029700
 80022e8:	20029708 	.word	0x20029708
 80022ec:	20029709 	.word	0x20029709
 80022f0:	2002970a 	.word	0x2002970a
 80022f4:	2002970b 	.word	0x2002970b
 80022f8:	08009864 	.word	0x08009864
 80022fc:	08009888 	.word	0x08009888
 8002300:	080098a4 	.word	0x080098a4
 8002304:	080098cc 	.word	0x080098cc
 8002308:	080098e4 	.word	0x080098e4

0800230c <USBHSDebug_SetTxCallbacks>:

void USBHSDebug_SetTxCallbacks(USBHSDebug_NextTxBufferCallback next,
                               USBHSDebug_TxDoneCallback done)
{
 800230c:	b480      	push	{r7}
 800230e:	b083      	sub	sp, #12
 8002310:	af00      	add	r7, sp, #0
 8002312:	6078      	str	r0, [r7, #4]
 8002314:	6039      	str	r1, [r7, #0]
  usb_hs_debug_next_tx = next;
 8002316:	4a06      	ldr	r2, [pc, #24]	@ (8002330 <USBHSDebug_SetTxCallbacks+0x24>)
 8002318:	687b      	ldr	r3, [r7, #4]
 800231a:	6013      	str	r3, [r2, #0]
  usb_hs_debug_tx_done = done;
 800231c:	4a05      	ldr	r2, [pc, #20]	@ (8002334 <USBHSDebug_SetTxCallbacks+0x28>)
 800231e:	683b      	ldr	r3, [r7, #0]
 8002320:	6013      	str	r3, [r2, #0]
}
 8002322:	bf00      	nop
 8002324:	370c      	adds	r7, #12
 8002326:	46bd      	mov	sp, r7
 8002328:	f85d 7b04 	ldr.w	r7, [sp], #4
 800232c:	4770      	bx	lr
 800232e:	bf00      	nop
 8002330:	200286ac 	.word	0x200286ac
 8002334:	200286b0 	.word	0x200286b0

08002338 <USBHSDebug_IsConfigured>:

uint8_t USBHSDebug_IsConfigured(void)
{
 8002338:	b480      	push	{r7}
 800233a:	af00      	add	r7, sp, #0
  return (usb_hs_debug_configuration != 0U) ? 1U : 0U;
 800233c:	4b05      	ldr	r3, [pc, #20]	@ (8002354 <USBHSDebug_IsConfigured+0x1c>)
 800233e:	781b      	ldrb	r3, [r3, #0]
 8002340:	2b00      	cmp	r3, #0
 8002342:	d001      	beq.n	8002348 <USBHSDebug_IsConfigured+0x10>
 8002344:	2301      	movs	r3, #1
 8002346:	e000      	b.n	800234a <USBHSDebug_IsConfigured+0x12>
 8002348:	2300      	movs	r3, #0
}
 800234a:	4618      	mov	r0, r3
 800234c:	46bd      	mov	sp, r7
 800234e:	f85d 7b04 	ldr.w	r7, [sp], #4
 8002352:	4770      	bx	lr
 8002354:	20028688 	.word	0x20028688

08002358 <USBHSDebug_ClearStreamStartRequest>:

void USBHSDebug_ClearStreamStartRequest(void)
{
 8002358:	b480      	push	{r7}
 800235a:	af00      	add	r7, sp, #0
  usb_hs_debug_stream_start_requested = 0U;
 800235c:	4b03      	ldr	r3, [pc, #12]	@ (800236c <USBHSDebug_ClearStreamStartRequest+0x14>)
 800235e:	2200      	movs	r2, #0
 8002360:	701a      	strb	r2, [r3, #0]
}
 8002362:	bf00      	nop
 8002364:	46bd      	mov	sp, r7
 8002366:	f85d 7b04 	ldr.w	r7, [sp], #4
 800236a:	4770      	bx	lr
 800236c:	200286a0 	.word	0x200286a0

08002370 <USBHSDebug_IsStreamStartRequested>:

uint8_t USBHSDebug_IsStreamStartRequested(void)
{
 8002370:	b480      	push	{r7}
 8002372:	af00      	add	r7, sp, #0
  return (usb_hs_debug_stream_start_requested != 0U) ? 1U : 0U;
 8002374:	4b06      	ldr	r3, [pc, #24]	@ (8002390 <USBHSDebug_IsStreamStartRequested+0x20>)
 8002376:	781b      	ldrb	r3, [r3, #0]
 8002378:	b2db      	uxtb	r3, r3
 800237a:	2b00      	cmp	r3, #0
 800237c:	d001      	beq.n	8002382 <USBHSDebug_IsStreamStartRequested+0x12>
 800237e:	2301      	movs	r3, #1
 8002380:	e000      	b.n	8002384 <USBHSDebug_IsStreamStartRequested+0x14>
 8002382:	2300      	movs	r3, #0
}
 8002384:	4618      	mov	r0, r3
 8002386:	46bd      	mov	sp, r7
 8002388:	f85d 7b04 	ldr.w	r7, [sp], #4
 800238c:	4770      	bx	lr
 800238e:	bf00      	nop
 8002390:	200286a0 	.word	0x200286a0

08002394 <USBHSDebug_Task>:

void USBHSDebug_Task(void)
{
 8002394:	b5b0      	push	{r4, r5, r7, lr}
 8002396:	b08a      	sub	sp, #40	@ 0x28
 8002398:	af02      	add	r7, sp, #8
  uint32_t now = HAL_GetTick();
 800239a:	f001 fd4d 	bl	8003e38 <HAL_GetTick>
 800239e:	61f8      	str	r0, [r7, #28]
  uint32_t elapsed = now - usb_hs_debug_last_report_tick;
 80023a0:	4b4a      	ldr	r3, [pc, #296]	@ (80024cc <USBHSDebug_Task+0x138>)
 80023a2:	681b      	ldr	r3, [r3, #0]
 80023a4:	69fa      	ldr	r2, [r7, #28]
 80023a6:	1ad3      	subs	r3, r2, r3
 80023a8:	61bb      	str	r3, [r7, #24]

  if ((usb_hs_debug_stream_enabled != 0U) && (usb_hs_debug_tx_busy == 0U))
 80023aa:	4b49      	ldr	r3, [pc, #292]	@ (80024d0 <USBHSDebug_Task+0x13c>)
 80023ac:	781b      	ldrb	r3, [r3, #0]
 80023ae:	b2db      	uxtb	r3, r3
 80023b0:	2b00      	cmp	r3, #0
 80023b2:	d006      	beq.n	80023c2 <USBHSDebug_Task+0x2e>
 80023b4:	4b47      	ldr	r3, [pc, #284]	@ (80024d4 <USBHSDebug_Task+0x140>)
 80023b6:	781b      	ldrb	r3, [r3, #0]
 80023b8:	b2db      	uxtb	r3, r3
 80023ba:	2b00      	cmp	r3, #0
 80023bc:	d101      	bne.n	80023c2 <USBHSDebug_Task+0x2e>
  {
    USBHSDebug_QueueNextPacket();
 80023be:	f001 fa31 	bl	8003824 <USBHSDebug_QueueNextPacket>
  }

  if (elapsed >= 1000U)
 80023c2:	69bb      	ldr	r3, [r7, #24]
 80023c4:	f5b3 7f7a 	cmp.w	r3, #1000	@ 0x3e8
 80023c8:	d379      	bcc.n	80024be <USBHSDebug_Task+0x12a>
  __ASM volatile ("cpsid i" : : : "memory");
 80023ca:	b672      	cpsid	i
}
 80023cc:	bf00      	nop
    uint32_t transfers;
    uint32_t delta_bytes;
    uint32_t rate_mbps_x1000;

    __disable_irq();
    bytes = usb_hs_debug_completed_bytes;
 80023ce:	4b42      	ldr	r3, [pc, #264]	@ (80024d8 <USBHSDebug_Task+0x144>)
 80023d0:	e9d3 2300 	ldrd	r2, r3, [r3]
 80023d4:	e9c7 2304 	strd	r2, r3, [r7, #16]
    transfers = usb_hs_debug_completed_transfers;
 80023d8:	4b40      	ldr	r3, [pc, #256]	@ (80024dc <USBHSDebug_Task+0x148>)
 80023da:	681b      	ldr	r3, [r3, #0]
 80023dc:	60fb      	str	r3, [r7, #12]
  __ASM volatile ("cpsie i" : : : "memory");
 80023de:	b662      	cpsie	i
}
 80023e0:	bf00      	nop
    __enable_irq();

    delta_bytes = (uint32_t)(bytes - usb_hs_debug_last_report_bytes);
 80023e2:	6939      	ldr	r1, [r7, #16]
 80023e4:	4b3e      	ldr	r3, [pc, #248]	@ (80024e0 <USBHSDebug_Task+0x14c>)
 80023e6:	e9d3 2300 	ldrd	r2, r3, [r3]
 80023ea:	4613      	mov	r3, r2
 80023ec:	1acb      	subs	r3, r1, r3
 80023ee:	60bb      	str	r3, [r7, #8]
    rate_mbps_x1000 = (elapsed == 0U) ? 0U : ((delta_bytes * 8U) / elapsed);
 80023f0:	69bb      	ldr	r3, [r7, #24]
 80023f2:	2b00      	cmp	r3, #0
 80023f4:	d005      	beq.n	8002402 <USBHSDebug_Task+0x6e>
 80023f6:	68bb      	ldr	r3, [r7, #8]
 80023f8:	00da      	lsls	r2, r3, #3
 80023fa:	69bb      	ldr	r3, [r7, #24]
 80023fc:	fbb2 f3f3 	udiv	r3, r2, r3
 8002400:	e000      	b.n	8002404 <USBHSDebug_Task+0x70>
 8002402:	2300      	movs	r3, #0
 8002404:	607b      	str	r3, [r7, #4]

    if (usb_hs_debug_configuration != 0U)
 8002406:	4b37      	ldr	r3, [pc, #220]	@ (80024e4 <USBHSDebug_Task+0x150>)
 8002408:	781b      	ldrb	r3, [r3, #0]
 800240a:	2b00      	cmp	r3, #0
 800240c:	d028      	beq.n	8002460 <USBHSDebug_Task+0xcc>
    {
      printf("USB HS DEBUG: configured %s, tx=%lu KiB, transfers=%lu, rate=%lu.%03lu Mbps\r\n",
 800240e:	4b36      	ldr	r3, [pc, #216]	@ (80024e8 <USBHSDebug_Task+0x154>)
 8002410:	681b      	ldr	r3, [r3, #0]
 8002412:	4618      	mov	r0, r3
 8002414:	f001 fa70 	bl	80038f8 <USBHSDebug_SpeedName>
 8002418:	4604      	mov	r4, r0
             USBHSDebug_SpeedName(usb_hs_debug_pcd),
             (unsigned long)(bytes / 1024ULL),
 800241a:	e9d7 0104 	ldrd	r0, r1, [r7, #16]
 800241e:	f04f 0200 	mov.w	r2, #0
 8002422:	f04f 0300 	mov.w	r3, #0
 8002426:	0a82      	lsrs	r2, r0, #10
 8002428:	ea42 5281 	orr.w	r2, r2, r1, lsl #22
 800242c:	0a8b      	lsrs	r3, r1, #10
      printf("USB HS DEBUG: configured %s, tx=%lu KiB, transfers=%lu, rate=%lu.%03lu Mbps\r\n",
 800242e:	4615      	mov	r5, r2
 8002430:	687b      	ldr	r3, [r7, #4]
 8002432:	4a2e      	ldr	r2, [pc, #184]	@ (80024ec <USBHSDebug_Task+0x158>)
 8002434:	fba2 2303 	umull	r2, r3, r2, r3
 8002438:	0999      	lsrs	r1, r3, #6
 800243a:	687a      	ldr	r2, [r7, #4]
 800243c:	4b2b      	ldr	r3, [pc, #172]	@ (80024ec <USBHSDebug_Task+0x158>)
 800243e:	fba3 0302 	umull	r0, r3, r3, r2
 8002442:	099b      	lsrs	r3, r3, #6
 8002444:	f44f 707a 	mov.w	r0, #1000	@ 0x3e8
 8002448:	fb00 f303 	mul.w	r3, r0, r3
 800244c:	1ad3      	subs	r3, r2, r3
 800244e:	9301      	str	r3, [sp, #4]
 8002450:	9100      	str	r1, [sp, #0]
 8002452:	68fb      	ldr	r3, [r7, #12]
 8002454:	462a      	mov	r2, r5
 8002456:	4621      	mov	r1, r4
 8002458:	4825      	ldr	r0, [pc, #148]	@ (80024f0 <USBHSDebug_Task+0x15c>)
 800245a:	f005 fedb 	bl	8008214 <iprintf>
 800245e:	e026      	b.n	80024ae <USBHSDebug_Task+0x11a>
             (unsigned long)(rate_mbps_x1000 / 1000U),
             (unsigned long)(rate_mbps_x1000 % 1000U));
    }
    else
    {
      if (usb_hs_debug_phy_clock_ready == 0U)
 8002460:	4b24      	ldr	r3, [pc, #144]	@ (80024f4 <USBHSDebug_Task+0x160>)
 8002462:	781b      	ldrb	r3, [r3, #0]
 8002464:	2b00      	cmp	r3, #0
 8002466:	d10e      	bne.n	8002486 <USBHSDebug_Task+0xf2>
      {
        printf("USB HS DEBUG: PHY not ready, waiting for ULPI_CLK\r\n");
 8002468:	4823      	ldr	r0, [pc, #140]	@ (80024f8 <USBHSDebug_Task+0x164>)
 800246a:	f005 ff3b 	bl	80082e4 <puts>
        USBHSDebug_PrintUlpiPins("PHY not ready pins");
 800246e:	4823      	ldr	r0, [pc, #140]	@ (80024fc <USBHSDebug_Task+0x168>)
 8002470:	f000 fb18 	bl	8002aa4 <USBHSDebug_PrintUlpiPins>
        printf("USB HS DEBUG: ULPI_CLK transitions in 2 ms = %lu\r\n",
               (unsigned long)USBHSDebug_CountUlpiClockTransitions(2U));
 8002474:	2002      	movs	r0, #2
 8002476:	f000 fa39 	bl	80028ec <USBHSDebug_CountUlpiClockTransitions>
 800247a:	4603      	mov	r3, r0
        printf("USB HS DEBUG: ULPI_CLK transitions in 2 ms = %lu\r\n",
 800247c:	4619      	mov	r1, r3
 800247e:	4820      	ldr	r0, [pc, #128]	@ (8002500 <USBHSDebug_Task+0x16c>)
 8002480:	f005 fec8 	bl	8008214 <iprintf>
 8002484:	e013      	b.n	80024ae <USBHSDebug_Task+0x11a>
      }
      else
      {
        if (usb_hs_debug_usb_started == 0U)
 8002486:	4b1f      	ldr	r3, [pc, #124]	@ (8002504 <USBHSDebug_Task+0x170>)
 8002488:	781b      	ldrb	r3, [r3, #0]
 800248a:	2b00      	cmp	r3, #0
 800248c:	d109      	bne.n	80024a2 <USBHSDebug_Task+0x10e>
        {
          printf("USB HS DEBUG: USB core not started; not waiting for enumeration yet\r\n");
 800248e:	481e      	ldr	r0, [pc, #120]	@ (8002508 <USBHSDebug_Task+0x174>)
 8002490:	f005 ff28 	bl	80082e4 <puts>
          USBHSDebug_PrintUlpiPins("USB core stopped pins");
 8002494:	481d      	ldr	r0, [pc, #116]	@ (800250c <USBHSDebug_Task+0x178>)
 8002496:	f000 fb05 	bl	8002aa4 <USBHSDebug_PrintUlpiPins>
          USBHSDebug_PrintUsbCorePreflight("USB core stopped");
 800249a:	481d      	ldr	r0, [pc, #116]	@ (8002510 <USBHSDebug_Task+0x17c>)
 800249c:	f000 fe5e 	bl	800315c <USBHSDebug_PrintUsbCorePreflight>
 80024a0:	e005      	b.n	80024ae <USBHSDebug_Task+0x11a>
        }
        else
        {
          USBHSDebug_PrintCoreStatus("waiting for host enumeration");
 80024a2:	481c      	ldr	r0, [pc, #112]	@ (8002514 <USBHSDebug_Task+0x180>)
 80024a4:	f000 fe84 	bl	80031b0 <USBHSDebug_PrintCoreStatus>
          USBHSDebug_PrintUlpiRuntimeStatus("waiting PHY");
 80024a8:	481b      	ldr	r0, [pc, #108]	@ (8002518 <USBHSDebug_Task+0x184>)
 80024aa:	f000 fdc7 	bl	800303c <USBHSDebug_PrintUlpiRuntimeStatus>
        }
      }
    }

    usb_hs_debug_last_report_tick = now;
 80024ae:	4a07      	ldr	r2, [pc, #28]	@ (80024cc <USBHSDebug_Task+0x138>)
 80024b0:	69fb      	ldr	r3, [r7, #28]
 80024b2:	6013      	str	r3, [r2, #0]
    usb_hs_debug_last_report_bytes = bytes;
 80024b4:	490a      	ldr	r1, [pc, #40]	@ (80024e0 <USBHSDebug_Task+0x14c>)
 80024b6:	e9d7 2304 	ldrd	r2, r3, [r7, #16]
 80024ba:	e9c1 2300 	strd	r2, r3, [r1]
  }

  HAL_Delay(1U);
 80024be:	2001      	movs	r0, #1
 80024c0:	f001 fcc6 	bl	8003e50 <HAL_Delay>
}
 80024c4:	bf00      	nop
 80024c6:	3720      	adds	r7, #32
 80024c8:	46bd      	mov	sp, r7
 80024ca:	bdb0      	pop	{r4, r5, r7, pc}
 80024cc:	200296f8 	.word	0x200296f8
 80024d0:	2002868d 	.word	0x2002868d
 80024d4:	2002868c 	.word	0x2002868c
 80024d8:	20028698 	.word	0x20028698
 80024dc:	20028690 	.word	0x20028690
 80024e0:	20029700 	.word	0x20029700
 80024e4:	20028688 	.word	0x20028688
 80024e8:	20028684 	.word	0x20028684
 80024ec:	10624dd3 	.word	0x10624dd3
 80024f0:	08009924 	.word	0x08009924
 80024f4:	2002970a 	.word	0x2002970a
 80024f8:	08009974 	.word	0x08009974
 80024fc:	080099a8 	.word	0x080099a8
 8002500:	080099bc 	.word	0x080099bc
 8002504:	2002970b 	.word	0x2002970b
 8002508:	080099f0 	.word	0x080099f0
 800250c:	08009a38 	.word	0x08009a38
 8002510:	08009a50 	.word	0x08009a50
 8002514:	08009a64 	.word	0x08009a64
 8002518:	08009a84 	.word	0x08009a84

0800251c <USBHSDebug_StartDevice>:

static void USBHSDebug_StartDevice(PCD_HandleTypeDef *hpcd)
{
 800251c:	b580      	push	{r7, lr}
 800251e:	b082      	sub	sp, #8
 8002520:	af00      	add	r7, sp, #0
 8002522:	6078      	str	r0, [r7, #4]
  hpcd->Instance = USB_OTG_HS;
 8002524:	687b      	ldr	r3, [r7, #4]
 8002526:	4a4c      	ldr	r2, [pc, #304]	@ (8002658 <USBHSDebug_StartDevice+0x13c>)
 8002528:	601a      	str	r2, [r3, #0]
  hpcd->Init.dev_endpoints = 6U;
 800252a:	687b      	ldr	r3, [r7, #4]
 800252c:	2206      	movs	r2, #6
 800252e:	711a      	strb	r2, [r3, #4]
  hpcd->Init.speed = PCD_SPEED_HIGH;
 8002530:	687b      	ldr	r3, [r7, #4]
 8002532:	2200      	movs	r2, #0
 8002534:	71da      	strb	r2, [r3, #7]
  hpcd->Init.ep0_mps = USB_HS_DEBUG_EP0_MPS;
 8002536:	687b      	ldr	r3, [r7, #4]
 8002538:	2240      	movs	r2, #64	@ 0x40
 800253a:	721a      	strb	r2, [r3, #8]
  hpcd->Init.dma_enable = ENABLE;
 800253c:	687b      	ldr	r3, [r7, #4]
 800253e:	2201      	movs	r2, #1
 8002540:	719a      	strb	r2, [r3, #6]
  hpcd->Init.phy_itface = USB_OTG_ULPI_PHY;
 8002542:	687b      	ldr	r3, [r7, #4]
 8002544:	2201      	movs	r2, #1
 8002546:	725a      	strb	r2, [r3, #9]
  hpcd->Init.Sof_enable = DISABLE;
 8002548:	687b      	ldr	r3, [r7, #4]
 800254a:	2200      	movs	r2, #0
 800254c:	729a      	strb	r2, [r3, #10]
  hpcd->Init.low_power_enable = DISABLE;
 800254e:	687b      	ldr	r3, [r7, #4]
 8002550:	2200      	movs	r2, #0
 8002552:	72da      	strb	r2, [r3, #11]
  hpcd->Init.lpm_enable = DISABLE;
 8002554:	687b      	ldr	r3, [r7, #4]
 8002556:	2200      	movs	r2, #0
 8002558:	731a      	strb	r2, [r3, #12]
  hpcd->Init.battery_charging_enable = DISABLE;
 800255a:	687b      	ldr	r3, [r7, #4]
 800255c:	2200      	movs	r2, #0
 800255e:	735a      	strb	r2, [r3, #13]
  hpcd->Init.vbus_sensing_enable = DISABLE;
 8002560:	687b      	ldr	r3, [r7, #4]
 8002562:	2200      	movs	r2, #0
 8002564:	739a      	strb	r2, [r3, #14]
  hpcd->Init.use_dedicated_ep1 = DISABLE;
 8002566:	687b      	ldr	r3, [r7, #4]
 8002568:	2200      	movs	r2, #0
 800256a:	73da      	strb	r2, [r3, #15]
  hpcd->Init.use_external_vbus = ENABLE;
 800256c:	687b      	ldr	r3, [r7, #4]
 800256e:	2201      	movs	r2, #1
 8002570:	741a      	strb	r2, [r3, #16]

  printf("USB HS DEBUG: MSP preflight before HAL_PCD_Init\r\n");
 8002572:	483a      	ldr	r0, [pc, #232]	@ (800265c <USBHSDebug_StartDevice+0x140>)
 8002574:	f005 feb6 	bl	80082e4 <puts>
  HAL_PCD_MspInit(hpcd);
 8002578:	6878      	ldr	r0, [r7, #4]
 800257a:	f7ff fc7d 	bl	8001e78 <HAL_PCD_MspInit>
  USBHSDebug_ResetUsbCorePeripheral();
 800257e:	f000 fdd5 	bl	800312c <USBHSDebug_ResetUsbCorePeripheral>
  USBHSDebug_PrintUsbCorePreflight("after MSP preflight");
 8002582:	4837      	ldr	r0, [pc, #220]	@ (8002660 <USBHSDebug_StartDevice+0x144>)
 8002584:	f000 fdea 	bl	800315c <USBHSDebug_PrintUsbCorePreflight>

  printf("USB HS DEBUG: calling HAL_PCD_Init\r\n");
 8002588:	4836      	ldr	r0, [pc, #216]	@ (8002664 <USBHSDebug_StartDevice+0x148>)
 800258a:	f005 feab 	bl	80082e4 <puts>
  if (HAL_PCD_Init(hpcd) != HAL_OK)
 800258e:	6878      	ldr	r0, [r7, #4]
 8002590:	f002 f8fb 	bl	800478a <HAL_PCD_Init>
 8002594:	4603      	mov	r3, r0
 8002596:	2b00      	cmp	r3, #0
 8002598:	d00e      	beq.n	80025b8 <USBHSDebug_StartDevice+0x9c>
  {
    usb_hs_debug_usb_started = 0U;
 800259a:	4b33      	ldr	r3, [pc, #204]	@ (8002668 <USBHSDebug_StartDevice+0x14c>)
 800259c:	2200      	movs	r2, #0
 800259e:	701a      	strb	r2, [r3, #0]
    printf("USB HS DEBUG: HAL_PCD_Init failed\r\n");
 80025a0:	4832      	ldr	r0, [pc, #200]	@ (800266c <USBHSDebug_StartDevice+0x150>)
 80025a2:	f005 fe9f 	bl	80082e4 <puts>
    USBHSDebug_PrintUsbCorePreflight("HAL_PCD_Init failed");
 80025a6:	4832      	ldr	r0, [pc, #200]	@ (8002670 <USBHSDebug_StartDevice+0x154>)
 80025a8:	f000 fdd8 	bl	800315c <USBHSDebug_PrintUsbCorePreflight>
    USBHSDebug_PrintUlpiPins("pins after HAL_PCD_Init failure");
 80025ac:	4831      	ldr	r0, [pc, #196]	@ (8002674 <USBHSDebug_StartDevice+0x158>)
 80025ae:	f000 fa79 	bl	8002aa4 <USBHSDebug_PrintUlpiPins>
    USBHSDebug_PrintUlpiRegisters();
 80025b2:	f000 fc3f 	bl	8002e34 <USBHSDebug_PrintUlpiRegisters>
    return;
 80025b6:	e04c      	b.n	8002652 <USBHSDebug_StartDevice+0x136>
  }
  printf("USB HS DEBUG: HAL_PCD_Init complete\r\n");
 80025b8:	482f      	ldr	r0, [pc, #188]	@ (8002678 <USBHSDebug_StartDevice+0x15c>)
 80025ba:	f005 fe93 	bl	80082e4 <puts>

  USBHSDebug_PrintUlpiPins("pins after PCD init");
 80025be:	482f      	ldr	r0, [pc, #188]	@ (800267c <USBHSDebug_StartDevice+0x160>)
 80025c0:	f000 fa70 	bl	8002aa4 <USBHSDebug_PrintUlpiPins>
  USBHSDebug_ConfigureUsb3317DeviceMode();
 80025c4:	f000 fbd8 	bl	8002d78 <USBHSDebug_ConfigureUsb3317DeviceMode>
  USBHSDebug_PrintUlpiRegisters();
 80025c8:	f000 fc34 	bl	8002e34 <USBHSDebug_PrintUlpiRegisters>
  {
    USBHSDebug_RunForcedFsAttachProbe();
    USBHSDebug_RunWeakPullupProbe();
  }

  (void)HAL_PCDEx_SetRxFiFo(hpcd, USB_HS_DEBUG_RX_FIFO_WORDS);
 80025cc:	2180      	movs	r1, #128	@ 0x80
 80025ce:	6878      	ldr	r0, [r7, #4]
 80025d0:	f003 fb0d 	bl	8005bee <HAL_PCDEx_SetRxFiFo>
  (void)HAL_PCDEx_SetTxFiFo(hpcd, 0U, USB_HS_DEBUG_EP0_TX_FIFO_WORDS);
 80025d4:	2240      	movs	r2, #64	@ 0x40
 80025d6:	2100      	movs	r1, #0
 80025d8:	6878      	ldr	r0, [r7, #4]
 80025da:	f003 fac1 	bl	8005b60 <HAL_PCDEx_SetTxFiFo>
  (void)HAL_PCDEx_SetTxFiFo(hpcd, 1U, USB_HS_DEBUG_EP1_TX_FIFO_WORDS);
 80025de:	f44f 7240 	mov.w	r2, #768	@ 0x300
 80025e2:	2101      	movs	r1, #1
 80025e4:	6878      	ldr	r0, [r7, #4]
 80025e6:	f003 fabb 	bl	8005b60 <HAL_PCDEx_SetTxFiFo>

  HAL_NVIC_SetPriority(OTG_HS_IRQn, 5U, 0U);
 80025ea:	2200      	movs	r2, #0
 80025ec:	2105      	movs	r1, #5
 80025ee:	204d      	movs	r0, #77	@ 0x4d
 80025f0:	f001 fd2d 	bl	800404e <HAL_NVIC_SetPriority>
  HAL_NVIC_EnableIRQ(OTG_HS_IRQn);
 80025f4:	204d      	movs	r0, #77	@ 0x4d
 80025f6:	f001 fd46 	bl	8004086 <HAL_NVIC_EnableIRQ>

  (void)HAL_PCD_DevDisconnect(hpcd);
 80025fa:	6878      	ldr	r0, [r7, #4]
 80025fc:	f002 fecc 	bl	8005398 <HAL_PCD_DevDisconnect>
  HAL_Delay(100U);
 8002600:	2064      	movs	r0, #100	@ 0x64
 8002602:	f001 fc25 	bl	8003e50 <HAL_Delay>
  USBHSDebug_PrintCoreStatus("before connect");
 8002606:	481e      	ldr	r0, [pc, #120]	@ (8002680 <USBHSDebug_StartDevice+0x164>)
 8002608:	f000 fdd2 	bl	80031b0 <USBHSDebug_PrintCoreStatus>

  if (HAL_PCD_Start(hpcd) != HAL_OK)
 800260c:	6878      	ldr	r0, [r7, #4]
 800260e:	f002 f9cb 	bl	80049a8 <HAL_PCD_Start>
 8002612:	4603      	mov	r3, r0
 8002614:	2b00      	cmp	r3, #0
 8002616:	d009      	beq.n	800262c <USBHSDebug_StartDevice+0x110>
  {
    usb_hs_debug_usb_started = 0U;
 8002618:	4b13      	ldr	r3, [pc, #76]	@ (8002668 <USBHSDebug_StartDevice+0x14c>)
 800261a:	2200      	movs	r2, #0
 800261c:	701a      	strb	r2, [r3, #0]
    printf("USB HS DEBUG: HAL_PCD_Start failed\r\n");
 800261e:	4819      	ldr	r0, [pc, #100]	@ (8002684 <USBHSDebug_StartDevice+0x168>)
 8002620:	f005 fe60 	bl	80082e4 <puts>
    USBHSDebug_PrintUsbCorePreflight("HAL_PCD_Start failed");
 8002624:	4818      	ldr	r0, [pc, #96]	@ (8002688 <USBHSDebug_StartDevice+0x16c>)
 8002626:	f000 fd99 	bl	800315c <USBHSDebug_PrintUsbCorePreflight>
    return;
 800262a:	e012      	b.n	8002652 <USBHSDebug_StartDevice+0x136>
  }

  usb_hs_debug_usb_started = 1U;
 800262c:	4b0e      	ldr	r3, [pc, #56]	@ (8002668 <USBHSDebug_StartDevice+0x14c>)
 800262e:	2201      	movs	r2, #1
 8002630:	701a      	strb	r2, [r3, #0]
  printf("USB HS DEBUG: device started, VID=0x1209 PID=0x4158 EP_IN=0x81\r\n");
 8002632:	4816      	ldr	r0, [pc, #88]	@ (800268c <USBHSDebug_StartDevice+0x170>)
 8002634:	f005 fe56 	bl	80082e4 <puts>
  USBHSDebug_PrintUlpiPins("pins after device connect");
 8002638:	4815      	ldr	r0, [pc, #84]	@ (8002690 <USBHSDebug_StartDevice+0x174>)
 800263a:	f000 fa33 	bl	8002aa4 <USBHSDebug_PrintUlpiPins>
  USBHSDebug_PrintUlpiRuntimeStatus("after device connect");
 800263e:	4815      	ldr	r0, [pc, #84]	@ (8002694 <USBHSDebug_StartDevice+0x178>)
 8002640:	f000 fcfc 	bl	800303c <USBHSDebug_PrintUlpiRuntimeStatus>
  USBHSDebug_PrintUlpiActivity("connected ULPI activity", 5U);
 8002644:	2105      	movs	r1, #5
 8002646:	4814      	ldr	r0, [pc, #80]	@ (8002698 <USBHSDebug_StartDevice+0x17c>)
 8002648:	f000 fa6a 	bl	8002b20 <USBHSDebug_PrintUlpiActivity>
  USBHSDebug_PrintCoreStatus("after connect");
 800264c:	4813      	ldr	r0, [pc, #76]	@ (800269c <USBHSDebug_StartDevice+0x180>)
 800264e:	f000 fdaf 	bl	80031b0 <USBHSDebug_PrintCoreStatus>
}
 8002652:	3708      	adds	r7, #8
 8002654:	46bd      	mov	sp, r7
 8002656:	bd80      	pop	{r7, pc}
 8002658:	40040000 	.word	0x40040000
 800265c:	08009a90 	.word	0x08009a90
 8002660:	08009ac4 	.word	0x08009ac4
 8002664:	08009ad8 	.word	0x08009ad8
 8002668:	2002970b 	.word	0x2002970b
 800266c:	08009afc 	.word	0x08009afc
 8002670:	08009b20 	.word	0x08009b20
 8002674:	08009b34 	.word	0x08009b34
 8002678:	08009b54 	.word	0x08009b54
 800267c:	08009b7c 	.word	0x08009b7c
 8002680:	08009b90 	.word	0x08009b90
 8002684:	08009ba0 	.word	0x08009ba0
 8002688:	08009bc4 	.word	0x08009bc4
 800268c:	08009bdc 	.word	0x08009bdc
 8002690:	08009c1c 	.word	0x08009c1c
 8002694:	08009c38 	.word	0x08009c38
 8002698:	08009c50 	.word	0x08009c50
 800269c:	08009c68 	.word	0x08009c68

080026a0 <USBHSDebug_PreparePhyPinsForReset>:

static void USBHSDebug_PreparePhyPinsForReset(void)
{
 80026a0:	b580      	push	{r7, lr}
 80026a2:	b088      	sub	sp, #32
 80026a4:	af00      	add	r7, sp, #0
  GPIO_InitTypeDef gpio = {0};
 80026a6:	f107 030c 	add.w	r3, r7, #12
 80026aa:	2200      	movs	r2, #0
 80026ac:	601a      	str	r2, [r3, #0]
 80026ae:	605a      	str	r2, [r3, #4]
 80026b0:	609a      	str	r2, [r3, #8]
 80026b2:	60da      	str	r2, [r3, #12]
 80026b4:	611a      	str	r2, [r3, #16]

  __HAL_RCC_GPIOA_CLK_ENABLE();
 80026b6:	2300      	movs	r3, #0
 80026b8:	60bb      	str	r3, [r7, #8]
 80026ba:	4b30      	ldr	r3, [pc, #192]	@ (800277c <USBHSDebug_PreparePhyPinsForReset+0xdc>)
 80026bc:	6b1b      	ldr	r3, [r3, #48]	@ 0x30
 80026be:	4a2f      	ldr	r2, [pc, #188]	@ (800277c <USBHSDebug_PreparePhyPinsForReset+0xdc>)
 80026c0:	f043 0301 	orr.w	r3, r3, #1
 80026c4:	6313      	str	r3, [r2, #48]	@ 0x30
 80026c6:	4b2d      	ldr	r3, [pc, #180]	@ (800277c <USBHSDebug_PreparePhyPinsForReset+0xdc>)
 80026c8:	6b1b      	ldr	r3, [r3, #48]	@ 0x30
 80026ca:	f003 0301 	and.w	r3, r3, #1
 80026ce:	60bb      	str	r3, [r7, #8]
 80026d0:	68bb      	ldr	r3, [r7, #8]
  __HAL_RCC_GPIOB_CLK_ENABLE();
 80026d2:	2300      	movs	r3, #0
 80026d4:	607b      	str	r3, [r7, #4]
 80026d6:	4b29      	ldr	r3, [pc, #164]	@ (800277c <USBHSDebug_PreparePhyPinsForReset+0xdc>)
 80026d8:	6b1b      	ldr	r3, [r3, #48]	@ 0x30
 80026da:	4a28      	ldr	r2, [pc, #160]	@ (800277c <USBHSDebug_PreparePhyPinsForReset+0xdc>)
 80026dc:	f043 0302 	orr.w	r3, r3, #2
 80026e0:	6313      	str	r3, [r2, #48]	@ 0x30
 80026e2:	4b26      	ldr	r3, [pc, #152]	@ (800277c <USBHSDebug_PreparePhyPinsForReset+0xdc>)
 80026e4:	6b1b      	ldr	r3, [r3, #48]	@ 0x30
 80026e6:	f003 0302 	and.w	r3, r3, #2
 80026ea:	607b      	str	r3, [r7, #4]
 80026ec:	687b      	ldr	r3, [r7, #4]
  __HAL_RCC_GPIOC_CLK_ENABLE();
 80026ee:	2300      	movs	r3, #0
 80026f0:	603b      	str	r3, [r7, #0]
 80026f2:	4b22      	ldr	r3, [pc, #136]	@ (800277c <USBHSDebug_PreparePhyPinsForReset+0xdc>)
 80026f4:	6b1b      	ldr	r3, [r3, #48]	@ 0x30
 80026f6:	4a21      	ldr	r2, [pc, #132]	@ (800277c <USBHSDebug_PreparePhyPinsForReset+0xdc>)
 80026f8:	f043 0304 	orr.w	r3, r3, #4
 80026fc:	6313      	str	r3, [r2, #48]	@ 0x30
 80026fe:	4b1f      	ldr	r3, [pc, #124]	@ (800277c <USBHSDebug_PreparePhyPinsForReset+0xdc>)
 8002700:	6b1b      	ldr	r3, [r3, #48]	@ 0x30
 8002702:	f003 0304 	and.w	r3, r3, #4
 8002706:	603b      	str	r3, [r7, #0]
 8002708:	683b      	ldr	r3, [r7, #0]

  HAL_GPIO_WritePin(ULP_STP_GPIO_Port, ULP_STP_Pin, GPIO_PIN_RESET);
 800270a:	2200      	movs	r2, #0
 800270c:	2101      	movs	r1, #1
 800270e:	481c      	ldr	r0, [pc, #112]	@ (8002780 <USBHSDebug_PreparePhyPinsForReset+0xe0>)
 8002710:	f002 f822 	bl	8004758 <HAL_GPIO_WritePin>
  gpio.Pin = ULP_STP_Pin;
 8002714:	2301      	movs	r3, #1
 8002716:	60fb      	str	r3, [r7, #12]
  gpio.Mode = GPIO_MODE_OUTPUT_PP;
 8002718:	2301      	movs	r3, #1
 800271a:	613b      	str	r3, [r7, #16]
  gpio.Pull = GPIO_NOPULL;
 800271c:	2300      	movs	r3, #0
 800271e:	617b      	str	r3, [r7, #20]
  gpio.Speed = GPIO_SPEED_FREQ_VERY_HIGH;
 8002720:	2303      	movs	r3, #3
 8002722:	61bb      	str	r3, [r7, #24]
  HAL_GPIO_Init(ULP_STP_GPIO_Port, &gpio);
 8002724:	f107 030c 	add.w	r3, r7, #12
 8002728:	4619      	mov	r1, r3
 800272a:	4815      	ldr	r0, [pc, #84]	@ (8002780 <USBHSDebug_PreparePhyPinsForReset+0xe0>)
 800272c:	f001 fe50 	bl	80043d0 <HAL_GPIO_Init>

  gpio.Pin = ULPI_DIR_Pin | ULPI_NXT_Pin;
 8002730:	230c      	movs	r3, #12
 8002732:	60fb      	str	r3, [r7, #12]
  gpio.Mode = GPIO_MODE_INPUT;
 8002734:	2300      	movs	r3, #0
 8002736:	613b      	str	r3, [r7, #16]
  gpio.Pull = GPIO_NOPULL;
 8002738:	2300      	movs	r3, #0
 800273a:	617b      	str	r3, [r7, #20]
  HAL_GPIO_Init(GPIOC, &gpio);
 800273c:	f107 030c 	add.w	r3, r7, #12
 8002740:	4619      	mov	r1, r3
 8002742:	480f      	ldr	r0, [pc, #60]	@ (8002780 <USBHSDebug_PreparePhyPinsForReset+0xe0>)
 8002744:	f001 fe44 	bl	80043d0 <HAL_GPIO_Init>

  gpio.Pin = ULPI_D0_Pin | ULPI_CLK_Pin;
 8002748:	2328      	movs	r3, #40	@ 0x28
 800274a:	60fb      	str	r3, [r7, #12]
  gpio.Mode = GPIO_MODE_INPUT;
 800274c:	2300      	movs	r3, #0
 800274e:	613b      	str	r3, [r7, #16]
  HAL_GPIO_Init(GPIOA, &gpio);
 8002750:	f107 030c 	add.w	r3, r7, #12
 8002754:	4619      	mov	r1, r3
 8002756:	480b      	ldr	r0, [pc, #44]	@ (8002784 <USBHSDebug_PreparePhyPinsForReset+0xe4>)
 8002758:	f001 fe3a 	bl	80043d0 <HAL_GPIO_Init>

  gpio.Pin = ULPI_D1_Pin | ULPI_D2_Pin | ULPI_D3_Pin | ULPI_D4_Pin |
 800275c:	f643 4323 	movw	r3, #15395	@ 0x3c23
 8002760:	60fb      	str	r3, [r7, #12]
             ULPI_D5_Pin | ULPI_D6_Pin | ULPI_D7_Pin;
  gpio.Mode = GPIO_MODE_INPUT;
 8002762:	2300      	movs	r3, #0
 8002764:	613b      	str	r3, [r7, #16]
  HAL_GPIO_Init(GPIOB, &gpio);
 8002766:	f107 030c 	add.w	r3, r7, #12
 800276a:	4619      	mov	r1, r3
 800276c:	4806      	ldr	r0, [pc, #24]	@ (8002788 <USBHSDebug_PreparePhyPinsForReset+0xe8>)
 800276e:	f001 fe2f 	bl	80043d0 <HAL_GPIO_Init>
}
 8002772:	bf00      	nop
 8002774:	3720      	adds	r7, #32
 8002776:	46bd      	mov	sp, r7
 8002778:	bd80      	pop	{r7, pc}
 800277a:	bf00      	nop
 800277c:	40023800 	.word	0x40023800
 8002780:	40020800 	.word	0x40020800
 8002784:	40020000 	.word	0x40020000
 8002788:	40020400 	.word	0x40020400

0800278c <USBHSDebug_ResetPhy>:

static void USBHSDebug_ResetPhy(void)
{
 800278c:	b580      	push	{r7, lr}
 800278e:	b086      	sub	sp, #24
 8002790:	af00      	add	r7, sp, #0
  GPIO_InitTypeDef gpio = {0};
 8002792:	1d3b      	adds	r3, r7, #4
 8002794:	2200      	movs	r2, #0
 8002796:	601a      	str	r2, [r3, #0]
 8002798:	605a      	str	r2, [r3, #4]
 800279a:	609a      	str	r2, [r3, #8]
 800279c:	60da      	str	r2, [r3, #12]
 800279e:	611a      	str	r2, [r3, #16]

  __HAL_RCC_GPIOE_CLK_ENABLE();
 80027a0:	2300      	movs	r3, #0
 80027a2:	603b      	str	r3, [r7, #0]
 80027a4:	4b19      	ldr	r3, [pc, #100]	@ (800280c <USBHSDebug_ResetPhy+0x80>)
 80027a6:	6b1b      	ldr	r3, [r3, #48]	@ 0x30
 80027a8:	4a18      	ldr	r2, [pc, #96]	@ (800280c <USBHSDebug_ResetPhy+0x80>)
 80027aa:	f043 0310 	orr.w	r3, r3, #16
 80027ae:	6313      	str	r3, [r2, #48]	@ 0x30
 80027b0:	4b16      	ldr	r3, [pc, #88]	@ (800280c <USBHSDebug_ResetPhy+0x80>)
 80027b2:	6b1b      	ldr	r3, [r3, #48]	@ 0x30
 80027b4:	f003 0310 	and.w	r3, r3, #16
 80027b8:	603b      	str	r3, [r7, #0]
 80027ba:	683b      	ldr	r3, [r7, #0]

  HAL_GPIO_WritePin(USB_RESET_GPIO_Port, USB_RESET_Pin, GPIO_PIN_RESET);
 80027bc:	2200      	movs	r2, #0
 80027be:	f44f 5100 	mov.w	r1, #8192	@ 0x2000
 80027c2:	4813      	ldr	r0, [pc, #76]	@ (8002810 <USBHSDebug_ResetPhy+0x84>)
 80027c4:	f001 ffc8 	bl	8004758 <HAL_GPIO_WritePin>
  gpio.Pin = USB_RESET_Pin;
 80027c8:	f44f 5300 	mov.w	r3, #8192	@ 0x2000
 80027cc:	607b      	str	r3, [r7, #4]
  gpio.Mode = GPIO_MODE_OUTPUT_PP;
 80027ce:	2301      	movs	r3, #1
 80027d0:	60bb      	str	r3, [r7, #8]
  gpio.Pull = GPIO_NOPULL;
 80027d2:	2300      	movs	r3, #0
 80027d4:	60fb      	str	r3, [r7, #12]
  gpio.Speed = GPIO_SPEED_FREQ_LOW;
 80027d6:	2300      	movs	r3, #0
 80027d8:	613b      	str	r3, [r7, #16]
  HAL_GPIO_Init(USB_RESET_GPIO_Port, &gpio);
 80027da:	1d3b      	adds	r3, r7, #4
 80027dc:	4619      	mov	r1, r3
 80027de:	480c      	ldr	r0, [pc, #48]	@ (8002810 <USBHSDebug_ResetPhy+0x84>)
 80027e0:	f001 fdf6 	bl	80043d0 <HAL_GPIO_Init>

  USBHSDebug_PrintUlpiPins("pins while PHY reset asserted");
 80027e4:	480b      	ldr	r0, [pc, #44]	@ (8002814 <USBHSDebug_ResetPhy+0x88>)
 80027e6:	f000 f95d 	bl	8002aa4 <USBHSDebug_PrintUlpiPins>
  HAL_Delay(10U);
 80027ea:	200a      	movs	r0, #10
 80027ec:	f001 fb30 	bl	8003e50 <HAL_Delay>
  HAL_GPIO_WritePin(USB_RESET_GPIO_Port, USB_RESET_Pin, GPIO_PIN_SET);
 80027f0:	2201      	movs	r2, #1
 80027f2:	f44f 5100 	mov.w	r1, #8192	@ 0x2000
 80027f6:	4806      	ldr	r0, [pc, #24]	@ (8002810 <USBHSDebug_ResetPhy+0x84>)
 80027f8:	f001 ffae 	bl	8004758 <HAL_GPIO_WritePin>
  HAL_Delay(10U);
 80027fc:	200a      	movs	r0, #10
 80027fe:	f001 fb27 	bl	8003e50 <HAL_Delay>
}
 8002802:	bf00      	nop
 8002804:	3718      	adds	r7, #24
 8002806:	46bd      	mov	sp, r7
 8002808:	bd80      	pop	{r7, pc}
 800280a:	bf00      	nop
 800280c:	40023800 	.word	0x40023800
 8002810:	40021000 	.word	0x40021000
 8002814:	08009c78 	.word	0x08009c78

08002818 <USBHSDebug_BringUpPhyClock>:

static uint8_t USBHSDebug_BringUpPhyClock(void)
{
 8002818:	b580      	push	{r7, lr}
 800281a:	b082      	sub	sp, #8
 800281c:	af00      	add	r7, sp, #0
  uint32_t transitions;

  for (uint32_t attempt = 1U; attempt <= 3U; ++attempt)
 800281e:	2301      	movs	r3, #1
 8002820:	607b      	str	r3, [r7, #4]
 8002822:	e01c      	b.n	800285e <USBHSDebug_BringUpPhyClock+0x46>
  {
    USBHSDebug_ResetPhy();
 8002824:	f7ff ffb2 	bl	800278c <USBHSDebug_ResetPhy>
    HAL_Delay(50U);
 8002828:	2032      	movs	r0, #50	@ 0x32
 800282a:	f001 fb11 	bl	8003e50 <HAL_Delay>
    USBHSDebug_PrintUlpiPins("pins after PHY reset release");
 800282e:	481e      	ldr	r0, [pc, #120]	@ (80028a8 <USBHSDebug_BringUpPhyClock+0x90>)
 8002830:	f000 f938 	bl	8002aa4 <USBHSDebug_PrintUlpiPins>
    USBHSDebug_PrintUlpiActivity("post-reset ULPI activity", 5U);
 8002834:	2105      	movs	r1, #5
 8002836:	481d      	ldr	r0, [pc, #116]	@ (80028ac <USBHSDebug_BringUpPhyClock+0x94>)
 8002838:	f000 f972 	bl	8002b20 <USBHSDebug_PrintUlpiActivity>
    transitions = USBHSDebug_CountUlpiClockTransitions(2U);
 800283c:	2002      	movs	r0, #2
 800283e:	f000 f855 	bl	80028ec <USBHSDebug_CountUlpiClockTransitions>
 8002842:	6038      	str	r0, [r7, #0]
    printf("USB HS DEBUG: ULPI_CLK transitions in 2 ms attempt=%lu count=%lu\r\n",
 8002844:	683a      	ldr	r2, [r7, #0]
 8002846:	6879      	ldr	r1, [r7, #4]
 8002848:	4819      	ldr	r0, [pc, #100]	@ (80028b0 <USBHSDebug_BringUpPhyClock+0x98>)
 800284a:	f005 fce3 	bl	8008214 <iprintf>
           (unsigned long)attempt,
           (unsigned long)transitions);

    if (transitions != 0U)
 800284e:	683b      	ldr	r3, [r7, #0]
 8002850:	2b00      	cmp	r3, #0
 8002852:	d001      	beq.n	8002858 <USBHSDebug_BringUpPhyClock+0x40>
    {
      return 1U;
 8002854:	2301      	movs	r3, #1
 8002856:	e022      	b.n	800289e <USBHSDebug_BringUpPhyClock+0x86>
  for (uint32_t attempt = 1U; attempt <= 3U; ++attempt)
 8002858:	687b      	ldr	r3, [r7, #4]
 800285a:	3301      	adds	r3, #1
 800285c:	607b      	str	r3, [r7, #4]
 800285e:	687b      	ldr	r3, [r7, #4]
 8002860:	2b03      	cmp	r3, #3
 8002862:	d9df      	bls.n	8002824 <USBHSDebug_BringUpPhyClock+0xc>
    }
  }

  printf("USB HS DEBUG: trying STP wake pulse after reset attempts\r\n");
 8002864:	4813      	ldr	r0, [pc, #76]	@ (80028b4 <USBHSDebug_BringUpPhyClock+0x9c>)
 8002866:	f005 fd3d 	bl	80082e4 <puts>
  USBHSDebug_PulseStpWake();
 800286a:	f000 f82b 	bl	80028c4 <USBHSDebug_PulseStpWake>
  HAL_Delay(20U);
 800286e:	2014      	movs	r0, #20
 8002870:	f001 faee 	bl	8003e50 <HAL_Delay>
  USBHSDebug_PrintUlpiPins("pins after STP wake");
 8002874:	4810      	ldr	r0, [pc, #64]	@ (80028b8 <USBHSDebug_BringUpPhyClock+0xa0>)
 8002876:	f000 f915 	bl	8002aa4 <USBHSDebug_PrintUlpiPins>
  USBHSDebug_PrintUlpiActivity("post-STP-wake ULPI activity", 5U);
 800287a:	2105      	movs	r1, #5
 800287c:	480f      	ldr	r0, [pc, #60]	@ (80028bc <USBHSDebug_BringUpPhyClock+0xa4>)
 800287e:	f000 f94f 	bl	8002b20 <USBHSDebug_PrintUlpiActivity>
  transitions = USBHSDebug_CountUlpiClockTransitions(2U);
 8002882:	2002      	movs	r0, #2
 8002884:	f000 f832 	bl	80028ec <USBHSDebug_CountUlpiClockTransitions>
 8002888:	6038      	str	r0, [r7, #0]
  printf("USB HS DEBUG: ULPI_CLK transitions in 2 ms after STP wake count=%lu\r\n",
 800288a:	6839      	ldr	r1, [r7, #0]
 800288c:	480c      	ldr	r0, [pc, #48]	@ (80028c0 <USBHSDebug_BringUpPhyClock+0xa8>)
 800288e:	f005 fcc1 	bl	8008214 <iprintf>
         (unsigned long)transitions);
  if (transitions != 0U)
 8002892:	683b      	ldr	r3, [r7, #0]
 8002894:	2b00      	cmp	r3, #0
 8002896:	d001      	beq.n	800289c <USBHSDebug_BringUpPhyClock+0x84>
  {
    return 1U;
 8002898:	2301      	movs	r3, #1
 800289a:	e000      	b.n	800289e <USBHSDebug_BringUpPhyClock+0x86>
  }

  return 0U;
 800289c:	2300      	movs	r3, #0
}
 800289e:	4618      	mov	r0, r3
 80028a0:	3708      	adds	r7, #8
 80028a2:	46bd      	mov	sp, r7
 80028a4:	bd80      	pop	{r7, pc}
 80028a6:	bf00      	nop
 80028a8:	08009c98 	.word	0x08009c98
 80028ac:	08009cb8 	.word	0x08009cb8
 80028b0:	08009cd4 	.word	0x08009cd4
 80028b4:	08009d18 	.word	0x08009d18
 80028b8:	08009d54 	.word	0x08009d54
 80028bc:	08009d68 	.word	0x08009d68
 80028c0:	08009d84 	.word	0x08009d84

080028c4 <USBHSDebug_PulseStpWake>:

static void USBHSDebug_PulseStpWake(void)
{
 80028c4:	b580      	push	{r7, lr}
 80028c6:	af00      	add	r7, sp, #0
  HAL_GPIO_WritePin(ULP_STP_GPIO_Port, ULP_STP_Pin, GPIO_PIN_SET);
 80028c8:	2201      	movs	r2, #1
 80028ca:	2101      	movs	r1, #1
 80028cc:	4806      	ldr	r0, [pc, #24]	@ (80028e8 <USBHSDebug_PulseStpWake+0x24>)
 80028ce:	f001 ff43 	bl	8004758 <HAL_GPIO_WritePin>
  HAL_Delay(2U);
 80028d2:	2002      	movs	r0, #2
 80028d4:	f001 fabc 	bl	8003e50 <HAL_Delay>
  HAL_GPIO_WritePin(ULP_STP_GPIO_Port, ULP_STP_Pin, GPIO_PIN_RESET);
 80028d8:	2200      	movs	r2, #0
 80028da:	2101      	movs	r1, #1
 80028dc:	4802      	ldr	r0, [pc, #8]	@ (80028e8 <USBHSDebug_PulseStpWake+0x24>)
 80028de:	f001 ff3b 	bl	8004758 <HAL_GPIO_WritePin>
}
 80028e2:	bf00      	nop
 80028e4:	bd80      	pop	{r7, pc}
 80028e6:	bf00      	nop
 80028e8:	40020800 	.word	0x40020800

080028ec <USBHSDebug_CountUlpiClockTransitions>:

static uint32_t USBHSDebug_CountUlpiClockTransitions(uint32_t sample_ms)
{
 80028ec:	b580      	push	{r7, lr}
 80028ee:	b08c      	sub	sp, #48	@ 0x30
 80028f0:	af00      	add	r7, sp, #0
 80028f2:	6078      	str	r0, [r7, #4]
  GPIO_InitTypeDef gpio = {0};
 80028f4:	f107 030c 	add.w	r3, r7, #12
 80028f8:	2200      	movs	r2, #0
 80028fa:	601a      	str	r2, [r3, #0]
 80028fc:	605a      	str	r2, [r3, #4]
 80028fe:	609a      	str	r2, [r3, #8]
 8002900:	60da      	str	r2, [r3, #12]
 8002902:	611a      	str	r2, [r3, #16]
  uint32_t start;
  uint32_t transitions = 0U;
 8002904:	2300      	movs	r3, #0
 8002906:	62fb      	str	r3, [r7, #44]	@ 0x2c
  GPIO_PinState last;

  __HAL_RCC_GPIOA_CLK_ENABLE();
 8002908:	2300      	movs	r3, #0
 800290a:	60bb      	str	r3, [r7, #8]
 800290c:	4b22      	ldr	r3, [pc, #136]	@ (8002998 <USBHSDebug_CountUlpiClockTransitions+0xac>)
 800290e:	6b1b      	ldr	r3, [r3, #48]	@ 0x30
 8002910:	4a21      	ldr	r2, [pc, #132]	@ (8002998 <USBHSDebug_CountUlpiClockTransitions+0xac>)
 8002912:	f043 0301 	orr.w	r3, r3, #1
 8002916:	6313      	str	r3, [r2, #48]	@ 0x30
 8002918:	4b1f      	ldr	r3, [pc, #124]	@ (8002998 <USBHSDebug_CountUlpiClockTransitions+0xac>)
 800291a:	6b1b      	ldr	r3, [r3, #48]	@ 0x30
 800291c:	f003 0301 	and.w	r3, r3, #1
 8002920:	60bb      	str	r3, [r7, #8]
 8002922:	68bb      	ldr	r3, [r7, #8]

  gpio.Pin = ULPI_CLK_Pin;
 8002924:	2320      	movs	r3, #32
 8002926:	60fb      	str	r3, [r7, #12]
  gpio.Mode = GPIO_MODE_INPUT;
 8002928:	2300      	movs	r3, #0
 800292a:	613b      	str	r3, [r7, #16]
  gpio.Pull = GPIO_NOPULL;
 800292c:	2300      	movs	r3, #0
 800292e:	617b      	str	r3, [r7, #20]
  gpio.Speed = GPIO_SPEED_FREQ_VERY_HIGH;
 8002930:	2303      	movs	r3, #3
 8002932:	61bb      	str	r3, [r7, #24]
  HAL_GPIO_Init(ULPI_CLK_GPIO_Port, &gpio);
 8002934:	f107 030c 	add.w	r3, r7, #12
 8002938:	4619      	mov	r1, r3
 800293a:	4818      	ldr	r0, [pc, #96]	@ (800299c <USBHSDebug_CountUlpiClockTransitions+0xb0>)
 800293c:	f001 fd48 	bl	80043d0 <HAL_GPIO_Init>

  last = HAL_GPIO_ReadPin(ULPI_CLK_GPIO_Port, ULPI_CLK_Pin);
 8002940:	2120      	movs	r1, #32
 8002942:	4816      	ldr	r0, [pc, #88]	@ (800299c <USBHSDebug_CountUlpiClockTransitions+0xb0>)
 8002944:	f001 fef0 	bl	8004728 <HAL_GPIO_ReadPin>
 8002948:	4603      	mov	r3, r0
 800294a:	f887 302b 	strb.w	r3, [r7, #43]	@ 0x2b
  start = HAL_GetTick();
 800294e:	f001 fa73 	bl	8003e38 <HAL_GetTick>
 8002952:	6278      	str	r0, [r7, #36]	@ 0x24
  while ((HAL_GetTick() - start) < sample_ms)
 8002954:	e013      	b.n	800297e <USBHSDebug_CountUlpiClockTransitions+0x92>
  {
    GPIO_PinState now = HAL_GPIO_ReadPin(ULPI_CLK_GPIO_Port, ULPI_CLK_Pin);
 8002956:	2120      	movs	r1, #32
 8002958:	4810      	ldr	r0, [pc, #64]	@ (800299c <USBHSDebug_CountUlpiClockTransitions+0xb0>)
 800295a:	f001 fee5 	bl	8004728 <HAL_GPIO_ReadPin>
 800295e:	4603      	mov	r3, r0
 8002960:	f887 3023 	strb.w	r3, [r7, #35]	@ 0x23
    if (now != last)
 8002964:	f897 2023 	ldrb.w	r2, [r7, #35]	@ 0x23
 8002968:	f897 302b 	ldrb.w	r3, [r7, #43]	@ 0x2b
 800296c:	429a      	cmp	r2, r3
 800296e:	d006      	beq.n	800297e <USBHSDebug_CountUlpiClockTransitions+0x92>
    {
      ++transitions;
 8002970:	6afb      	ldr	r3, [r7, #44]	@ 0x2c
 8002972:	3301      	adds	r3, #1
 8002974:	62fb      	str	r3, [r7, #44]	@ 0x2c
      last = now;
 8002976:	f897 3023 	ldrb.w	r3, [r7, #35]	@ 0x23
 800297a:	f887 302b 	strb.w	r3, [r7, #43]	@ 0x2b
  while ((HAL_GetTick() - start) < sample_ms)
 800297e:	f001 fa5b 	bl	8003e38 <HAL_GetTick>
 8002982:	4602      	mov	r2, r0
 8002984:	6a7b      	ldr	r3, [r7, #36]	@ 0x24
 8002986:	1ad3      	subs	r3, r2, r3
 8002988:	687a      	ldr	r2, [r7, #4]
 800298a:	429a      	cmp	r2, r3
 800298c:	d8e3      	bhi.n	8002956 <USBHSDebug_CountUlpiClockTransitions+0x6a>
    }
  }

  return transitions;
 800298e:	6afb      	ldr	r3, [r7, #44]	@ 0x2c
}
 8002990:	4618      	mov	r0, r3
 8002992:	3730      	adds	r7, #48	@ 0x30
 8002994:	46bd      	mov	sp, r7
 8002996:	bd80      	pop	{r7, pc}
 8002998:	40023800 	.word	0x40023800
 800299c:	40020000 	.word	0x40020000

080029a0 <USBHSDebug_ReadUlpiDataBus>:

static uint8_t USBHSDebug_ReadUlpiDataBus(void)
{
 80029a0:	b580      	push	{r7, lr}
 80029a2:	b082      	sub	sp, #8
 80029a4:	af00      	add	r7, sp, #0
  uint8_t value = 0U;
 80029a6:	2300      	movs	r3, #0
 80029a8:	71fb      	strb	r3, [r7, #7]

  value |= (HAL_GPIO_ReadPin(ULPI_D0_GPIO_Port, ULPI_D0_Pin) == GPIO_PIN_SET) ? (1U << 0) : 0U;
 80029aa:	2108      	movs	r1, #8
 80029ac:	483b      	ldr	r0, [pc, #236]	@ (8002a9c <USBHSDebug_ReadUlpiDataBus+0xfc>)
 80029ae:	f001 febb 	bl	8004728 <HAL_GPIO_ReadPin>
 80029b2:	4603      	mov	r3, r0
 80029b4:	2b01      	cmp	r3, #1
 80029b6:	d101      	bne.n	80029bc <USBHSDebug_ReadUlpiDataBus+0x1c>
 80029b8:	2301      	movs	r3, #1
 80029ba:	e000      	b.n	80029be <USBHSDebug_ReadUlpiDataBus+0x1e>
 80029bc:	2300      	movs	r3, #0
 80029be:	b2da      	uxtb	r2, r3
 80029c0:	79fb      	ldrb	r3, [r7, #7]
 80029c2:	4313      	orrs	r3, r2
 80029c4:	71fb      	strb	r3, [r7, #7]
  value |= (HAL_GPIO_ReadPin(ULPI_D1_GPIO_Port, ULPI_D1_Pin) == GPIO_PIN_SET) ? (1U << 1) : 0U;
 80029c6:	2101      	movs	r1, #1
 80029c8:	4835      	ldr	r0, [pc, #212]	@ (8002aa0 <USBHSDebug_ReadUlpiDataBus+0x100>)
 80029ca:	f001 fead 	bl	8004728 <HAL_GPIO_ReadPin>
 80029ce:	4603      	mov	r3, r0
 80029d0:	2b01      	cmp	r3, #1
 80029d2:	d101      	bne.n	80029d8 <USBHSDebug_ReadUlpiDataBus+0x38>
 80029d4:	2302      	movs	r3, #2
 80029d6:	e000      	b.n	80029da <USBHSDebug_ReadUlpiDataBus+0x3a>
 80029d8:	2300      	movs	r3, #0
 80029da:	b2da      	uxtb	r2, r3
 80029dc:	79fb      	ldrb	r3, [r7, #7]
 80029de:	4313      	orrs	r3, r2
 80029e0:	71fb      	strb	r3, [r7, #7]
  value |= (HAL_GPIO_ReadPin(ULPI_D2_GPIO_Port, ULPI_D2_Pin) == GPIO_PIN_SET) ? (1U << 2) : 0U;
 80029e2:	2102      	movs	r1, #2
 80029e4:	482e      	ldr	r0, [pc, #184]	@ (8002aa0 <USBHSDebug_ReadUlpiDataBus+0x100>)
 80029e6:	f001 fe9f 	bl	8004728 <HAL_GPIO_ReadPin>
 80029ea:	4603      	mov	r3, r0
 80029ec:	2b01      	cmp	r3, #1
 80029ee:	d101      	bne.n	80029f4 <USBHSDebug_ReadUlpiDataBus+0x54>
 80029f0:	2304      	movs	r3, #4
 80029f2:	e000      	b.n	80029f6 <USBHSDebug_ReadUlpiDataBus+0x56>
 80029f4:	2300      	movs	r3, #0
 80029f6:	b2da      	uxtb	r2, r3
 80029f8:	79fb      	ldrb	r3, [r7, #7]
 80029fa:	4313      	orrs	r3, r2
 80029fc:	71fb      	strb	r3, [r7, #7]
  value |= (HAL_GPIO_ReadPin(ULPI_D3_GPIO_Port, ULPI_D3_Pin) == GPIO_PIN_SET) ? (1U << 3) : 0U;
 80029fe:	f44f 6180 	mov.w	r1, #1024	@ 0x400
 8002a02:	4827      	ldr	r0, [pc, #156]	@ (8002aa0 <USBHSDebug_ReadUlpiDataBus+0x100>)
 8002a04:	f001 fe90 	bl	8004728 <HAL_GPIO_ReadPin>
 8002a08:	4603      	mov	r3, r0
 8002a0a:	2b01      	cmp	r3, #1
 8002a0c:	d101      	bne.n	8002a12 <USBHSDebug_ReadUlpiDataBus+0x72>
 8002a0e:	2308      	movs	r3, #8
 8002a10:	e000      	b.n	8002a14 <USBHSDebug_ReadUlpiDataBus+0x74>
 8002a12:	2300      	movs	r3, #0
 8002a14:	b2da      	uxtb	r2, r3
 8002a16:	79fb      	ldrb	r3, [r7, #7]
 8002a18:	4313      	orrs	r3, r2
 8002a1a:	71fb      	strb	r3, [r7, #7]
  value |= (HAL_GPIO_ReadPin(ULPI_D4_GPIO_Port, ULPI_D4_Pin) == GPIO_PIN_SET) ? (1U << 4) : 0U;
 8002a1c:	f44f 6100 	mov.w	r1, #2048	@ 0x800
 8002a20:	481f      	ldr	r0, [pc, #124]	@ (8002aa0 <USBHSDebug_ReadUlpiDataBus+0x100>)
 8002a22:	f001 fe81 	bl	8004728 <HAL_GPIO_ReadPin>
 8002a26:	4603      	mov	r3, r0
 8002a28:	2b01      	cmp	r3, #1
 8002a2a:	d101      	bne.n	8002a30 <USBHSDebug_ReadUlpiDataBus+0x90>
 8002a2c:	2310      	movs	r3, #16
 8002a2e:	e000      	b.n	8002a32 <USBHSDebug_ReadUlpiDataBus+0x92>
 8002a30:	2300      	movs	r3, #0
 8002a32:	b2da      	uxtb	r2, r3
 8002a34:	79fb      	ldrb	r3, [r7, #7]
 8002a36:	4313      	orrs	r3, r2
 8002a38:	71fb      	strb	r3, [r7, #7]
  value |= (HAL_GPIO_ReadPin(ULPI_D5_GPIO_Port, ULPI_D5_Pin) == GPIO_PIN_SET) ? (1U << 5) : 0U;
 8002a3a:	f44f 5180 	mov.w	r1, #4096	@ 0x1000
 8002a3e:	4818      	ldr	r0, [pc, #96]	@ (8002aa0 <USBHSDebug_ReadUlpiDataBus+0x100>)
 8002a40:	f001 fe72 	bl	8004728 <HAL_GPIO_ReadPin>
 8002a44:	4603      	mov	r3, r0
 8002a46:	2b01      	cmp	r3, #1
 8002a48:	d101      	bne.n	8002a4e <USBHSDebug_ReadUlpiDataBus+0xae>
 8002a4a:	2320      	movs	r3, #32
 8002a4c:	e000      	b.n	8002a50 <USBHSDebug_ReadUlpiDataBus+0xb0>
 8002a4e:	2300      	movs	r3, #0
 8002a50:	b2da      	uxtb	r2, r3
 8002a52:	79fb      	ldrb	r3, [r7, #7]
 8002a54:	4313      	orrs	r3, r2
 8002a56:	71fb      	strb	r3, [r7, #7]
  value |= (HAL_GPIO_ReadPin(ULPI_D6_GPIO_Port, ULPI_D6_Pin) == GPIO_PIN_SET) ? (1U << 6) : 0U;
 8002a58:	f44f 5100 	mov.w	r1, #8192	@ 0x2000
 8002a5c:	4810      	ldr	r0, [pc, #64]	@ (8002aa0 <USBHSDebug_ReadUlpiDataBus+0x100>)
 8002a5e:	f001 fe63 	bl	8004728 <HAL_GPIO_ReadPin>
 8002a62:	4603      	mov	r3, r0
 8002a64:	2b01      	cmp	r3, #1
 8002a66:	d101      	bne.n	8002a6c <USBHSDebug_ReadUlpiDataBus+0xcc>
 8002a68:	2340      	movs	r3, #64	@ 0x40
 8002a6a:	e000      	b.n	8002a6e <USBHSDebug_ReadUlpiDataBus+0xce>
 8002a6c:	2300      	movs	r3, #0
 8002a6e:	b2da      	uxtb	r2, r3
 8002a70:	79fb      	ldrb	r3, [r7, #7]
 8002a72:	4313      	orrs	r3, r2
 8002a74:	71fb      	strb	r3, [r7, #7]
  value |= (HAL_GPIO_ReadPin(ULPI_D7_GPIO_Port, ULPI_D7_Pin) == GPIO_PIN_SET) ? (1U << 7) : 0U;
 8002a76:	2120      	movs	r1, #32
 8002a78:	4809      	ldr	r0, [pc, #36]	@ (8002aa0 <USBHSDebug_ReadUlpiDataBus+0x100>)
 8002a7a:	f001 fe55 	bl	8004728 <HAL_GPIO_ReadPin>
 8002a7e:	4603      	mov	r3, r0
 8002a80:	2b01      	cmp	r3, #1
 8002a82:	d101      	bne.n	8002a88 <USBHSDebug_ReadUlpiDataBus+0xe8>
 8002a84:	2380      	movs	r3, #128	@ 0x80
 8002a86:	e000      	b.n	8002a8a <USBHSDebug_ReadUlpiDataBus+0xea>
 8002a88:	2300      	movs	r3, #0
 8002a8a:	b2da      	uxtb	r2, r3
 8002a8c:	79fb      	ldrb	r3, [r7, #7]
 8002a8e:	4313      	orrs	r3, r2
 8002a90:	71fb      	strb	r3, [r7, #7]

  return value;
 8002a92:	79fb      	ldrb	r3, [r7, #7]
}
 8002a94:	4618      	mov	r0, r3
 8002a96:	3708      	adds	r7, #8
 8002a98:	46bd      	mov	sp, r7
 8002a9a:	bd80      	pop	{r7, pc}
 8002a9c:	40020000 	.word	0x40020000
 8002aa0:	40020400 	.word	0x40020400

08002aa4 <USBHSDebug_PrintUlpiPins>:

static void USBHSDebug_PrintUlpiPins(const char *tag)
{
 8002aa4:	e92d 43f0 	stmdb	sp!, {r4, r5, r6, r7, r8, r9, lr}
 8002aa8:	b087      	sub	sp, #28
 8002aaa:	af04      	add	r7, sp, #16
 8002aac:	6078      	str	r0, [r7, #4]
  printf("USB HS PHY: %s STP=%lu DIR=%lu NXT=%lu CLK=%lu DATA=0x%02lX RESETB=%lu\r\n",
         tag,
         (unsigned long)HAL_GPIO_ReadPin(ULP_STP_GPIO_Port, ULP_STP_Pin),
 8002aae:	2101      	movs	r1, #1
 8002ab0:	4817      	ldr	r0, [pc, #92]	@ (8002b10 <USBHSDebug_PrintUlpiPins+0x6c>)
 8002ab2:	f001 fe39 	bl	8004728 <HAL_GPIO_ReadPin>
 8002ab6:	4603      	mov	r3, r0
  printf("USB HS PHY: %s STP=%lu DIR=%lu NXT=%lu CLK=%lu DATA=0x%02lX RESETB=%lu\r\n",
 8002ab8:	4698      	mov	r8, r3
         (unsigned long)HAL_GPIO_ReadPin(ULPI_DIR_GPIO_Port, ULPI_DIR_Pin),
 8002aba:	2104      	movs	r1, #4
 8002abc:	4814      	ldr	r0, [pc, #80]	@ (8002b10 <USBHSDebug_PrintUlpiPins+0x6c>)
 8002abe:	f001 fe33 	bl	8004728 <HAL_GPIO_ReadPin>
 8002ac2:	4603      	mov	r3, r0
  printf("USB HS PHY: %s STP=%lu DIR=%lu NXT=%lu CLK=%lu DATA=0x%02lX RESETB=%lu\r\n",
 8002ac4:	4699      	mov	r9, r3
         (unsigned long)HAL_GPIO_ReadPin(ULPI_NXT_GPIO_Port, ULPI_NXT_Pin),
 8002ac6:	2108      	movs	r1, #8
 8002ac8:	4811      	ldr	r0, [pc, #68]	@ (8002b10 <USBHSDebug_PrintUlpiPins+0x6c>)
 8002aca:	f001 fe2d 	bl	8004728 <HAL_GPIO_ReadPin>
 8002ace:	4603      	mov	r3, r0
  printf("USB HS PHY: %s STP=%lu DIR=%lu NXT=%lu CLK=%lu DATA=0x%02lX RESETB=%lu\r\n",
 8002ad0:	461c      	mov	r4, r3
         (unsigned long)HAL_GPIO_ReadPin(ULPI_CLK_GPIO_Port, ULPI_CLK_Pin),
 8002ad2:	2120      	movs	r1, #32
 8002ad4:	480f      	ldr	r0, [pc, #60]	@ (8002b14 <USBHSDebug_PrintUlpiPins+0x70>)
 8002ad6:	f001 fe27 	bl	8004728 <HAL_GPIO_ReadPin>
 8002ada:	4603      	mov	r3, r0
  printf("USB HS PHY: %s STP=%lu DIR=%lu NXT=%lu CLK=%lu DATA=0x%02lX RESETB=%lu\r\n",
 8002adc:	461d      	mov	r5, r3
         (unsigned long)USBHSDebug_ReadUlpiDataBus(),
 8002ade:	f7ff ff5f 	bl	80029a0 <USBHSDebug_ReadUlpiDataBus>
 8002ae2:	4603      	mov	r3, r0
  printf("USB HS PHY: %s STP=%lu DIR=%lu NXT=%lu CLK=%lu DATA=0x%02lX RESETB=%lu\r\n",
 8002ae4:	461e      	mov	r6, r3
         (unsigned long)HAL_GPIO_ReadPin(USB_RESET_GPIO_Port, USB_RESET_Pin));
 8002ae6:	f44f 5100 	mov.w	r1, #8192	@ 0x2000
 8002aea:	480b      	ldr	r0, [pc, #44]	@ (8002b18 <USBHSDebug_PrintUlpiPins+0x74>)
 8002aec:	f001 fe1c 	bl	8004728 <HAL_GPIO_ReadPin>
 8002af0:	4603      	mov	r3, r0
  printf("USB HS PHY: %s STP=%lu DIR=%lu NXT=%lu CLK=%lu DATA=0x%02lX RESETB=%lu\r\n",
 8002af2:	9303      	str	r3, [sp, #12]
 8002af4:	9602      	str	r6, [sp, #8]
 8002af6:	9501      	str	r5, [sp, #4]
 8002af8:	9400      	str	r4, [sp, #0]
 8002afa:	464b      	mov	r3, r9
 8002afc:	4642      	mov	r2, r8
 8002afe:	6879      	ldr	r1, [r7, #4]
 8002b00:	4806      	ldr	r0, [pc, #24]	@ (8002b1c <USBHSDebug_PrintUlpiPins+0x78>)
 8002b02:	f005 fb87 	bl	8008214 <iprintf>
}
 8002b06:	bf00      	nop
 8002b08:	370c      	adds	r7, #12
 8002b0a:	46bd      	mov	sp, r7
 8002b0c:	e8bd 83f0 	ldmia.w	sp!, {r4, r5, r6, r7, r8, r9, pc}
 8002b10:	40020800 	.word	0x40020800
 8002b14:	40020000 	.word	0x40020000
 8002b18:	40021000 	.word	0x40021000
 8002b1c:	08009dcc 	.word	0x08009dcc

08002b20 <USBHSDebug_PrintUlpiActivity>:

static void USBHSDebug_PrintUlpiActivity(const char *tag, uint32_t sample_ms)
{
 8002b20:	b580      	push	{r7, lr}
 8002b22:	b090      	sub	sp, #64	@ 0x40
 8002b24:	af06      	add	r7, sp, #24
 8002b26:	6078      	str	r0, [r7, #4]
 8002b28:	6039      	str	r1, [r7, #0]
  uint32_t start = HAL_GetTick();
 8002b2a:	f001 f985 	bl	8003e38 <HAL_GetTick>
 8002b2e:	60f8      	str	r0, [r7, #12]
  uint32_t samples = 0U;
 8002b30:	2300      	movs	r3, #0
 8002b32:	627b      	str	r3, [r7, #36]	@ 0x24
  uint32_t clk_edges = 0U;
 8002b34:	2300      	movs	r3, #0
 8002b36:	623b      	str	r3, [r7, #32]
  uint32_t dir_edges = 0U;
 8002b38:	2300      	movs	r3, #0
 8002b3a:	61fb      	str	r3, [r7, #28]
  uint32_t nxt_edges = 0U;
 8002b3c:	2300      	movs	r3, #0
 8002b3e:	61bb      	str	r3, [r7, #24]
  uint32_t data_changes = 0U;
 8002b40:	2300      	movs	r3, #0
 8002b42:	617b      	str	r3, [r7, #20]
  GPIO_PinState last_clk = HAL_GPIO_ReadPin(ULPI_CLK_GPIO_Port, ULPI_CLK_Pin);
 8002b44:	2120      	movs	r1, #32
 8002b46:	4837      	ldr	r0, [pc, #220]	@ (8002c24 <USBHSDebug_PrintUlpiActivity+0x104>)
 8002b48:	f001 fdee 	bl	8004728 <HAL_GPIO_ReadPin>
 8002b4c:	4603      	mov	r3, r0
 8002b4e:	74fb      	strb	r3, [r7, #19]
  GPIO_PinState last_dir = HAL_GPIO_ReadPin(ULPI_DIR_GPIO_Port, ULPI_DIR_Pin);
 8002b50:	2104      	movs	r1, #4
 8002b52:	4835      	ldr	r0, [pc, #212]	@ (8002c28 <USBHSDebug_PrintUlpiActivity+0x108>)
 8002b54:	f001 fde8 	bl	8004728 <HAL_GPIO_ReadPin>
 8002b58:	4603      	mov	r3, r0
 8002b5a:	74bb      	strb	r3, [r7, #18]
  GPIO_PinState last_nxt = HAL_GPIO_ReadPin(ULPI_NXT_GPIO_Port, ULPI_NXT_Pin);
 8002b5c:	2108      	movs	r1, #8
 8002b5e:	4832      	ldr	r0, [pc, #200]	@ (8002c28 <USBHSDebug_PrintUlpiActivity+0x108>)
 8002b60:	f001 fde2 	bl	8004728 <HAL_GPIO_ReadPin>
 8002b64:	4603      	mov	r3, r0
 8002b66:	747b      	strb	r3, [r7, #17]
  uint8_t last_data = USBHSDebug_ReadUlpiDataBus();
 8002b68:	f7ff ff1a 	bl	80029a0 <USBHSDebug_ReadUlpiDataBus>
 8002b6c:	4603      	mov	r3, r0
 8002b6e:	743b      	strb	r3, [r7, #16]

  while ((HAL_GetTick() - start) < sample_ms)
 8002b70:	e03c      	b.n	8002bec <USBHSDebug_PrintUlpiActivity+0xcc>
  {
    GPIO_PinState clk = HAL_GPIO_ReadPin(ULPI_CLK_GPIO_Port, ULPI_CLK_Pin);
 8002b72:	2120      	movs	r1, #32
 8002b74:	482b      	ldr	r0, [pc, #172]	@ (8002c24 <USBHSDebug_PrintUlpiActivity+0x104>)
 8002b76:	f001 fdd7 	bl	8004728 <HAL_GPIO_ReadPin>
 8002b7a:	4603      	mov	r3, r0
 8002b7c:	72fb      	strb	r3, [r7, #11]
    GPIO_PinState dir = HAL_GPIO_ReadPin(ULPI_DIR_GPIO_Port, ULPI_DIR_Pin);
 8002b7e:	2104      	movs	r1, #4
 8002b80:	4829      	ldr	r0, [pc, #164]	@ (8002c28 <USBHSDebug_PrintUlpiActivity+0x108>)
 8002b82:	f001 fdd1 	bl	8004728 <HAL_GPIO_ReadPin>
 8002b86:	4603      	mov	r3, r0
 8002b88:	72bb      	strb	r3, [r7, #10]
    GPIO_PinState nxt = HAL_GPIO_ReadPin(ULPI_NXT_GPIO_Port, ULPI_NXT_Pin);
 8002b8a:	2108      	movs	r1, #8
 8002b8c:	4826      	ldr	r0, [pc, #152]	@ (8002c28 <USBHSDebug_PrintUlpiActivity+0x108>)
 8002b8e:	f001 fdcb 	bl	8004728 <HAL_GPIO_ReadPin>
 8002b92:	4603      	mov	r3, r0
 8002b94:	727b      	strb	r3, [r7, #9]
    uint8_t data = USBHSDebug_ReadUlpiDataBus();
 8002b96:	f7ff ff03 	bl	80029a0 <USBHSDebug_ReadUlpiDataBus>
 8002b9a:	4603      	mov	r3, r0
 8002b9c:	723b      	strb	r3, [r7, #8]

    if (clk != last_clk)
 8002b9e:	7afa      	ldrb	r2, [r7, #11]
 8002ba0:	7cfb      	ldrb	r3, [r7, #19]
 8002ba2:	429a      	cmp	r2, r3
 8002ba4:	d004      	beq.n	8002bb0 <USBHSDebug_PrintUlpiActivity+0x90>
    {
      ++clk_edges;
 8002ba6:	6a3b      	ldr	r3, [r7, #32]
 8002ba8:	3301      	adds	r3, #1
 8002baa:	623b      	str	r3, [r7, #32]
      last_clk = clk;
 8002bac:	7afb      	ldrb	r3, [r7, #11]
 8002bae:	74fb      	strb	r3, [r7, #19]
    }
    if (dir != last_dir)
 8002bb0:	7aba      	ldrb	r2, [r7, #10]
 8002bb2:	7cbb      	ldrb	r3, [r7, #18]
 8002bb4:	429a      	cmp	r2, r3
 8002bb6:	d004      	beq.n	8002bc2 <USBHSDebug_PrintUlpiActivity+0xa2>
    {
      ++dir_edges;
 8002bb8:	69fb      	ldr	r3, [r7, #28]
 8002bba:	3301      	adds	r3, #1
 8002bbc:	61fb      	str	r3, [r7, #28]
      last_dir = dir;
 8002bbe:	7abb      	ldrb	r3, [r7, #10]
 8002bc0:	74bb      	strb	r3, [r7, #18]
    }
    if (nxt != last_nxt)
 8002bc2:	7a7a      	ldrb	r2, [r7, #9]
 8002bc4:	7c7b      	ldrb	r3, [r7, #17]
 8002bc6:	429a      	cmp	r2, r3
 8002bc8:	d004      	beq.n	8002bd4 <USBHSDebug_PrintUlpiActivity+0xb4>
    {
      ++nxt_edges;
 8002bca:	69bb      	ldr	r3, [r7, #24]
 8002bcc:	3301      	adds	r3, #1
 8002bce:	61bb      	str	r3, [r7, #24]
      last_nxt = nxt;
 8002bd0:	7a7b      	ldrb	r3, [r7, #9]
 8002bd2:	747b      	strb	r3, [r7, #17]
    }
    if (data != last_data)
 8002bd4:	7a3a      	ldrb	r2, [r7, #8]
 8002bd6:	7c3b      	ldrb	r3, [r7, #16]
 8002bd8:	429a      	cmp	r2, r3
 8002bda:	d004      	beq.n	8002be6 <USBHSDebug_PrintUlpiActivity+0xc6>
    {
      ++data_changes;
 8002bdc:	697b      	ldr	r3, [r7, #20]
 8002bde:	3301      	adds	r3, #1
 8002be0:	617b      	str	r3, [r7, #20]
      last_data = data;
 8002be2:	7a3b      	ldrb	r3, [r7, #8]
 8002be4:	743b      	strb	r3, [r7, #16]
    }

    ++samples;
 8002be6:	6a7b      	ldr	r3, [r7, #36]	@ 0x24
 8002be8:	3301      	adds	r3, #1
 8002bea:	627b      	str	r3, [r7, #36]	@ 0x24
  while ((HAL_GetTick() - start) < sample_ms)
 8002bec:	f001 f924 	bl	8003e38 <HAL_GetTick>
 8002bf0:	4602      	mov	r2, r0
 8002bf2:	68fb      	ldr	r3, [r7, #12]
 8002bf4:	1ad3      	subs	r3, r2, r3
 8002bf6:	683a      	ldr	r2, [r7, #0]
 8002bf8:	429a      	cmp	r2, r3
 8002bfa:	d8ba      	bhi.n	8002b72 <USBHSDebug_PrintUlpiActivity+0x52>
  }

  printf("USB HS PHY: %s %lu ms samples=%lu clk_edges=%lu dir_edges=%lu nxt_edges=%lu data_changes=%lu final_DATA=0x%02lX\r\n",
 8002bfc:	7c3b      	ldrb	r3, [r7, #16]
 8002bfe:	9304      	str	r3, [sp, #16]
 8002c00:	697b      	ldr	r3, [r7, #20]
 8002c02:	9303      	str	r3, [sp, #12]
 8002c04:	69bb      	ldr	r3, [r7, #24]
 8002c06:	9302      	str	r3, [sp, #8]
 8002c08:	69fb      	ldr	r3, [r7, #28]
 8002c0a:	9301      	str	r3, [sp, #4]
 8002c0c:	6a3b      	ldr	r3, [r7, #32]
 8002c0e:	9300      	str	r3, [sp, #0]
 8002c10:	6a7b      	ldr	r3, [r7, #36]	@ 0x24
 8002c12:	683a      	ldr	r2, [r7, #0]
 8002c14:	6879      	ldr	r1, [r7, #4]
 8002c16:	4805      	ldr	r0, [pc, #20]	@ (8002c2c <USBHSDebug_PrintUlpiActivity+0x10c>)
 8002c18:	f005 fafc 	bl	8008214 <iprintf>
         (unsigned long)clk_edges,
         (unsigned long)dir_edges,
         (unsigned long)nxt_edges,
         (unsigned long)data_changes,
         (unsigned long)last_data);
}
 8002c1c:	bf00      	nop
 8002c1e:	3728      	adds	r7, #40	@ 0x28
 8002c20:	46bd      	mov	sp, r7
 8002c22:	bd80      	pop	{r7, pc}
 8002c24:	40020000 	.word	0x40020000
 8002c28:	40020800 	.word	0x40020800
 8002c2c:	08009e18 	.word	0x08009e18

08002c30 <USBHSDebug_WaitUlpiReady>:

static uint8_t USBHSDebug_WaitUlpiReady(void)
{
 8002c30:	b480      	push	{r7}
 8002c32:	b083      	sub	sp, #12
 8002c34:	af00      	add	r7, sp, #0
  uint32_t timeout = USB_HS_GPVNDCTL_TIMEOUT;
 8002c36:	4b0c      	ldr	r3, [pc, #48]	@ (8002c68 <USBHSDebug_WaitUlpiReady+0x38>)
 8002c38:	607b      	str	r3, [r7, #4]

  while ((USB_HS_GPVNDCTL & USB_HS_GPVNDCTL_VSTSBUSY) != 0U)
 8002c3a:	e007      	b.n	8002c4c <USBHSDebug_WaitUlpiReady+0x1c>
  {
    if (timeout == 0U)
 8002c3c:	687b      	ldr	r3, [r7, #4]
 8002c3e:	2b00      	cmp	r3, #0
 8002c40:	d101      	bne.n	8002c46 <USBHSDebug_WaitUlpiReady+0x16>
    {
      return 0U;
 8002c42:	2300      	movs	r3, #0
 8002c44:	e009      	b.n	8002c5a <USBHSDebug_WaitUlpiReady+0x2a>
    }
    --timeout;
 8002c46:	687b      	ldr	r3, [r7, #4]
 8002c48:	3b01      	subs	r3, #1
 8002c4a:	607b      	str	r3, [r7, #4]
  while ((USB_HS_GPVNDCTL & USB_HS_GPVNDCTL_VSTSBUSY) != 0U)
 8002c4c:	4b07      	ldr	r3, [pc, #28]	@ (8002c6c <USBHSDebug_WaitUlpiReady+0x3c>)
 8002c4e:	681b      	ldr	r3, [r3, #0]
 8002c50:	f003 6380 	and.w	r3, r3, #67108864	@ 0x4000000
 8002c54:	2b00      	cmp	r3, #0
 8002c56:	d1f1      	bne.n	8002c3c <USBHSDebug_WaitUlpiReady+0xc>
  }

  return 1U;
 8002c58:	2301      	movs	r3, #1
}
 8002c5a:	4618      	mov	r0, r3
 8002c5c:	370c      	adds	r7, #12
 8002c5e:	46bd      	mov	sp, r7
 8002c60:	f85d 7b04 	ldr.w	r7, [sp], #4
 8002c64:	4770      	bx	lr
 8002c66:	bf00      	nop
 8002c68:	000f4240 	.word	0x000f4240
 8002c6c:	40040034 	.word	0x40040034

08002c70 <USBHSDebug_WaitUlpiDone>:

static uint8_t USBHSDebug_WaitUlpiDone(uint32_t *final_status)
{
 8002c70:	b480      	push	{r7}
 8002c72:	b085      	sub	sp, #20
 8002c74:	af00      	add	r7, sp, #0
 8002c76:	6078      	str	r0, [r7, #4]
  uint32_t timeout = USB_HS_GPVNDCTL_TIMEOUT;
 8002c78:	4b15      	ldr	r3, [pc, #84]	@ (8002cd0 <USBHSDebug_WaitUlpiDone+0x60>)
 8002c7a:	60fb      	str	r3, [r7, #12]

  while (timeout != 0U)
 8002c7c:	e019      	b.n	8002cb2 <USBHSDebug_WaitUlpiDone+0x42>
  {
    uint32_t status = USB_HS_GPVNDCTL;
 8002c7e:	4b15      	ldr	r3, [pc, #84]	@ (8002cd4 <USBHSDebug_WaitUlpiDone+0x64>)
 8002c80:	681b      	ldr	r3, [r3, #0]
 8002c82:	60bb      	str	r3, [r7, #8]
    if (((status & USB_HS_GPVNDCTL_NEWREGREQ) == 0U) &&
 8002c84:	68bb      	ldr	r3, [r7, #8]
 8002c86:	f003 7300 	and.w	r3, r3, #33554432	@ 0x2000000
 8002c8a:	2b00      	cmp	r3, #0
 8002c8c:	d10e      	bne.n	8002cac <USBHSDebug_WaitUlpiDone+0x3c>
        ((status & USB_HS_GPVNDCTL_VSTSBUSY) == 0U) &&
 8002c8e:	68bb      	ldr	r3, [r7, #8]
 8002c90:	f003 6380 	and.w	r3, r3, #67108864	@ 0x4000000
    if (((status & USB_HS_GPVNDCTL_NEWREGREQ) == 0U) &&
 8002c94:	2b00      	cmp	r3, #0
 8002c96:	d109      	bne.n	8002cac <USBHSDebug_WaitUlpiDone+0x3c>
        ((status & USB_HS_GPVNDCTL_VSTSDONE) != 0U))
 8002c98:	68bb      	ldr	r3, [r7, #8]
 8002c9a:	f003 6300 	and.w	r3, r3, #134217728	@ 0x8000000
        ((status & USB_HS_GPVNDCTL_VSTSBUSY) == 0U) &&
 8002c9e:	2b00      	cmp	r3, #0
 8002ca0:	d004      	beq.n	8002cac <USBHSDebug_WaitUlpiDone+0x3c>
    {
      *final_status = status;
 8002ca2:	687b      	ldr	r3, [r7, #4]
 8002ca4:	68ba      	ldr	r2, [r7, #8]
 8002ca6:	601a      	str	r2, [r3, #0]
      return 1U;
 8002ca8:	2301      	movs	r3, #1
 8002caa:	e00a      	b.n	8002cc2 <USBHSDebug_WaitUlpiDone+0x52>
    }
    --timeout;
 8002cac:	68fb      	ldr	r3, [r7, #12]
 8002cae:	3b01      	subs	r3, #1
 8002cb0:	60fb      	str	r3, [r7, #12]
  while (timeout != 0U)
 8002cb2:	68fb      	ldr	r3, [r7, #12]
 8002cb4:	2b00      	cmp	r3, #0
 8002cb6:	d1e2      	bne.n	8002c7e <USBHSDebug_WaitUlpiDone+0xe>
  }

  *final_status = USB_HS_GPVNDCTL;
 8002cb8:	4b06      	ldr	r3, [pc, #24]	@ (8002cd4 <USBHSDebug_WaitUlpiDone+0x64>)
 8002cba:	681a      	ldr	r2, [r3, #0]
 8002cbc:	687b      	ldr	r3, [r7, #4]
 8002cbe:	601a      	str	r2, [r3, #0]
  return 0U;
 8002cc0:	2300      	movs	r3, #0
}
 8002cc2:	4618      	mov	r0, r3
 8002cc4:	3714      	adds	r7, #20
 8002cc6:	46bd      	mov	sp, r7
 8002cc8:	f85d 7b04 	ldr.w	r7, [sp], #4
 8002ccc:	4770      	bx	lr
 8002cce:	bf00      	nop
 8002cd0:	000f4240 	.word	0x000f4240
 8002cd4:	40040034 	.word	0x40040034

08002cd8 <USBHSDebug_ReadUlpiRegister>:

static uint8_t USBHSDebug_ReadUlpiRegister(uint8_t reg, uint8_t *value)
{
 8002cd8:	b580      	push	{r7, lr}
 8002cda:	b084      	sub	sp, #16
 8002cdc:	af00      	add	r7, sp, #0
 8002cde:	4603      	mov	r3, r0
 8002ce0:	6039      	str	r1, [r7, #0]
 8002ce2:	71fb      	strb	r3, [r7, #7]
  uint32_t status;

  if (USBHSDebug_WaitUlpiReady() == 0U)
 8002ce4:	f7ff ffa4 	bl	8002c30 <USBHSDebug_WaitUlpiReady>
 8002ce8:	4603      	mov	r3, r0
 8002cea:	2b00      	cmp	r3, #0
 8002cec:	d101      	bne.n	8002cf2 <USBHSDebug_ReadUlpiRegister+0x1a>
  {
    return 0U;
 8002cee:	2300      	movs	r3, #0
 8002cf0:	e016      	b.n	8002d20 <USBHSDebug_ReadUlpiRegister+0x48>
  }

  USB_HS_GPVNDCTL = USB_HS_GPVNDCTL_REGADDR(reg) |
 8002cf2:	79fb      	ldrb	r3, [r7, #7]
 8002cf4:	041b      	lsls	r3, r3, #16
 8002cf6:	f403 137c 	and.w	r3, r3, #4128768	@ 0x3f0000
 8002cfa:	4a0b      	ldr	r2, [pc, #44]	@ (8002d28 <USBHSDebug_ReadUlpiRegister+0x50>)
 8002cfc:	f043 7300 	orr.w	r3, r3, #33554432	@ 0x2000000
 8002d00:	6013      	str	r3, [r2, #0]
                    USB_HS_GPVNDCTL_NEWREGREQ;

  if (USBHSDebug_WaitUlpiDone(&status) == 0U)
 8002d02:	f107 030c 	add.w	r3, r7, #12
 8002d06:	4618      	mov	r0, r3
 8002d08:	f7ff ffb2 	bl	8002c70 <USBHSDebug_WaitUlpiDone>
 8002d0c:	4603      	mov	r3, r0
 8002d0e:	2b00      	cmp	r3, #0
 8002d10:	d101      	bne.n	8002d16 <USBHSDebug_ReadUlpiRegister+0x3e>
  {
    return 0U;
 8002d12:	2300      	movs	r3, #0
 8002d14:	e004      	b.n	8002d20 <USBHSDebug_ReadUlpiRegister+0x48>
  }

  *value = USB_HS_GPVNDCTL_RDATA(status);
 8002d16:	68fb      	ldr	r3, [r7, #12]
 8002d18:	b2da      	uxtb	r2, r3
 8002d1a:	683b      	ldr	r3, [r7, #0]
 8002d1c:	701a      	strb	r2, [r3, #0]
  return 1U;
 8002d1e:	2301      	movs	r3, #1
}
 8002d20:	4618      	mov	r0, r3
 8002d22:	3710      	adds	r7, #16
 8002d24:	46bd      	mov	sp, r7
 8002d26:	bd80      	pop	{r7, pc}
 8002d28:	40040034 	.word	0x40040034

08002d2c <USBHSDebug_WriteUlpiRegister>:

static uint8_t USBHSDebug_WriteUlpiRegister(uint8_t reg, uint8_t value)
{
 8002d2c:	b580      	push	{r7, lr}
 8002d2e:	b084      	sub	sp, #16
 8002d30:	af00      	add	r7, sp, #0
 8002d32:	4603      	mov	r3, r0
 8002d34:	460a      	mov	r2, r1
 8002d36:	71fb      	strb	r3, [r7, #7]
 8002d38:	4613      	mov	r3, r2
 8002d3a:	71bb      	strb	r3, [r7, #6]
  uint32_t status;

  if (USBHSDebug_WaitUlpiReady() == 0U)
 8002d3c:	f7ff ff78 	bl	8002c30 <USBHSDebug_WaitUlpiReady>
 8002d40:	4603      	mov	r3, r0
 8002d42:	2b00      	cmp	r3, #0
 8002d44:	d101      	bne.n	8002d4a <USBHSDebug_WriteUlpiRegister+0x1e>
  {
    return 0U;
 8002d46:	2300      	movs	r3, #0
 8002d48:	e00f      	b.n	8002d6a <USBHSDebug_WriteUlpiRegister+0x3e>
  }

  USB_HS_GPVNDCTL = USB_HS_GPVNDCTL_REGADDR(reg) |
 8002d4a:	79fb      	ldrb	r3, [r7, #7]
 8002d4c:	041b      	lsls	r3, r3, #16
 8002d4e:	f403 127c 	and.w	r2, r3, #4128768	@ 0x3f0000
                    USB_HS_GPVNDCTL_REGDATA(value) |
 8002d52:	79bb      	ldrb	r3, [r7, #6]
  USB_HS_GPVNDCTL = USB_HS_GPVNDCTL_REGADDR(reg) |
 8002d54:	4313      	orrs	r3, r2
 8002d56:	4a07      	ldr	r2, [pc, #28]	@ (8002d74 <USBHSDebug_WriteUlpiRegister+0x48>)
                    USB_HS_GPVNDCTL_REGWR |
 8002d58:	f043 7310 	orr.w	r3, r3, #37748736	@ 0x2400000
  USB_HS_GPVNDCTL = USB_HS_GPVNDCTL_REGADDR(reg) |
 8002d5c:	6013      	str	r3, [r2, #0]
                    USB_HS_GPVNDCTL_NEWREGREQ;

  return USBHSDebug_WaitUlpiDone(&status);
 8002d5e:	f107 030c 	add.w	r3, r7, #12
 8002d62:	4618      	mov	r0, r3
 8002d64:	f7ff ff84 	bl	8002c70 <USBHSDebug_WaitUlpiDone>
 8002d68:	4603      	mov	r3, r0
}
 8002d6a:	4618      	mov	r0, r3
 8002d6c:	3710      	adds	r7, #16
 8002d6e:	46bd      	mov	sp, r7
 8002d70:	bd80      	pop	{r7, pc}
 8002d72:	bf00      	nop
 8002d74:	40040034 	.word	0x40040034

08002d78 <USBHSDebug_ConfigureUsb3317DeviceMode>:

static void USBHSDebug_ConfigureUsb3317DeviceMode(void)
{
 8002d78:	b580      	push	{r7, lr}
 8002d7a:	b082      	sub	sp, #8
 8002d7c:	af00      	add	r7, sp, #0
  uint8_t iface;
  uint8_t otg;
  uint8_t int_status;

  printf("USB HS PHY: configuring USB3317 peripheral VBUS/session mode\r\n");
 8002d7e:	4828      	ldr	r0, [pc, #160]	@ (8002e20 <USBHSDebug_ConfigureUsb3317DeviceMode+0xa8>)
 8002d80:	f005 fab0 	bl	80082e4 <puts>

  /*
   * USB3317 ties EXTVBUS high internally. Passing that indicator through makes
   * VbusValid deterministic even if the internal comparator state is confusing.
   */
  if ((USBHSDebug_WriteUlpiRegister(ULPI_REG_INTERFACE_CONTROL_CLR,
 8002d84:	2120      	movs	r1, #32
 8002d86:	2009      	movs	r0, #9
 8002d88:	f7ff ffd0 	bl	8002d2c <USBHSDebug_WriteUlpiRegister>
 8002d8c:	4603      	mov	r3, r0
 8002d8e:	2b00      	cmp	r3, #0
 8002d90:	d006      	beq.n	8002da0 <USBHSDebug_ConfigureUsb3317DeviceMode+0x28>
                                    ULPI_IFACE_INDICATOR_COMPLEMENT) == 0U) ||
      (USBHSDebug_WriteUlpiRegister(ULPI_REG_INTERFACE_CONTROL_SET,
 8002d92:	2140      	movs	r1, #64	@ 0x40
 8002d94:	2008      	movs	r0, #8
 8002d96:	f7ff ffc9 	bl	8002d2c <USBHSDebug_WriteUlpiRegister>
 8002d9a:	4603      	mov	r3, r0
                                    ULPI_IFACE_INDICATOR_COMPLEMENT) == 0U) ||
 8002d9c:	2b00      	cmp	r3, #0
 8002d9e:	d106      	bne.n	8002dae <USBHSDebug_ConfigureUsb3317DeviceMode+0x36>
                                    ULPI_IFACE_INDICATOR_PASSTHRU) == 0U))
  {
    printf("USB HS PHY: interface-control VBUS setup failed GPVNDCTL=0x%08lX\r\n",
 8002da0:	4b20      	ldr	r3, [pc, #128]	@ (8002e24 <USBHSDebug_ConfigureUsb3317DeviceMode+0xac>)
 8002da2:	681b      	ldr	r3, [r3, #0]
 8002da4:	4619      	mov	r1, r3
 8002da6:	4820      	ldr	r0, [pc, #128]	@ (8002e28 <USBHSDebug_ConfigureUsb3317DeviceMode+0xb0>)
 8002da8:	f005 fa34 	bl	8008214 <iprintf>
           (unsigned long)USB_HS_GPVNDCTL);
    return;
 8002dac:	e034      	b.n	8002e18 <USBHSDebug_ConfigureUsb3317DeviceMode+0xa0>
  }

  if ((USBHSDebug_WriteUlpiRegister(ULPI_REG_OTG_CONTROL_CLR,
 8002dae:	217e      	movs	r1, #126	@ 0x7e
 8002db0:	200c      	movs	r0, #12
 8002db2:	f7ff ffbb 	bl	8002d2c <USBHSDebug_WriteUlpiRegister>
 8002db6:	4603      	mov	r3, r0
 8002db8:	2b00      	cmp	r3, #0
 8002dba:	d006      	beq.n	8002dca <USBHSDebug_ConfigureUsb3317DeviceMode+0x52>
                                    ULPI_OTG_DM_PULLDOWN |
                                    ULPI_OTG_DISCHARGE_VBUS |
                                    ULPI_OTG_CHARGE_VBUS |
                                    ULPI_OTG_DRV_VBUS |
                                    ULPI_OTG_DRV_VBUS_EXTERNAL) == 0U) ||
      (USBHSDebug_WriteUlpiRegister(ULPI_REG_OTG_CONTROL_SET,
 8002dbc:	2180      	movs	r1, #128	@ 0x80
 8002dbe:	200b      	movs	r0, #11
 8002dc0:	f7ff ffb4 	bl	8002d2c <USBHSDebug_WriteUlpiRegister>
 8002dc4:	4603      	mov	r3, r0
                                    ULPI_OTG_DRV_VBUS_EXTERNAL) == 0U) ||
 8002dc6:	2b00      	cmp	r3, #0
 8002dc8:	d106      	bne.n	8002dd8 <USBHSDebug_ConfigureUsb3317DeviceMode+0x60>
                                    ULPI_OTG_USE_EXTERNAL_VBUS) == 0U))
  {
    printf("USB HS PHY: OTG-control VBUS setup failed GPVNDCTL=0x%08lX\r\n",
 8002dca:	4b16      	ldr	r3, [pc, #88]	@ (8002e24 <USBHSDebug_ConfigureUsb3317DeviceMode+0xac>)
 8002dcc:	681b      	ldr	r3, [r3, #0]
 8002dce:	4619      	mov	r1, r3
 8002dd0:	4816      	ldr	r0, [pc, #88]	@ (8002e2c <USBHSDebug_ConfigureUsb3317DeviceMode+0xb4>)
 8002dd2:	f005 fa1f 	bl	8008214 <iprintf>
           (unsigned long)USB_HS_GPVNDCTL);
    return;
 8002dd6:	e01f      	b.n	8002e18 <USBHSDebug_ConfigureUsb3317DeviceMode+0xa0>
  }

  if ((USBHSDebug_ReadUlpiRegister(ULPI_REG_INTERFACE_CONTROL, &iface) != 0U) &&
 8002dd8:	1dfb      	adds	r3, r7, #7
 8002dda:	4619      	mov	r1, r3
 8002ddc:	2007      	movs	r0, #7
 8002dde:	f7ff ff7b 	bl	8002cd8 <USBHSDebug_ReadUlpiRegister>
 8002de2:	4603      	mov	r3, r0
 8002de4:	2b00      	cmp	r3, #0
 8002de6:	d017      	beq.n	8002e18 <USBHSDebug_ConfigureUsb3317DeviceMode+0xa0>
      (USBHSDebug_ReadUlpiRegister(ULPI_REG_OTG_CONTROL, &otg) != 0U) &&
 8002de8:	1dbb      	adds	r3, r7, #6
 8002dea:	4619      	mov	r1, r3
 8002dec:	200a      	movs	r0, #10
 8002dee:	f7ff ff73 	bl	8002cd8 <USBHSDebug_ReadUlpiRegister>
 8002df2:	4603      	mov	r3, r0
  if ((USBHSDebug_ReadUlpiRegister(ULPI_REG_INTERFACE_CONTROL, &iface) != 0U) &&
 8002df4:	2b00      	cmp	r3, #0
 8002df6:	d00f      	beq.n	8002e18 <USBHSDebug_ConfigureUsb3317DeviceMode+0xa0>
      (USBHSDebug_ReadUlpiRegister(ULPI_REG_USB_INT_STATUS, &int_status) != 0U))
 8002df8:	1d7b      	adds	r3, r7, #5
 8002dfa:	4619      	mov	r1, r3
 8002dfc:	2013      	movs	r0, #19
 8002dfe:	f7ff ff6b 	bl	8002cd8 <USBHSDebug_ReadUlpiRegister>
 8002e02:	4603      	mov	r3, r0
      (USBHSDebug_ReadUlpiRegister(ULPI_REG_OTG_CONTROL, &otg) != 0U) &&
 8002e04:	2b00      	cmp	r3, #0
 8002e06:	d007      	beq.n	8002e18 <USBHSDebug_ConfigureUsb3317DeviceMode+0xa0>
  {
    printf("USB HS PHY: device-mode regs IFACE=0x%02lX OTG=0x%02lX INT_ST=0x%02lX\r\n",
 8002e08:	79fb      	ldrb	r3, [r7, #7]
 8002e0a:	4619      	mov	r1, r3
 8002e0c:	79bb      	ldrb	r3, [r7, #6]
 8002e0e:	461a      	mov	r2, r3
 8002e10:	797b      	ldrb	r3, [r7, #5]
 8002e12:	4807      	ldr	r0, [pc, #28]	@ (8002e30 <USBHSDebug_ConfigureUsb3317DeviceMode+0xb8>)
 8002e14:	f005 f9fe 	bl	8008214 <iprintf>
           (unsigned long)iface,
           (unsigned long)otg,
           (unsigned long)int_status);
  }
}
 8002e18:	3708      	adds	r7, #8
 8002e1a:	46bd      	mov	sp, r7
 8002e1c:	bd80      	pop	{r7, pc}
 8002e1e:	bf00      	nop
 8002e20:	08009e8c 	.word	0x08009e8c
 8002e24:	40040034 	.word	0x40040034
 8002e28:	08009ecc 	.word	0x08009ecc
 8002e2c:	08009f10 	.word	0x08009f10
 8002e30:	08009f50 	.word	0x08009f50

08002e34 <USBHSDebug_PrintUlpiRegisters>:

static void USBHSDebug_PrintUlpiRegisters(void)
{
 8002e34:	b5b0      	push	{r4, r5, r7, lr}
 8002e36:	b088      	sub	sp, #32
 8002e38:	af04      	add	r7, sp, #16
  uint8_t int_latch;
  uint8_t debug;
  uint8_t scratch_original;
  uint8_t scratch_a5;
  uint8_t scratch_5a;
  uint8_t failed_reg = 0xFFU;
 8002e3a:	23ff      	movs	r3, #255	@ 0xff
 8002e3c:	73fb      	strb	r3, [r7, #15]

  if (USBHSDebug_ReadUlpiRegister(ULPI_REG_VENDOR_ID_LOW, &vid_l) == 0U) { failed_reg = ULPI_REG_VENDOR_ID_LOW; }
 8002e3e:	f107 030e 	add.w	r3, r7, #14
 8002e42:	4619      	mov	r1, r3
 8002e44:	2000      	movs	r0, #0
 8002e46:	f7ff ff47 	bl	8002cd8 <USBHSDebug_ReadUlpiRegister>
 8002e4a:	4603      	mov	r3, r0
 8002e4c:	2b00      	cmp	r3, #0
 8002e4e:	d102      	bne.n	8002e56 <USBHSDebug_PrintUlpiRegisters+0x22>
 8002e50:	2300      	movs	r3, #0
 8002e52:	73fb      	strb	r3, [r7, #15]
 8002e54:	e067      	b.n	8002f26 <USBHSDebug_PrintUlpiRegisters+0xf2>
  else if (USBHSDebug_ReadUlpiRegister(ULPI_REG_VENDOR_ID_HIGH, &vid_h) == 0U) { failed_reg = ULPI_REG_VENDOR_ID_HIGH; }
 8002e56:	f107 030d 	add.w	r3, r7, #13
 8002e5a:	4619      	mov	r1, r3
 8002e5c:	2001      	movs	r0, #1
 8002e5e:	f7ff ff3b 	bl	8002cd8 <USBHSDebug_ReadUlpiRegister>
 8002e62:	4603      	mov	r3, r0
 8002e64:	2b00      	cmp	r3, #0
 8002e66:	d102      	bne.n	8002e6e <USBHSDebug_PrintUlpiRegisters+0x3a>
 8002e68:	2301      	movs	r3, #1
 8002e6a:	73fb      	strb	r3, [r7, #15]
 8002e6c:	e05b      	b.n	8002f26 <USBHSDebug_PrintUlpiRegisters+0xf2>
  else if (USBHSDebug_ReadUlpiRegister(ULPI_REG_PRODUCT_ID_LOW, &pid_l) == 0U) { failed_reg = ULPI_REG_PRODUCT_ID_LOW; }
 8002e6e:	f107 030c 	add.w	r3, r7, #12
 8002e72:	4619      	mov	r1, r3
 8002e74:	2002      	movs	r0, #2
 8002e76:	f7ff ff2f 	bl	8002cd8 <USBHSDebug_ReadUlpiRegister>
 8002e7a:	4603      	mov	r3, r0
 8002e7c:	2b00      	cmp	r3, #0
 8002e7e:	d102      	bne.n	8002e86 <USBHSDebug_PrintUlpiRegisters+0x52>
 8002e80:	2302      	movs	r3, #2
 8002e82:	73fb      	strb	r3, [r7, #15]
 8002e84:	e04f      	b.n	8002f26 <USBHSDebug_PrintUlpiRegisters+0xf2>
  else if (USBHSDebug_ReadUlpiRegister(ULPI_REG_PRODUCT_ID_HIGH, &pid_h) == 0U) { failed_reg = ULPI_REG_PRODUCT_ID_HIGH; }
 8002e86:	f107 030b 	add.w	r3, r7, #11
 8002e8a:	4619      	mov	r1, r3
 8002e8c:	2003      	movs	r0, #3
 8002e8e:	f7ff ff23 	bl	8002cd8 <USBHSDebug_ReadUlpiRegister>
 8002e92:	4603      	mov	r3, r0
 8002e94:	2b00      	cmp	r3, #0
 8002e96:	d102      	bne.n	8002e9e <USBHSDebug_PrintUlpiRegisters+0x6a>
 8002e98:	2303      	movs	r3, #3
 8002e9a:	73fb      	strb	r3, [r7, #15]
 8002e9c:	e043      	b.n	8002f26 <USBHSDebug_PrintUlpiRegisters+0xf2>
  else if (USBHSDebug_ReadUlpiRegister(ULPI_REG_FUNCTION_CONTROL, &func_ctl) == 0U) { failed_reg = ULPI_REG_FUNCTION_CONTROL; }
 8002e9e:	f107 030a 	add.w	r3, r7, #10
 8002ea2:	4619      	mov	r1, r3
 8002ea4:	2004      	movs	r0, #4
 8002ea6:	f7ff ff17 	bl	8002cd8 <USBHSDebug_ReadUlpiRegister>
 8002eaa:	4603      	mov	r3, r0
 8002eac:	2b00      	cmp	r3, #0
 8002eae:	d102      	bne.n	8002eb6 <USBHSDebug_PrintUlpiRegisters+0x82>
 8002eb0:	2304      	movs	r3, #4
 8002eb2:	73fb      	strb	r3, [r7, #15]
 8002eb4:	e037      	b.n	8002f26 <USBHSDebug_PrintUlpiRegisters+0xf2>
  else if (USBHSDebug_ReadUlpiRegister(ULPI_REG_INTERFACE_CONTROL, &iface_ctl) == 0U) { failed_reg = ULPI_REG_INTERFACE_CONTROL; }
 8002eb6:	f107 0309 	add.w	r3, r7, #9
 8002eba:	4619      	mov	r1, r3
 8002ebc:	2007      	movs	r0, #7
 8002ebe:	f7ff ff0b 	bl	8002cd8 <USBHSDebug_ReadUlpiRegister>
 8002ec2:	4603      	mov	r3, r0
 8002ec4:	2b00      	cmp	r3, #0
 8002ec6:	d102      	bne.n	8002ece <USBHSDebug_PrintUlpiRegisters+0x9a>
 8002ec8:	2307      	movs	r3, #7
 8002eca:	73fb      	strb	r3, [r7, #15]
 8002ecc:	e02b      	b.n	8002f26 <USBHSDebug_PrintUlpiRegisters+0xf2>
  else if (USBHSDebug_ReadUlpiRegister(ULPI_REG_OTG_CONTROL, &otg_ctl) == 0U) { failed_reg = ULPI_REG_OTG_CONTROL; }
 8002ece:	f107 0308 	add.w	r3, r7, #8
 8002ed2:	4619      	mov	r1, r3
 8002ed4:	200a      	movs	r0, #10
 8002ed6:	f7ff feff 	bl	8002cd8 <USBHSDebug_ReadUlpiRegister>
 8002eda:	4603      	mov	r3, r0
 8002edc:	2b00      	cmp	r3, #0
 8002ede:	d102      	bne.n	8002ee6 <USBHSDebug_PrintUlpiRegisters+0xb2>
 8002ee0:	230a      	movs	r3, #10
 8002ee2:	73fb      	strb	r3, [r7, #15]
 8002ee4:	e01f      	b.n	8002f26 <USBHSDebug_PrintUlpiRegisters+0xf2>
  else if (USBHSDebug_ReadUlpiRegister(ULPI_REG_USB_INT_STATUS, &int_status) == 0U) { failed_reg = ULPI_REG_USB_INT_STATUS; }
 8002ee6:	1dfb      	adds	r3, r7, #7
 8002ee8:	4619      	mov	r1, r3
 8002eea:	2013      	movs	r0, #19
 8002eec:	f7ff fef4 	bl	8002cd8 <USBHSDebug_ReadUlpiRegister>
 8002ef0:	4603      	mov	r3, r0
 8002ef2:	2b00      	cmp	r3, #0
 8002ef4:	d102      	bne.n	8002efc <USBHSDebug_PrintUlpiRegisters+0xc8>
 8002ef6:	2313      	movs	r3, #19
 8002ef8:	73fb      	strb	r3, [r7, #15]
 8002efa:	e014      	b.n	8002f26 <USBHSDebug_PrintUlpiRegisters+0xf2>
  else if (USBHSDebug_ReadUlpiRegister(ULPI_REG_USB_INT_LATCH, &int_latch) == 0U) { failed_reg = ULPI_REG_USB_INT_LATCH; }
 8002efc:	1dbb      	adds	r3, r7, #6
 8002efe:	4619      	mov	r1, r3
 8002f00:	2014      	movs	r0, #20
 8002f02:	f7ff fee9 	bl	8002cd8 <USBHSDebug_ReadUlpiRegister>
 8002f06:	4603      	mov	r3, r0
 8002f08:	2b00      	cmp	r3, #0
 8002f0a:	d102      	bne.n	8002f12 <USBHSDebug_PrintUlpiRegisters+0xde>
 8002f0c:	2314      	movs	r3, #20
 8002f0e:	73fb      	strb	r3, [r7, #15]
 8002f10:	e009      	b.n	8002f26 <USBHSDebug_PrintUlpiRegisters+0xf2>
  else if (USBHSDebug_ReadUlpiRegister(ULPI_REG_DEBUG, &debug) == 0U) { failed_reg = ULPI_REG_DEBUG; }
 8002f12:	1d7b      	adds	r3, r7, #5
 8002f14:	4619      	mov	r1, r3
 8002f16:	2015      	movs	r0, #21
 8002f18:	f7ff fede 	bl	8002cd8 <USBHSDebug_ReadUlpiRegister>
 8002f1c:	4603      	mov	r3, r0
 8002f1e:	2b00      	cmp	r3, #0
 8002f20:	d101      	bne.n	8002f26 <USBHSDebug_PrintUlpiRegisters+0xf2>
 8002f22:	2315      	movs	r3, #21
 8002f24:	73fb      	strb	r3, [r7, #15]
  else
  {
  }

  if (failed_reg != 0xFFU)
 8002f26:	7bfb      	ldrb	r3, [r7, #15]
 8002f28:	2bff      	cmp	r3, #255	@ 0xff
 8002f2a:	d007      	beq.n	8002f3c <USBHSDebug_PrintUlpiRegisters+0x108>
  {
    printf("USB HS PHY: ULPI register read failed at reg 0x%02lX GPVNDCTL=0x%08lX\r\n",
 8002f2c:	7bfb      	ldrb	r3, [r7, #15]
 8002f2e:	4a3a      	ldr	r2, [pc, #232]	@ (8003018 <USBHSDebug_PrintUlpiRegisters+0x1e4>)
 8002f30:	6812      	ldr	r2, [r2, #0]
 8002f32:	4619      	mov	r1, r3
 8002f34:	4839      	ldr	r0, [pc, #228]	@ (800301c <USBHSDebug_PrintUlpiRegisters+0x1e8>)
 8002f36:	f005 f96d 	bl	8008214 <iprintf>
           (unsigned long)failed_reg,
           (unsigned long)USB_HS_GPVNDCTL);
    return;
 8002f3a:	e06a      	b.n	8003012 <USBHSDebug_PrintUlpiRegisters+0x1de>
  }

  printf("USB HS PHY: ULPI ID VID=0x%02lX%02lX PID=0x%02lX%02lX\r\n",
 8002f3c:	7b7b      	ldrb	r3, [r7, #13]
 8002f3e:	4619      	mov	r1, r3
 8002f40:	7bbb      	ldrb	r3, [r7, #14]
 8002f42:	461a      	mov	r2, r3
 8002f44:	7afb      	ldrb	r3, [r7, #11]
 8002f46:	4618      	mov	r0, r3
 8002f48:	7b3b      	ldrb	r3, [r7, #12]
 8002f4a:	9300      	str	r3, [sp, #0]
 8002f4c:	4603      	mov	r3, r0
 8002f4e:	4834      	ldr	r0, [pc, #208]	@ (8003020 <USBHSDebug_PrintUlpiRegisters+0x1ec>)
 8002f50:	f005 f960 	bl	8008214 <iprintf>
         (unsigned long)vid_h,
         (unsigned long)vid_l,
         (unsigned long)pid_h,
         (unsigned long)pid_l);
  printf("USB HS PHY: ULPI regs FUNC=0x%02lX IFACE=0x%02lX OTG=0x%02lX INT_ST=0x%02lX INT_LATCH=0x%02lX DEBUG=0x%02lX\r\n",
 8002f54:	7abb      	ldrb	r3, [r7, #10]
 8002f56:	4618      	mov	r0, r3
 8002f58:	7a7b      	ldrb	r3, [r7, #9]
 8002f5a:	461c      	mov	r4, r3
 8002f5c:	7a3b      	ldrb	r3, [r7, #8]
 8002f5e:	461d      	mov	r5, r3
 8002f60:	79fb      	ldrb	r3, [r7, #7]
 8002f62:	79ba      	ldrb	r2, [r7, #6]
 8002f64:	7979      	ldrb	r1, [r7, #5]
 8002f66:	9102      	str	r1, [sp, #8]
 8002f68:	9201      	str	r2, [sp, #4]
 8002f6a:	9300      	str	r3, [sp, #0]
 8002f6c:	462b      	mov	r3, r5
 8002f6e:	4622      	mov	r2, r4
 8002f70:	4601      	mov	r1, r0
 8002f72:	482c      	ldr	r0, [pc, #176]	@ (8003024 <USBHSDebug_PrintUlpiRegisters+0x1f0>)
 8002f74:	f005 f94e 	bl	8008214 <iprintf>
         (unsigned long)otg_ctl,
         (unsigned long)int_status,
         (unsigned long)int_latch,
         (unsigned long)debug);

  if (USBHSDebug_ReadUlpiRegister(ULPI_REG_SCRATCH, &scratch_original) == 0U)
 8002f78:	1d3b      	adds	r3, r7, #4
 8002f7a:	4619      	mov	r1, r3
 8002f7c:	2016      	movs	r0, #22
 8002f7e:	f7ff feab 	bl	8002cd8 <USBHSDebug_ReadUlpiRegister>
 8002f82:	4603      	mov	r3, r0
 8002f84:	2b00      	cmp	r3, #0
 8002f86:	d106      	bne.n	8002f96 <USBHSDebug_PrintUlpiRegisters+0x162>
  {
    printf("USB HS PHY: ULPI scratch read failed GPVNDCTL=0x%08lX\r\n",
 8002f88:	4b23      	ldr	r3, [pc, #140]	@ (8003018 <USBHSDebug_PrintUlpiRegisters+0x1e4>)
 8002f8a:	681b      	ldr	r3, [r3, #0]
 8002f8c:	4619      	mov	r1, r3
 8002f8e:	4826      	ldr	r0, [pc, #152]	@ (8003028 <USBHSDebug_PrintUlpiRegisters+0x1f4>)
 8002f90:	f005 f940 	bl	8008214 <iprintf>
           (unsigned long)USB_HS_GPVNDCTL);
    return;
 8002f94:	e03d      	b.n	8003012 <USBHSDebug_PrintUlpiRegisters+0x1de>
  }

  if ((USBHSDebug_WriteUlpiRegister(ULPI_REG_SCRATCH, 0xA5U) == 0U) ||
 8002f96:	21a5      	movs	r1, #165	@ 0xa5
 8002f98:	2016      	movs	r0, #22
 8002f9a:	f7ff fec7 	bl	8002d2c <USBHSDebug_WriteUlpiRegister>
 8002f9e:	4603      	mov	r3, r0
 8002fa0:	2b00      	cmp	r3, #0
 8002fa2:	d016      	beq.n	8002fd2 <USBHSDebug_PrintUlpiRegisters+0x19e>
      (USBHSDebug_ReadUlpiRegister(ULPI_REG_SCRATCH, &scratch_a5) == 0U) ||
 8002fa4:	1cfb      	adds	r3, r7, #3
 8002fa6:	4619      	mov	r1, r3
 8002fa8:	2016      	movs	r0, #22
 8002faa:	f7ff fe95 	bl	8002cd8 <USBHSDebug_ReadUlpiRegister>
 8002fae:	4603      	mov	r3, r0
  if ((USBHSDebug_WriteUlpiRegister(ULPI_REG_SCRATCH, 0xA5U) == 0U) ||
 8002fb0:	2b00      	cmp	r3, #0
 8002fb2:	d00e      	beq.n	8002fd2 <USBHSDebug_PrintUlpiRegisters+0x19e>
      (USBHSDebug_WriteUlpiRegister(ULPI_REG_SCRATCH, 0x5AU) == 0U) ||
 8002fb4:	215a      	movs	r1, #90	@ 0x5a
 8002fb6:	2016      	movs	r0, #22
 8002fb8:	f7ff feb8 	bl	8002d2c <USBHSDebug_WriteUlpiRegister>
 8002fbc:	4603      	mov	r3, r0
      (USBHSDebug_ReadUlpiRegister(ULPI_REG_SCRATCH, &scratch_a5) == 0U) ||
 8002fbe:	2b00      	cmp	r3, #0
 8002fc0:	d007      	beq.n	8002fd2 <USBHSDebug_PrintUlpiRegisters+0x19e>
      (USBHSDebug_ReadUlpiRegister(ULPI_REG_SCRATCH, &scratch_5a) == 0U))
 8002fc2:	1cbb      	adds	r3, r7, #2
 8002fc4:	4619      	mov	r1, r3
 8002fc6:	2016      	movs	r0, #22
 8002fc8:	f7ff fe86 	bl	8002cd8 <USBHSDebug_ReadUlpiRegister>
 8002fcc:	4603      	mov	r3, r0
      (USBHSDebug_WriteUlpiRegister(ULPI_REG_SCRATCH, 0x5AU) == 0U) ||
 8002fce:	2b00      	cmp	r3, #0
 8002fd0:	d106      	bne.n	8002fe0 <USBHSDebug_PrintUlpiRegisters+0x1ac>
  {
    printf("USB HS PHY: ULPI scratch test failed GPVNDCTL=0x%08lX\r\n",
 8002fd2:	4b11      	ldr	r3, [pc, #68]	@ (8003018 <USBHSDebug_PrintUlpiRegisters+0x1e4>)
 8002fd4:	681b      	ldr	r3, [r3, #0]
 8002fd6:	4619      	mov	r1, r3
 8002fd8:	4814      	ldr	r0, [pc, #80]	@ (800302c <USBHSDebug_PrintUlpiRegisters+0x1f8>)
 8002fda:	f005 f91b 	bl	8008214 <iprintf>
           (unsigned long)USB_HS_GPVNDCTL);
    return;
 8002fde:	e018      	b.n	8003012 <USBHSDebug_PrintUlpiRegisters+0x1de>
  }

  (void)USBHSDebug_WriteUlpiRegister(ULPI_REG_SCRATCH, scratch_original);
 8002fe0:	793b      	ldrb	r3, [r7, #4]
 8002fe2:	4619      	mov	r1, r3
 8002fe4:	2016      	movs	r0, #22
 8002fe6:	f7ff fea1 	bl	8002d2c <USBHSDebug_WriteUlpiRegister>

  printf("USB HS PHY: ULPI scratch original=0x%02lX A5->0x%02lX 5A->0x%02lX %s\r\n",
 8002fea:	793b      	ldrb	r3, [r7, #4]
 8002fec:	4619      	mov	r1, r3
 8002fee:	78fb      	ldrb	r3, [r7, #3]
 8002ff0:	461a      	mov	r2, r3
 8002ff2:	78bb      	ldrb	r3, [r7, #2]
 8002ff4:	4618      	mov	r0, r3
         (unsigned long)scratch_original,
         (unsigned long)scratch_a5,
         (unsigned long)scratch_5a,
         ((scratch_a5 == 0xA5U) && (scratch_5a == 0x5AU)) ? "PASS" : "FAIL");
 8002ff6:	78fb      	ldrb	r3, [r7, #3]
  printf("USB HS PHY: ULPI scratch original=0x%02lX A5->0x%02lX 5A->0x%02lX %s\r\n",
 8002ff8:	2ba5      	cmp	r3, #165	@ 0xa5
 8002ffa:	d104      	bne.n	8003006 <USBHSDebug_PrintUlpiRegisters+0x1d2>
         ((scratch_a5 == 0xA5U) && (scratch_5a == 0x5AU)) ? "PASS" : "FAIL");
 8002ffc:	78bb      	ldrb	r3, [r7, #2]
 8002ffe:	2b5a      	cmp	r3, #90	@ 0x5a
 8003000:	d101      	bne.n	8003006 <USBHSDebug_PrintUlpiRegisters+0x1d2>
  printf("USB HS PHY: ULPI scratch original=0x%02lX A5->0x%02lX 5A->0x%02lX %s\r\n",
 8003002:	4b0b      	ldr	r3, [pc, #44]	@ (8003030 <USBHSDebug_PrintUlpiRegisters+0x1fc>)
 8003004:	e000      	b.n	8003008 <USBHSDebug_PrintUlpiRegisters+0x1d4>
 8003006:	4b0b      	ldr	r3, [pc, #44]	@ (8003034 <USBHSDebug_PrintUlpiRegisters+0x200>)
 8003008:	9300      	str	r3, [sp, #0]
 800300a:	4603      	mov	r3, r0
 800300c:	480a      	ldr	r0, [pc, #40]	@ (8003038 <USBHSDebug_PrintUlpiRegisters+0x204>)
 800300e:	f005 f901 	bl	8008214 <iprintf>
}
 8003012:	3710      	adds	r7, #16
 8003014:	46bd      	mov	sp, r7
 8003016:	bdb0      	pop	{r4, r5, r7, pc}
 8003018:	40040034 	.word	0x40040034
 800301c:	08009f98 	.word	0x08009f98
 8003020:	08009fe0 	.word	0x08009fe0
 8003024:	0800a018 	.word	0x0800a018
 8003028:	0800a088 	.word	0x0800a088
 800302c:	0800a0c0 	.word	0x0800a0c0
 8003030:	0800a0f8 	.word	0x0800a0f8
 8003034:	0800a100 	.word	0x0800a100
 8003038:	0800a108 	.word	0x0800a108

0800303c <USBHSDebug_PrintUlpiRuntimeStatus>:

static void USBHSDebug_PrintUlpiRuntimeStatus(const char *tag)
{
 800303c:	b5f0      	push	{r4, r5, r6, r7, lr}
 800303e:	b08d      	sub	sp, #52	@ 0x34
 8003040:	af08      	add	r7, sp, #32
 8003042:	6078      	str	r0, [r7, #4]
  uint8_t otg_ctl;
  uint8_t int_status;
  uint8_t int_latch;
  uint8_t debug;

  if ((USBHSDebug_ReadUlpiRegister(ULPI_REG_FUNCTION_CONTROL, &func_ctl) == 0U) ||
 8003044:	f107 030f 	add.w	r3, r7, #15
 8003048:	4619      	mov	r1, r3
 800304a:	2004      	movs	r0, #4
 800304c:	f7ff fe44 	bl	8002cd8 <USBHSDebug_ReadUlpiRegister>
 8003050:	4603      	mov	r3, r0
 8003052:	2b00      	cmp	r3, #0
 8003054:	d02c      	beq.n	80030b0 <USBHSDebug_PrintUlpiRuntimeStatus+0x74>
      (USBHSDebug_ReadUlpiRegister(ULPI_REG_INTERFACE_CONTROL, &iface_ctl) == 0U) ||
 8003056:	f107 030e 	add.w	r3, r7, #14
 800305a:	4619      	mov	r1, r3
 800305c:	2007      	movs	r0, #7
 800305e:	f7ff fe3b 	bl	8002cd8 <USBHSDebug_ReadUlpiRegister>
 8003062:	4603      	mov	r3, r0
  if ((USBHSDebug_ReadUlpiRegister(ULPI_REG_FUNCTION_CONTROL, &func_ctl) == 0U) ||
 8003064:	2b00      	cmp	r3, #0
 8003066:	d023      	beq.n	80030b0 <USBHSDebug_PrintUlpiRuntimeStatus+0x74>
      (USBHSDebug_ReadUlpiRegister(ULPI_REG_OTG_CONTROL, &otg_ctl) == 0U) ||
 8003068:	f107 030d 	add.w	r3, r7, #13
 800306c:	4619      	mov	r1, r3
 800306e:	200a      	movs	r0, #10
 8003070:	f7ff fe32 	bl	8002cd8 <USBHSDebug_ReadUlpiRegister>
 8003074:	4603      	mov	r3, r0
      (USBHSDebug_ReadUlpiRegister(ULPI_REG_INTERFACE_CONTROL, &iface_ctl) == 0U) ||
 8003076:	2b00      	cmp	r3, #0
 8003078:	d01a      	beq.n	80030b0 <USBHSDebug_PrintUlpiRuntimeStatus+0x74>
      (USBHSDebug_ReadUlpiRegister(ULPI_REG_USB_INT_STATUS, &int_status) == 0U) ||
 800307a:	f107 030c 	add.w	r3, r7, #12
 800307e:	4619      	mov	r1, r3
 8003080:	2013      	movs	r0, #19
 8003082:	f7ff fe29 	bl	8002cd8 <USBHSDebug_ReadUlpiRegister>
 8003086:	4603      	mov	r3, r0
      (USBHSDebug_ReadUlpiRegister(ULPI_REG_OTG_CONTROL, &otg_ctl) == 0U) ||
 8003088:	2b00      	cmp	r3, #0
 800308a:	d011      	beq.n	80030b0 <USBHSDebug_PrintUlpiRuntimeStatus+0x74>
      (USBHSDebug_ReadUlpiRegister(ULPI_REG_USB_INT_LATCH, &int_latch) == 0U) ||
 800308c:	f107 030b 	add.w	r3, r7, #11
 8003090:	4619      	mov	r1, r3
 8003092:	2014      	movs	r0, #20
 8003094:	f7ff fe20 	bl	8002cd8 <USBHSDebug_ReadUlpiRegister>
 8003098:	4603      	mov	r3, r0
      (USBHSDebug_ReadUlpiRegister(ULPI_REG_USB_INT_STATUS, &int_status) == 0U) ||
 800309a:	2b00      	cmp	r3, #0
 800309c:	d008      	beq.n	80030b0 <USBHSDebug_PrintUlpiRuntimeStatus+0x74>
      (USBHSDebug_ReadUlpiRegister(ULPI_REG_DEBUG, &debug) == 0U))
 800309e:	f107 030a 	add.w	r3, r7, #10
 80030a2:	4619      	mov	r1, r3
 80030a4:	2015      	movs	r0, #21
 80030a6:	f7ff fe17 	bl	8002cd8 <USBHSDebug_ReadUlpiRegister>
 80030aa:	4603      	mov	r3, r0
      (USBHSDebug_ReadUlpiRegister(ULPI_REG_USB_INT_LATCH, &int_latch) == 0U) ||
 80030ac:	2b00      	cmp	r3, #0
 80030ae:	d107      	bne.n	80030c0 <USBHSDebug_PrintUlpiRuntimeStatus+0x84>
  {
    printf("USB HS PHY: %s runtime register read failed GPVNDCTL=0x%08lX\r\n",
 80030b0:	4b1b      	ldr	r3, [pc, #108]	@ (8003120 <USBHSDebug_PrintUlpiRuntimeStatus+0xe4>)
 80030b2:	681b      	ldr	r3, [r3, #0]
 80030b4:	461a      	mov	r2, r3
 80030b6:	6879      	ldr	r1, [r7, #4]
 80030b8:	481a      	ldr	r0, [pc, #104]	@ (8003124 <USBHSDebug_PrintUlpiRuntimeStatus+0xe8>)
 80030ba:	f005 f8ab 	bl	8008214 <iprintf>
 80030be:	e02c      	b.n	800311a <USBHSDebug_PrintUlpiRuntimeStatus+0xde>
           tag,
           (unsigned long)USB_HS_GPVNDCTL);
    return;
  }

  printf("USB HS PHY: %s FUNC=0x%02lX IFACE=0x%02lX OTG=0x%02lX INT_ST=0x%02lX INT_LATCH=0x%02lX DEBUG=0x%02lX LINESTATE=%lu VBUS=%lu SESS=%lu END=%lu\r\n",
 80030c0:	7bfb      	ldrb	r3, [r7, #15]
 80030c2:	469c      	mov	ip, r3
 80030c4:	7bbb      	ldrb	r3, [r7, #14]
 80030c6:	469e      	mov	lr, r3
 80030c8:	7b7b      	ldrb	r3, [r7, #13]
 80030ca:	461c      	mov	r4, r3
 80030cc:	7b3b      	ldrb	r3, [r7, #12]
 80030ce:	461d      	mov	r5, r3
 80030d0:	7afb      	ldrb	r3, [r7, #11]
 80030d2:	461e      	mov	r6, r3
 80030d4:	7abb      	ldrb	r3, [r7, #10]
 80030d6:	603b      	str	r3, [r7, #0]
         (unsigned long)iface_ctl,
         (unsigned long)otg_ctl,
         (unsigned long)int_status,
         (unsigned long)int_latch,
         (unsigned long)debug,
         (unsigned long)(debug & 0x03U),
 80030d8:	7abb      	ldrb	r3, [r7, #10]
  printf("USB HS PHY: %s FUNC=0x%02lX IFACE=0x%02lX OTG=0x%02lX INT_ST=0x%02lX INT_LATCH=0x%02lX DEBUG=0x%02lX LINESTATE=%lu VBUS=%lu SESS=%lu END=%lu\r\n",
 80030da:	f003 0303 	and.w	r3, r3, #3
         (unsigned long)((int_status >> 1) & 0x01U),
 80030de:	7b3a      	ldrb	r2, [r7, #12]
 80030e0:	0852      	lsrs	r2, r2, #1
 80030e2:	b2d2      	uxtb	r2, r2
  printf("USB HS PHY: %s FUNC=0x%02lX IFACE=0x%02lX OTG=0x%02lX INT_ST=0x%02lX INT_LATCH=0x%02lX DEBUG=0x%02lX LINESTATE=%lu VBUS=%lu SESS=%lu END=%lu\r\n",
 80030e4:	f002 0201 	and.w	r2, r2, #1
         (unsigned long)((int_status >> 2) & 0x01U),
 80030e8:	7b39      	ldrb	r1, [r7, #12]
 80030ea:	0889      	lsrs	r1, r1, #2
 80030ec:	b2c9      	uxtb	r1, r1
  printf("USB HS PHY: %s FUNC=0x%02lX IFACE=0x%02lX OTG=0x%02lX INT_ST=0x%02lX INT_LATCH=0x%02lX DEBUG=0x%02lX LINESTATE=%lu VBUS=%lu SESS=%lu END=%lu\r\n",
 80030ee:	f001 0101 	and.w	r1, r1, #1
         (unsigned long)((int_status >> 3) & 0x01U));
 80030f2:	7b38      	ldrb	r0, [r7, #12]
 80030f4:	08c0      	lsrs	r0, r0, #3
 80030f6:	b2c0      	uxtb	r0, r0
  printf("USB HS PHY: %s FUNC=0x%02lX IFACE=0x%02lX OTG=0x%02lX INT_ST=0x%02lX INT_LATCH=0x%02lX DEBUG=0x%02lX LINESTATE=%lu VBUS=%lu SESS=%lu END=%lu\r\n",
 80030f8:	f000 0001 	and.w	r0, r0, #1
 80030fc:	9007      	str	r0, [sp, #28]
 80030fe:	9106      	str	r1, [sp, #24]
 8003100:	9205      	str	r2, [sp, #20]
 8003102:	9304      	str	r3, [sp, #16]
 8003104:	683b      	ldr	r3, [r7, #0]
 8003106:	9303      	str	r3, [sp, #12]
 8003108:	9602      	str	r6, [sp, #8]
 800310a:	9501      	str	r5, [sp, #4]
 800310c:	9400      	str	r4, [sp, #0]
 800310e:	4673      	mov	r3, lr
 8003110:	4662      	mov	r2, ip
 8003112:	6879      	ldr	r1, [r7, #4]
 8003114:	4804      	ldr	r0, [pc, #16]	@ (8003128 <USBHSDebug_PrintUlpiRuntimeStatus+0xec>)
 8003116:	f005 f87d 	bl	8008214 <iprintf>
}
 800311a:	3714      	adds	r7, #20
 800311c:	46bd      	mov	sp, r7
 800311e:	bdf0      	pop	{r4, r5, r6, r7, pc}
 8003120:	40040034 	.word	0x40040034
 8003124:	0800a150 	.word	0x0800a150
 8003128:	0800a190 	.word	0x0800a190

0800312c <USBHSDebug_ResetUsbCorePeripheral>:
           (unsigned long)usb_io_pwr);
  }
}

static void USBHSDebug_ResetUsbCorePeripheral(void)
{
 800312c:	b580      	push	{r7, lr}
 800312e:	af00      	add	r7, sp, #0
  __HAL_RCC_USB_OTG_HS_FORCE_RESET();
 8003130:	4b09      	ldr	r3, [pc, #36]	@ (8003158 <USBHSDebug_ResetUsbCorePeripheral+0x2c>)
 8003132:	691b      	ldr	r3, [r3, #16]
 8003134:	4a08      	ldr	r2, [pc, #32]	@ (8003158 <USBHSDebug_ResetUsbCorePeripheral+0x2c>)
 8003136:	f043 5300 	orr.w	r3, r3, #536870912	@ 0x20000000
 800313a:	6113      	str	r3, [r2, #16]
  HAL_Delay(1U);
 800313c:	2001      	movs	r0, #1
 800313e:	f000 fe87 	bl	8003e50 <HAL_Delay>
  __HAL_RCC_USB_OTG_HS_RELEASE_RESET();
 8003142:	4b05      	ldr	r3, [pc, #20]	@ (8003158 <USBHSDebug_ResetUsbCorePeripheral+0x2c>)
 8003144:	691b      	ldr	r3, [r3, #16]
 8003146:	4a04      	ldr	r2, [pc, #16]	@ (8003158 <USBHSDebug_ResetUsbCorePeripheral+0x2c>)
 8003148:	f023 5300 	bic.w	r3, r3, #536870912	@ 0x20000000
 800314c:	6113      	str	r3, [r2, #16]
  HAL_Delay(1U);
 800314e:	2001      	movs	r0, #1
 8003150:	f000 fe7e 	bl	8003e50 <HAL_Delay>
}
 8003154:	bf00      	nop
 8003156:	bd80      	pop	{r7, pc}
 8003158:	40023800 	.word	0x40023800

0800315c <USBHSDebug_PrintUsbCorePreflight>:

static void USBHSDebug_PrintUsbCorePreflight(const char *tag)
{
 800315c:	b5f0      	push	{r4, r5, r6, r7, lr}
 800315e:	b089      	sub	sp, #36	@ 0x24
 8003160:	af06      	add	r7, sp, #24
 8003162:	6078      	str	r0, [r7, #4]
  printf("USB HS DEBUG: %s AHB1ENR=0x%08lX AHB1RSTR=0x%08lX GUSBCFG=0x%08lX GRSTCTL=0x%08lX GINTSTS=0x%08lX GCCFG=0x%08lX GPVNDCTL=0x%08lX\r\n",
         tag,
         (unsigned long)RCC->AHB1ENR,
 8003164:	4b0e      	ldr	r3, [pc, #56]	@ (80031a0 <USBHSDebug_PrintUsbCorePreflight+0x44>)
 8003166:	6b1d      	ldr	r5, [r3, #48]	@ 0x30
         (unsigned long)RCC->AHB1RSTR,
 8003168:	4b0d      	ldr	r3, [pc, #52]	@ (80031a0 <USBHSDebug_PrintUsbCorePreflight+0x44>)
 800316a:	691e      	ldr	r6, [r3, #16]
         (unsigned long)USB_OTG_HS->GUSBCFG,
 800316c:	4b0d      	ldr	r3, [pc, #52]	@ (80031a4 <USBHSDebug_PrintUsbCorePreflight+0x48>)
 800316e:	68db      	ldr	r3, [r3, #12]
         (unsigned long)USB_OTG_HS->GRSTCTL,
 8003170:	4a0c      	ldr	r2, [pc, #48]	@ (80031a4 <USBHSDebug_PrintUsbCorePreflight+0x48>)
 8003172:	6912      	ldr	r2, [r2, #16]
         (unsigned long)USB_OTG_HS->GINTSTS,
 8003174:	490b      	ldr	r1, [pc, #44]	@ (80031a4 <USBHSDebug_PrintUsbCorePreflight+0x48>)
 8003176:	6949      	ldr	r1, [r1, #20]
         (unsigned long)USB_OTG_HS->GCCFG,
 8003178:	480a      	ldr	r0, [pc, #40]	@ (80031a4 <USBHSDebug_PrintUsbCorePreflight+0x48>)
 800317a:	6b80      	ldr	r0, [r0, #56]	@ 0x38
  printf("USB HS DEBUG: %s AHB1ENR=0x%08lX AHB1RSTR=0x%08lX GUSBCFG=0x%08lX GRSTCTL=0x%08lX GINTSTS=0x%08lX GCCFG=0x%08lX GPVNDCTL=0x%08lX\r\n",
 800317c:	4c0a      	ldr	r4, [pc, #40]	@ (80031a8 <USBHSDebug_PrintUsbCorePreflight+0x4c>)
 800317e:	6824      	ldr	r4, [r4, #0]
 8003180:	9404      	str	r4, [sp, #16]
 8003182:	9003      	str	r0, [sp, #12]
 8003184:	9102      	str	r1, [sp, #8]
 8003186:	9201      	str	r2, [sp, #4]
 8003188:	9300      	str	r3, [sp, #0]
 800318a:	4633      	mov	r3, r6
 800318c:	462a      	mov	r2, r5
 800318e:	6879      	ldr	r1, [r7, #4]
 8003190:	4806      	ldr	r0, [pc, #24]	@ (80031ac <USBHSDebug_PrintUsbCorePreflight+0x50>)
 8003192:	f005 f83f 	bl	8008214 <iprintf>
         (unsigned long)USB_HS_GPVNDCTL);
}
 8003196:	bf00      	nop
 8003198:	370c      	adds	r7, #12
 800319a:	46bd      	mov	sp, r7
 800319c:	bdf0      	pop	{r4, r5, r6, r7, pc}
 800319e:	bf00      	nop
 80031a0:	40023800 	.word	0x40023800
 80031a4:	40040000 	.word	0x40040000
 80031a8:	40040034 	.word	0x40040034
 80031ac:	0800a478 	.word	0x0800a478

080031b0 <USBHSDebug_PrintCoreStatus>:

static void USBHSDebug_PrintCoreStatus(const char *tag)
{
 80031b0:	e92d 43f0 	stmdb	sp!, {r4, r5, r6, r7, r8, r9, lr}
 80031b4:	b091      	sub	sp, #68	@ 0x44
 80031b6:	af0a      	add	r7, sp, #40	@ 0x28
 80031b8:	60f8      	str	r0, [r7, #12]
  uint32_t USBx_BASE = (uint32_t)USB_OTG_HS;
 80031ba:	4b1e      	ldr	r3, [pc, #120]	@ (8003234 <USBHSDebug_PrintCoreStatus+0x84>)
 80031bc:	617b      	str	r3, [r7, #20]

  printf("USB HS DEBUG: %s tick=%lu cfg=%lu speed=%s GINTSTS=0x%08lX GINTMSK=0x%08lX GAHBCFG=0x%08lX GUSBCFG=0x%08lX GCCFG=0x%08lX DCTL=0x%08lX DSTS=0x%08lX PCGCCTL=0x%08lX\r\n",
         tag,
         (unsigned long)HAL_GetTick(),
 80031be:	f000 fe3b 	bl	8003e38 <HAL_GetTick>
 80031c2:	4680      	mov	r8, r0
  printf("USB HS DEBUG: %s tick=%lu cfg=%lu speed=%s GINTSTS=0x%08lX GINTMSK=0x%08lX GAHBCFG=0x%08lX GUSBCFG=0x%08lX GCCFG=0x%08lX DCTL=0x%08lX DSTS=0x%08lX PCGCCTL=0x%08lX\r\n",
 80031c4:	4b1c      	ldr	r3, [pc, #112]	@ (8003238 <USBHSDebug_PrintCoreStatus+0x88>)
 80031c6:	781b      	ldrb	r3, [r3, #0]
 80031c8:	4699      	mov	r9, r3
 80031ca:	4b1c      	ldr	r3, [pc, #112]	@ (800323c <USBHSDebug_PrintCoreStatus+0x8c>)
 80031cc:	681b      	ldr	r3, [r3, #0]
 80031ce:	4618      	mov	r0, r3
 80031d0:	f000 fb92 	bl	80038f8 <USBHSDebug_SpeedName>
 80031d4:	60b8      	str	r0, [r7, #8]
         (unsigned long)usb_hs_debug_configuration,
         USBHSDebug_SpeedName(usb_hs_debug_pcd),
         (unsigned long)USB_OTG_HS->GINTSTS,
 80031d6:	4b17      	ldr	r3, [pc, #92]	@ (8003234 <USBHSDebug_PrintCoreStatus+0x84>)
 80031d8:	695b      	ldr	r3, [r3, #20]
 80031da:	607b      	str	r3, [r7, #4]
         (unsigned long)USB_OTG_HS->GINTMSK,
 80031dc:	4a15      	ldr	r2, [pc, #84]	@ (8003234 <USBHSDebug_PrintCoreStatus+0x84>)
 80031de:	6992      	ldr	r2, [r2, #24]
         (unsigned long)USB_OTG_HS->GAHBCFG,
 80031e0:	4914      	ldr	r1, [pc, #80]	@ (8003234 <USBHSDebug_PrintCoreStatus+0x84>)
 80031e2:	6889      	ldr	r1, [r1, #8]
         (unsigned long)USB_OTG_HS->GUSBCFG,
 80031e4:	4813      	ldr	r0, [pc, #76]	@ (8003234 <USBHSDebug_PrintCoreStatus+0x84>)
 80031e6:	68c0      	ldr	r0, [r0, #12]
         (unsigned long)USB_OTG_HS->GCCFG,
 80031e8:	4c12      	ldr	r4, [pc, #72]	@ (8003234 <USBHSDebug_PrintCoreStatus+0x84>)
 80031ea:	6ba4      	ldr	r4, [r4, #56]	@ 0x38
         (unsigned long)USBx_DEVICE->DCTL,
 80031ec:	697d      	ldr	r5, [r7, #20]
 80031ee:	f505 6500 	add.w	r5, r5, #2048	@ 0x800
 80031f2:	686d      	ldr	r5, [r5, #4]
         (unsigned long)USBx_DEVICE->DSTS,
 80031f4:	697e      	ldr	r6, [r7, #20]
 80031f6:	f506 6600 	add.w	r6, r6, #2048	@ 0x800
 80031fa:	68b6      	ldr	r6, [r6, #8]
         (unsigned long)USBx_PCGCCTL);
 80031fc:	697b      	ldr	r3, [r7, #20]
 80031fe:	f503 6c60 	add.w	ip, r3, #3584	@ 0xe00
  printf("USB HS DEBUG: %s tick=%lu cfg=%lu speed=%s GINTSTS=0x%08lX GINTMSK=0x%08lX GAHBCFG=0x%08lX GUSBCFG=0x%08lX GCCFG=0x%08lX DCTL=0x%08lX DSTS=0x%08lX PCGCCTL=0x%08lX\r\n",
 8003202:	f8dc 3000 	ldr.w	r3, [ip]
 8003206:	9308      	str	r3, [sp, #32]
 8003208:	9607      	str	r6, [sp, #28]
 800320a:	9506      	str	r5, [sp, #24]
 800320c:	9405      	str	r4, [sp, #20]
 800320e:	9004      	str	r0, [sp, #16]
 8003210:	9103      	str	r1, [sp, #12]
 8003212:	9202      	str	r2, [sp, #8]
 8003214:	687b      	ldr	r3, [r7, #4]
 8003216:	9301      	str	r3, [sp, #4]
 8003218:	68bb      	ldr	r3, [r7, #8]
 800321a:	9300      	str	r3, [sp, #0]
 800321c:	464b      	mov	r3, r9
 800321e:	4642      	mov	r2, r8
 8003220:	68f9      	ldr	r1, [r7, #12]
 8003222:	4807      	ldr	r0, [pc, #28]	@ (8003240 <USBHSDebug_PrintCoreStatus+0x90>)
 8003224:	f004 fff6 	bl	8008214 <iprintf>
}
 8003228:	bf00      	nop
 800322a:	371c      	adds	r7, #28
 800322c:	46bd      	mov	sp, r7
 800322e:	e8bd 83f0 	ldmia.w	sp!, {r4, r5, r6, r7, r8, r9, pc}
 8003232:	bf00      	nop
 8003234:	40040000 	.word	0x40040000
 8003238:	20028688 	.word	0x20028688
 800323c:	20028684 	.word	0x20028684
 8003240:	0800a4fc 	.word	0x0800a4fc

08003244 <USBHSDebug_ParseSetup>:

static void USBHSDebug_ParseSetup(PCD_HandleTypeDef *hpcd,
                                  USBHSDebug_SetupRequest *req)
{
 8003244:	b480      	push	{r7}
 8003246:	b083      	sub	sp, #12
 8003248:	af00      	add	r7, sp, #0
 800324a:	6078      	str	r0, [r7, #4]
 800324c:	6039      	str	r1, [r7, #0]
  req->bmRequestType = (uint8_t)(hpcd->Setup[0] & 0xFFU);
 800324e:	687b      	ldr	r3, [r7, #4]
 8003250:	f8d3 349c 	ldr.w	r3, [r3, #1180]	@ 0x49c
 8003254:	b2da      	uxtb	r2, r3
 8003256:	683b      	ldr	r3, [r7, #0]
 8003258:	701a      	strb	r2, [r3, #0]
  req->bRequest = (uint8_t)((hpcd->Setup[0] >> 8) & 0xFFU);
 800325a:	687b      	ldr	r3, [r7, #4]
 800325c:	f8d3 349c 	ldr.w	r3, [r3, #1180]	@ 0x49c
 8003260:	0a1b      	lsrs	r3, r3, #8
 8003262:	b2da      	uxtb	r2, r3
 8003264:	683b      	ldr	r3, [r7, #0]
 8003266:	705a      	strb	r2, [r3, #1]
  req->wValue = (uint16_t)((hpcd->Setup[0] >> 16) & 0xFFFFU);
 8003268:	687b      	ldr	r3, [r7, #4]
 800326a:	f8d3 349c 	ldr.w	r3, [r3, #1180]	@ 0x49c
 800326e:	0c1b      	lsrs	r3, r3, #16
 8003270:	b29a      	uxth	r2, r3
 8003272:	683b      	ldr	r3, [r7, #0]
 8003274:	805a      	strh	r2, [r3, #2]
  req->wIndex = (uint16_t)(hpcd->Setup[1] & 0xFFFFU);
 8003276:	687b      	ldr	r3, [r7, #4]
 8003278:	f8d3 34a0 	ldr.w	r3, [r3, #1184]	@ 0x4a0
 800327c:	b29a      	uxth	r2, r3
 800327e:	683b      	ldr	r3, [r7, #0]
 8003280:	809a      	strh	r2, [r3, #4]
  req->wLength = (uint16_t)((hpcd->Setup[1] >> 16) & 0xFFFFU);
 8003282:	687b      	ldr	r3, [r7, #4]
 8003284:	f8d3 34a0 	ldr.w	r3, [r3, #1184]	@ 0x4a0
 8003288:	0c1b      	lsrs	r3, r3, #16
 800328a:	b29a      	uxth	r2, r3
 800328c:	683b      	ldr	r3, [r7, #0]
 800328e:	80da      	strh	r2, [r3, #6]
}
 8003290:	bf00      	nop
 8003292:	370c      	adds	r7, #12
 8003294:	46bd      	mov	sp, r7
 8003296:	f85d 7b04 	ldr.w	r7, [sp], #4
 800329a:	4770      	bx	lr

0800329c <USBHSDebug_HandleStandardRequest>:

static void USBHSDebug_HandleStandardRequest(PCD_HandleTypeDef *hpcd,
                                             const USBHSDebug_SetupRequest *req)
{
 800329c:	b580      	push	{r7, lr}
 800329e:	b084      	sub	sp, #16
 80032a0:	af00      	add	r7, sp, #0
 80032a2:	6078      	str	r0, [r7, #4]
 80032a4:	6039      	str	r1, [r7, #0]
  uint8_t desc_type = (uint8_t)(req->wValue >> 8);
 80032a6:	683b      	ldr	r3, [r7, #0]
 80032a8:	885b      	ldrh	r3, [r3, #2]
 80032aa:	0a1b      	lsrs	r3, r3, #8
 80032ac:	b29b      	uxth	r3, r3
 80032ae:	73fb      	strb	r3, [r7, #15]
  uint8_t desc_index = (uint8_t)(req->wValue & 0xFFU);
 80032b0:	683b      	ldr	r3, [r7, #0]
 80032b2:	885b      	ldrh	r3, [r3, #2]
 80032b4:	73bb      	strb	r3, [r7, #14]

  switch (req->bRequest)
 80032b6:	683b      	ldr	r3, [r7, #0]
 80032b8:	785b      	ldrb	r3, [r3, #1]
 80032ba:	2b0b      	cmp	r3, #11
 80032bc:	f200 810f 	bhi.w	80034de <USBHSDebug_HandleStandardRequest+0x242>
 80032c0:	a201      	add	r2, pc, #4	@ (adr r2, 80032c8 <USBHSDebug_HandleStandardRequest+0x2c>)
 80032c2:	f852 f023 	ldr.w	pc, [r2, r3, lsl #2]
 80032c6:	bf00      	nop
 80032c8:	080034a5 	.word	0x080034a5
 80032cc:	080034c1 	.word	0x080034c1
 80032d0:	080034df 	.word	0x080034df
 80032d4:	080034c1 	.word	0x080034c1
 80032d8:	080034df 	.word	0x080034df
 80032dc:	080033ed 	.word	0x080033ed
 80032e0:	080032f9 	.word	0x080032f9
 80032e4:	080034df 	.word	0x080034df
 80032e8:	0800348d 	.word	0x0800348d
 80032ec:	08003423 	.word	0x08003423
 80032f0:	080034c9 	.word	0x080034c9
 80032f4:	080034c1 	.word	0x080034c1
  {
    case USB_REQ_GET_DESCRIPTOR:
      if (desc_type == USB_DESC_TYPE_DEVICE)
 80032f8:	7bfb      	ldrb	r3, [r7, #15]
 80032fa:	2b01      	cmp	r3, #1
 80032fc:	d107      	bne.n	800330e <USBHSDebug_HandleStandardRequest+0x72>
      {
        USBHSDebug_SendControlData(hpcd,
                                   usb_hs_debug_device_desc,
                                   sizeof(usb_hs_debug_device_desc),
                                   req->wLength);
 80032fe:	683b      	ldr	r3, [r7, #0]
 8003300:	88db      	ldrh	r3, [r3, #6]
        USBHSDebug_SendControlData(hpcd,
 8003302:	2212      	movs	r2, #18
 8003304:	497a      	ldr	r1, [pc, #488]	@ (80034f0 <USBHSDebug_HandleStandardRequest+0x254>)
 8003306:	6878      	ldr	r0, [r7, #4]
 8003308:	f000 f952 	bl	80035b0 <USBHSDebug_SendControlData>
      }
      else
      {
        USBHSDebug_StallControl(hpcd);
      }
      break;
 800330c:	e0eb      	b.n	80034e6 <USBHSDebug_HandleStandardRequest+0x24a>
      else if (desc_type == USB_DESC_TYPE_CONFIGURATION)
 800330e:	7bfb      	ldrb	r3, [r7, #15]
 8003310:	2b02      	cmp	r3, #2
 8003312:	d10f      	bne.n	8003334 <USBHSDebug_HandleStandardRequest+0x98>
        USBHSDebug_BuildConfigDescriptor(USB_DESC_TYPE_CONFIGURATION,
 8003314:	6878      	ldr	r0, [r7, #4]
 8003316:	f000 f9cb 	bl	80036b0 <USBHSDebug_BulkMps>
 800331a:	4603      	mov	r3, r0
 800331c:	4619      	mov	r1, r3
 800331e:	2002      	movs	r0, #2
 8003320:	f000 f9d8 	bl	80036d4 <USBHSDebug_BuildConfigDescriptor>
                                   req->wLength);
 8003324:	683b      	ldr	r3, [r7, #0]
 8003326:	88db      	ldrh	r3, [r3, #6]
        USBHSDebug_SendControlData(hpcd,
 8003328:	2219      	movs	r2, #25
 800332a:	4972      	ldr	r1, [pc, #456]	@ (80034f4 <USBHSDebug_HandleStandardRequest+0x258>)
 800332c:	6878      	ldr	r0, [r7, #4]
 800332e:	f000 f93f 	bl	80035b0 <USBHSDebug_SendControlData>
      break;
 8003332:	e0d8      	b.n	80034e6 <USBHSDebug_HandleStandardRequest+0x24a>
      else if (desc_type == USB_DESC_TYPE_OTHER_SPEED)
 8003334:	7bfb      	ldrb	r3, [r7, #15]
 8003336:	2b07      	cmp	r3, #7
 8003338:	d10b      	bne.n	8003352 <USBHSDebug_HandleStandardRequest+0xb6>
        USBHSDebug_BuildConfigDescriptor(USB_DESC_TYPE_OTHER_SPEED,
 800333a:	2140      	movs	r1, #64	@ 0x40
 800333c:	2007      	movs	r0, #7
 800333e:	f000 f9c9 	bl	80036d4 <USBHSDebug_BuildConfigDescriptor>
                                   req->wLength);
 8003342:	683b      	ldr	r3, [r7, #0]
 8003344:	88db      	ldrh	r3, [r3, #6]
        USBHSDebug_SendControlData(hpcd,
 8003346:	2219      	movs	r2, #25
 8003348:	496a      	ldr	r1, [pc, #424]	@ (80034f4 <USBHSDebug_HandleStandardRequest+0x258>)
 800334a:	6878      	ldr	r0, [r7, #4]
 800334c:	f000 f930 	bl	80035b0 <USBHSDebug_SendControlData>
      break;
 8003350:	e0c9      	b.n	80034e6 <USBHSDebug_HandleStandardRequest+0x24a>
      else if (desc_type == USB_DESC_TYPE_DEVICE_QUALIFIER)
 8003352:	7bfb      	ldrb	r3, [r7, #15]
 8003354:	2b06      	cmp	r3, #6
 8003356:	d107      	bne.n	8003368 <USBHSDebug_HandleStandardRequest+0xcc>
                                   req->wLength);
 8003358:	683b      	ldr	r3, [r7, #0]
 800335a:	88db      	ldrh	r3, [r3, #6]
        USBHSDebug_SendControlData(hpcd,
 800335c:	220a      	movs	r2, #10
 800335e:	4966      	ldr	r1, [pc, #408]	@ (80034f8 <USBHSDebug_HandleStandardRequest+0x25c>)
 8003360:	6878      	ldr	r0, [r7, #4]
 8003362:	f000 f925 	bl	80035b0 <USBHSDebug_SendControlData>
      break;
 8003366:	e0be      	b.n	80034e6 <USBHSDebug_HandleStandardRequest+0x24a>
      else if (desc_type == USB_DESC_TYPE_STRING)
 8003368:	7bfb      	ldrb	r3, [r7, #15]
 800336a:	2b03      	cmp	r3, #3
 800336c:	d13a      	bne.n	80033e4 <USBHSDebug_HandleStandardRequest+0x148>
        if (desc_index == 0U)
 800336e:	7bbb      	ldrb	r3, [r7, #14]
 8003370:	2b00      	cmp	r3, #0
 8003372:	d107      	bne.n	8003384 <USBHSDebug_HandleStandardRequest+0xe8>
                                     req->wLength);
 8003374:	683b      	ldr	r3, [r7, #0]
 8003376:	88db      	ldrh	r3, [r3, #6]
          USBHSDebug_SendControlData(hpcd,
 8003378:	2204      	movs	r2, #4
 800337a:	4960      	ldr	r1, [pc, #384]	@ (80034fc <USBHSDebug_HandleStandardRequest+0x260>)
 800337c:	6878      	ldr	r0, [r7, #4]
 800337e:	f000 f917 	bl	80035b0 <USBHSDebug_SendControlData>
      break;
 8003382:	e0b0      	b.n	80034e6 <USBHSDebug_HandleStandardRequest+0x24a>
        else if (desc_index == 1U)
 8003384:	7bbb      	ldrb	r3, [r7, #14]
 8003386:	2b01      	cmp	r3, #1
 8003388:	d107      	bne.n	800339a <USBHSDebug_HandleStandardRequest+0xfe>
                                     req->wLength);
 800338a:	683b      	ldr	r3, [r7, #0]
 800338c:	88db      	ldrh	r3, [r3, #6]
          USBHSDebug_SendControlData(hpcd,
 800338e:	220c      	movs	r2, #12
 8003390:	495b      	ldr	r1, [pc, #364]	@ (8003500 <USBHSDebug_HandleStandardRequest+0x264>)
 8003392:	6878      	ldr	r0, [r7, #4]
 8003394:	f000 f90c 	bl	80035b0 <USBHSDebug_SendControlData>
      break;
 8003398:	e0a5      	b.n	80034e6 <USBHSDebug_HandleStandardRequest+0x24a>
        else if (desc_index == 2U)
 800339a:	7bbb      	ldrb	r3, [r7, #14]
 800339c:	2b02      	cmp	r3, #2
 800339e:	d107      	bne.n	80033b0 <USBHSDebug_HandleStandardRequest+0x114>
                                     req->wLength);
 80033a0:	683b      	ldr	r3, [r7, #0]
 80033a2:	88db      	ldrh	r3, [r3, #6]
          USBHSDebug_SendControlData(hpcd,
 80033a4:	2232      	movs	r2, #50	@ 0x32
 80033a6:	4957      	ldr	r1, [pc, #348]	@ (8003504 <USBHSDebug_HandleStandardRequest+0x268>)
 80033a8:	6878      	ldr	r0, [r7, #4]
 80033aa:	f000 f901 	bl	80035b0 <USBHSDebug_SendControlData>
      break;
 80033ae:	e09a      	b.n	80034e6 <USBHSDebug_HandleStandardRequest+0x24a>
        else if (desc_index == 3U)
 80033b0:	7bbb      	ldrb	r3, [r7, #14]
 80033b2:	2b03      	cmp	r3, #3
 80033b4:	d107      	bne.n	80033c6 <USBHSDebug_HandleStandardRequest+0x12a>
                                     req->wLength);
 80033b6:	683b      	ldr	r3, [r7, #0]
 80033b8:	88db      	ldrh	r3, [r3, #6]
          USBHSDebug_SendControlData(hpcd,
 80033ba:	2214      	movs	r2, #20
 80033bc:	4952      	ldr	r1, [pc, #328]	@ (8003508 <USBHSDebug_HandleStandardRequest+0x26c>)
 80033be:	6878      	ldr	r0, [r7, #4]
 80033c0:	f000 f8f6 	bl	80035b0 <USBHSDebug_SendControlData>
      break;
 80033c4:	e08f      	b.n	80034e6 <USBHSDebug_HandleStandardRequest+0x24a>
        else if (desc_index == 0xEEU)
 80033c6:	7bbb      	ldrb	r3, [r7, #14]
 80033c8:	2bee      	cmp	r3, #238	@ 0xee
 80033ca:	d107      	bne.n	80033dc <USBHSDebug_HandleStandardRequest+0x140>
                                     req->wLength);
 80033cc:	683b      	ldr	r3, [r7, #0]
 80033ce:	88db      	ldrh	r3, [r3, #6]
          USBHSDebug_SendControlData(hpcd,
 80033d0:	2212      	movs	r2, #18
 80033d2:	494e      	ldr	r1, [pc, #312]	@ (800350c <USBHSDebug_HandleStandardRequest+0x270>)
 80033d4:	6878      	ldr	r0, [r7, #4]
 80033d6:	f000 f8eb 	bl	80035b0 <USBHSDebug_SendControlData>
      break;
 80033da:	e084      	b.n	80034e6 <USBHSDebug_HandleStandardRequest+0x24a>
          USBHSDebug_StallControl(hpcd);
 80033dc:	6878      	ldr	r0, [r7, #4]
 80033de:	f000 f951 	bl	8003684 <USBHSDebug_StallControl>
      break;
 80033e2:	e080      	b.n	80034e6 <USBHSDebug_HandleStandardRequest+0x24a>
        USBHSDebug_StallControl(hpcd);
 80033e4:	6878      	ldr	r0, [r7, #4]
 80033e6:	f000 f94d 	bl	8003684 <USBHSDebug_StallControl>
      break;
 80033ea:	e07c      	b.n	80034e6 <USBHSDebug_HandleStandardRequest+0x24a>

    case USB_REQ_SET_ADDRESS:
      usb_hs_debug_pending_address = (uint8_t)(req->wValue & 0x7FU);
 80033ec:	683b      	ldr	r3, [r7, #0]
 80033ee:	885b      	ldrh	r3, [r3, #2]
 80033f0:	b2db      	uxtb	r3, r3
 80033f2:	f003 037f 	and.w	r3, r3, #127	@ 0x7f
 80033f6:	b2da      	uxtb	r2, r3
 80033f8:	4b45      	ldr	r3, [pc, #276]	@ (8003510 <USBHSDebug_HandleStandardRequest+0x274>)
 80033fa:	701a      	strb	r2, [r3, #0]
      usb_hs_debug_has_pending_address = 0U;
 80033fc:	4b45      	ldr	r3, [pc, #276]	@ (8003514 <USBHSDebug_HandleStandardRequest+0x278>)
 80033fe:	2200      	movs	r2, #0
 8003400:	701a      	strb	r2, [r3, #0]
      (void)HAL_PCD_SetAddress(hpcd, usb_hs_debug_pending_address);
 8003402:	4b43      	ldr	r3, [pc, #268]	@ (8003510 <USBHSDebug_HandleStandardRequest+0x274>)
 8003404:	781b      	ldrb	r3, [r3, #0]
 8003406:	4619      	mov	r1, r3
 8003408:	6878      	ldr	r0, [r7, #4]
 800340a:	f001 fff5 	bl	80053f8 <HAL_PCD_SetAddress>
      printf("USB HS DEBUG: set address %lu\r\n",
 800340e:	4b40      	ldr	r3, [pc, #256]	@ (8003510 <USBHSDebug_HandleStandardRequest+0x274>)
 8003410:	781b      	ldrb	r3, [r3, #0]
 8003412:	4619      	mov	r1, r3
 8003414:	4840      	ldr	r0, [pc, #256]	@ (8003518 <USBHSDebug_HandleStandardRequest+0x27c>)
 8003416:	f004 fefd 	bl	8008214 <iprintf>
             (unsigned long)usb_hs_debug_pending_address);
      USBHSDebug_SendStatus(hpcd);
 800341a:	6878      	ldr	r0, [r7, #4]
 800341c:	f000 f906 	bl	800362c <USBHSDebug_SendStatus>
      break;
 8003420:	e061      	b.n	80034e6 <USBHSDebug_HandleStandardRequest+0x24a>

    case USB_REQ_SET_CONFIGURATION:
      if ((req->wValue == 0U) || (req->wValue == 1U))
 8003422:	683b      	ldr	r3, [r7, #0]
 8003424:	885b      	ldrh	r3, [r3, #2]
 8003426:	2b00      	cmp	r3, #0
 8003428:	d003      	beq.n	8003432 <USBHSDebug_HandleStandardRequest+0x196>
 800342a:	683b      	ldr	r3, [r7, #0]
 800342c:	885b      	ldrh	r3, [r3, #2]
 800342e:	2b01      	cmp	r3, #1
 8003430:	d128      	bne.n	8003484 <USBHSDebug_HandleStandardRequest+0x1e8>
      {
        usb_hs_debug_configuration = (uint8_t)req->wValue;
 8003432:	683b      	ldr	r3, [r7, #0]
 8003434:	885b      	ldrh	r3, [r3, #2]
 8003436:	b2da      	uxtb	r2, r3
 8003438:	4b38      	ldr	r3, [pc, #224]	@ (800351c <USBHSDebug_HandleStandardRequest+0x280>)
 800343a:	701a      	strb	r2, [r3, #0]
        usb_hs_debug_tx_busy = 0U;
 800343c:	4b38      	ldr	r3, [pc, #224]	@ (8003520 <USBHSDebug_HandleStandardRequest+0x284>)
 800343e:	2200      	movs	r2, #0
 8003440:	701a      	strb	r2, [r3, #0]
        usb_hs_debug_stream_enabled = 0U;
 8003442:	4b38      	ldr	r3, [pc, #224]	@ (8003524 <USBHSDebug_HandleStandardRequest+0x288>)
 8003444:	2200      	movs	r2, #0
 8003446:	701a      	strb	r2, [r3, #0]
        usb_hs_debug_sequence = 0U;
 8003448:	4b37      	ldr	r3, [pc, #220]	@ (8003528 <USBHSDebug_HandleStandardRequest+0x28c>)
 800344a:	2200      	movs	r2, #0
 800344c:	601a      	str	r2, [r3, #0]
        usb_hs_debug_first_stream_tx_reported = 0U;
 800344e:	4b37      	ldr	r3, [pc, #220]	@ (800352c <USBHSDebug_HandleStandardRequest+0x290>)
 8003450:	2200      	movs	r2, #0
 8003452:	701a      	strb	r2, [r3, #0]
        usb_hs_debug_current_tx_data = NULL;
 8003454:	4b36      	ldr	r3, [pc, #216]	@ (8003530 <USBHSDebug_HandleStandardRequest+0x294>)
 8003456:	2200      	movs	r2, #0
 8003458:	601a      	str	r2, [r3, #0]
        usb_hs_debug_current_tx_len = 0U;
 800345a:	4b36      	ldr	r3, [pc, #216]	@ (8003534 <USBHSDebug_HandleStandardRequest+0x298>)
 800345c:	2200      	movs	r2, #0
 800345e:	601a      	str	r2, [r3, #0]

        if (usb_hs_debug_configuration != 0U)
 8003460:	4b2e      	ldr	r3, [pc, #184]	@ (800351c <USBHSDebug_HandleStandardRequest+0x280>)
 8003462:	781b      	ldrb	r3, [r3, #0]
 8003464:	2b00      	cmp	r3, #0
 8003466:	d006      	beq.n	8003476 <USBHSDebug_HandleStandardRequest+0x1da>
        {
          USBHSDebug_OpenBulkIn(hpcd);
 8003468:	6878      	ldr	r0, [r7, #4]
 800346a:	f000 f993 	bl	8003794 <USBHSDebug_OpenBulkIn>
          usb_hs_debug_stream_enabled = 1U;
 800346e:	4b2d      	ldr	r3, [pc, #180]	@ (8003524 <USBHSDebug_HandleStandardRequest+0x288>)
 8003470:	2201      	movs	r2, #1
 8003472:	701a      	strb	r2, [r3, #0]
 8003474:	e002      	b.n	800347c <USBHSDebug_HandleStandardRequest+0x1e0>
        }
        else
        {
          USBHSDebug_CloseBulkIn(hpcd);
 8003476:	6878      	ldr	r0, [r7, #4]
 8003478:	f000 f9aa 	bl	80037d0 <USBHSDebug_CloseBulkIn>
        }

        USBHSDebug_SendStatus(hpcd);
 800347c:	6878      	ldr	r0, [r7, #4]
 800347e:	f000 f8d5 	bl	800362c <USBHSDebug_SendStatus>
      }
      else
      {
        USBHSDebug_StallControl(hpcd);
      }
      break;
 8003482:	e030      	b.n	80034e6 <USBHSDebug_HandleStandardRequest+0x24a>
        USBHSDebug_StallControl(hpcd);
 8003484:	6878      	ldr	r0, [r7, #4]
 8003486:	f000 f8fd 	bl	8003684 <USBHSDebug_StallControl>
      break;
 800348a:	e02c      	b.n	80034e6 <USBHSDebug_HandleStandardRequest+0x24a>

    case USB_REQ_GET_CONFIGURATION:
      usb_hs_debug_ep0_buffer[0] = usb_hs_debug_configuration;
 800348c:	4b23      	ldr	r3, [pc, #140]	@ (800351c <USBHSDebug_HandleStandardRequest+0x280>)
 800348e:	781a      	ldrb	r2, [r3, #0]
 8003490:	4b18      	ldr	r3, [pc, #96]	@ (80034f4 <USBHSDebug_HandleStandardRequest+0x258>)
 8003492:	701a      	strb	r2, [r3, #0]
      USBHSDebug_SendControlData(hpcd, usb_hs_debug_ep0_buffer, 1U, req->wLength);
 8003494:	683b      	ldr	r3, [r7, #0]
 8003496:	88db      	ldrh	r3, [r3, #6]
 8003498:	2201      	movs	r2, #1
 800349a:	4916      	ldr	r1, [pc, #88]	@ (80034f4 <USBHSDebug_HandleStandardRequest+0x258>)
 800349c:	6878      	ldr	r0, [r7, #4]
 800349e:	f000 f887 	bl	80035b0 <USBHSDebug_SendControlData>
      break;
 80034a2:	e020      	b.n	80034e6 <USBHSDebug_HandleStandardRequest+0x24a>

    case USB_REQ_GET_STATUS:
      usb_hs_debug_ep0_buffer[0] = 0U;
 80034a4:	4b13      	ldr	r3, [pc, #76]	@ (80034f4 <USBHSDebug_HandleStandardRequest+0x258>)
 80034a6:	2200      	movs	r2, #0
 80034a8:	701a      	strb	r2, [r3, #0]
      usb_hs_debug_ep0_buffer[1] = 0U;
 80034aa:	4b12      	ldr	r3, [pc, #72]	@ (80034f4 <USBHSDebug_HandleStandardRequest+0x258>)
 80034ac:	2200      	movs	r2, #0
 80034ae:	705a      	strb	r2, [r3, #1]
      USBHSDebug_SendControlData(hpcd, usb_hs_debug_ep0_buffer, 2U, req->wLength);
 80034b0:	683b      	ldr	r3, [r7, #0]
 80034b2:	88db      	ldrh	r3, [r3, #6]
 80034b4:	2202      	movs	r2, #2
 80034b6:	490f      	ldr	r1, [pc, #60]	@ (80034f4 <USBHSDebug_HandleStandardRequest+0x258>)
 80034b8:	6878      	ldr	r0, [r7, #4]
 80034ba:	f000 f879 	bl	80035b0 <USBHSDebug_SendControlData>
      break;
 80034be:	e012      	b.n	80034e6 <USBHSDebug_HandleStandardRequest+0x24a>

    case USB_REQ_CLEAR_FEATURE:
    case USB_REQ_SET_FEATURE:
    case USB_REQ_SET_INTERFACE:
      USBHSDebug_SendStatus(hpcd);
 80034c0:	6878      	ldr	r0, [r7, #4]
 80034c2:	f000 f8b3 	bl	800362c <USBHSDebug_SendStatus>
      break;
 80034c6:	e00e      	b.n	80034e6 <USBHSDebug_HandleStandardRequest+0x24a>

    case USB_REQ_GET_INTERFACE:
      usb_hs_debug_ep0_buffer[0] = 0U;
 80034c8:	4b0a      	ldr	r3, [pc, #40]	@ (80034f4 <USBHSDebug_HandleStandardRequest+0x258>)
 80034ca:	2200      	movs	r2, #0
 80034cc:	701a      	strb	r2, [r3, #0]
      USBHSDebug_SendControlData(hpcd, usb_hs_debug_ep0_buffer, 1U, req->wLength);
 80034ce:	683b      	ldr	r3, [r7, #0]
 80034d0:	88db      	ldrh	r3, [r3, #6]
 80034d2:	2201      	movs	r2, #1
 80034d4:	4907      	ldr	r1, [pc, #28]	@ (80034f4 <USBHSDebug_HandleStandardRequest+0x258>)
 80034d6:	6878      	ldr	r0, [r7, #4]
 80034d8:	f000 f86a 	bl	80035b0 <USBHSDebug_SendControlData>
      break;
 80034dc:	e003      	b.n	80034e6 <USBHSDebug_HandleStandardRequest+0x24a>

    default:
      USBHSDebug_StallControl(hpcd);
 80034de:	6878      	ldr	r0, [r7, #4]
 80034e0:	f000 f8d0 	bl	8003684 <USBHSDebug_StallControl>
      break;
 80034e4:	bf00      	nop
  }
}
 80034e6:	bf00      	nop
 80034e8:	3710      	adds	r7, #16
 80034ea:	46bd      	mov	sp, r7
 80034ec:	bd80      	pop	{r7, pc}
 80034ee:	bf00      	nop
 80034f0:	0800a83c 	.word	0x0800a83c
 80034f4:	200296b4 	.word	0x200296b4
 80034f8:	0800a850 	.word	0x0800a850
 80034fc:	0800a85c 	.word	0x0800a85c
 8003500:	0800a860 	.word	0x0800a860
 8003504:	0800a86c 	.word	0x0800a86c
 8003508:	0800a8a0 	.word	0x0800a8a0
 800350c:	0800a8b4 	.word	0x0800a8b4
 8003510:	20028689 	.word	0x20028689
 8003514:	2002868a 	.word	0x2002868a
 8003518:	0800a5a4 	.word	0x0800a5a4
 800351c:	20028688 	.word	0x20028688
 8003520:	2002868c 	.word	0x2002868c
 8003524:	2002868d 	.word	0x2002868d
 8003528:	200296f4 	.word	0x200296f4
 800352c:	200286a1 	.word	0x200286a1
 8003530:	200286a8 	.word	0x200286a8
 8003534:	200286a4 	.word	0x200286a4

08003538 <USBHSDebug_HandleVendorRequest>:

static void USBHSDebug_HandleVendorRequest(PCD_HandleTypeDef *hpcd,
                                           const USBHSDebug_SetupRequest *req)
{
 8003538:	b580      	push	{r7, lr}
 800353a:	b082      	sub	sp, #8
 800353c:	af00      	add	r7, sp, #0
 800353e:	6078      	str	r0, [r7, #4]
 8003540:	6039      	str	r1, [r7, #0]
  if (((req->bmRequestType & 0x80U) != 0U) &&
 8003542:	683b      	ldr	r3, [r7, #0]
 8003544:	781b      	ldrb	r3, [r3, #0]
 8003546:	b25b      	sxtb	r3, r3
 8003548:	2b00      	cmp	r3, #0
 800354a:	da0f      	bge.n	800356c <USBHSDebug_HandleVendorRequest+0x34>
      (req->bRequest == USB_HS_DEBUG_MS_VENDOR_CODE) &&
 800354c:	683b      	ldr	r3, [r7, #0]
 800354e:	785b      	ldrb	r3, [r3, #1]
  if (((req->bmRequestType & 0x80U) != 0U) &&
 8003550:	2b21      	cmp	r3, #33	@ 0x21
 8003552:	d10b      	bne.n	800356c <USBHSDebug_HandleVendorRequest+0x34>
      (req->wIndex == 0x0004U))
 8003554:	683b      	ldr	r3, [r7, #0]
 8003556:	889b      	ldrh	r3, [r3, #4]
      (req->bRequest == USB_HS_DEBUG_MS_VENDOR_CODE) &&
 8003558:	2b04      	cmp	r3, #4
 800355a:	d107      	bne.n	800356c <USBHSDebug_HandleVendorRequest+0x34>
  {
    USBHSDebug_SendControlData(hpcd,
                               usb_hs_debug_ms_compat_id_desc,
                               sizeof(usb_hs_debug_ms_compat_id_desc),
                               req->wLength);
 800355c:	683b      	ldr	r3, [r7, #0]
 800355e:	88db      	ldrh	r3, [r3, #6]
    USBHSDebug_SendControlData(hpcd,
 8003560:	2228      	movs	r2, #40	@ 0x28
 8003562:	4910      	ldr	r1, [pc, #64]	@ (80035a4 <USBHSDebug_HandleVendorRequest+0x6c>)
 8003564:	6878      	ldr	r0, [r7, #4]
 8003566:	f000 f823 	bl	80035b0 <USBHSDebug_SendControlData>
 800356a:	e016      	b.n	800359a <USBHSDebug_HandleVendorRequest+0x62>
  }
  else if (((req->bmRequestType & 0x80U) == 0U) &&
 800356c:	683b      	ldr	r3, [r7, #0]
 800356e:	781b      	ldrb	r3, [r3, #0]
 8003570:	b25b      	sxtb	r3, r3
 8003572:	2b00      	cmp	r3, #0
 8003574:	db0d      	blt.n	8003592 <USBHSDebug_HandleVendorRequest+0x5a>
           (req->bRequest == USB_HS_DEBUG_REQ_START_STREAM))
 8003576:	683b      	ldr	r3, [r7, #0]
 8003578:	785b      	ldrb	r3, [r3, #1]
  else if (((req->bmRequestType & 0x80U) == 0U) &&
 800357a:	2b30      	cmp	r3, #48	@ 0x30
 800357c:	d109      	bne.n	8003592 <USBHSDebug_HandleVendorRequest+0x5a>
  {
    usb_hs_debug_stream_start_requested = 1U;
 800357e:	4b0a      	ldr	r3, [pc, #40]	@ (80035a8 <USBHSDebug_HandleVendorRequest+0x70>)
 8003580:	2201      	movs	r2, #1
 8003582:	701a      	strb	r2, [r3, #0]
    printf("USB HS DEBUG: host requested radar stream start\r\n");
 8003584:	4809      	ldr	r0, [pc, #36]	@ (80035ac <USBHSDebug_HandleVendorRequest+0x74>)
 8003586:	f004 fead 	bl	80082e4 <puts>
    USBHSDebug_SendStatus(hpcd);
 800358a:	6878      	ldr	r0, [r7, #4]
 800358c:	f000 f84e 	bl	800362c <USBHSDebug_SendStatus>
 8003590:	e003      	b.n	800359a <USBHSDebug_HandleVendorRequest+0x62>
  }
  else
  {
    USBHSDebug_StallControl(hpcd);
 8003592:	6878      	ldr	r0, [r7, #4]
 8003594:	f000 f876 	bl	8003684 <USBHSDebug_StallControl>
  }
}
 8003598:	bf00      	nop
 800359a:	bf00      	nop
 800359c:	3708      	adds	r7, #8
 800359e:	46bd      	mov	sp, r7
 80035a0:	bd80      	pop	{r7, pc}
 80035a2:	bf00      	nop
 80035a4:	0800a8c8 	.word	0x0800a8c8
 80035a8:	200286a0 	.word	0x200286a0
 80035ac:	0800a5c4 	.word	0x0800a5c4

080035b0 <USBHSDebug_SendControlData>:

static void USBHSDebug_SendControlData(PCD_HandleTypeDef *hpcd,
                                       const uint8_t *data,
                                       uint16_t data_len,
                                       uint16_t requested_len)
{
 80035b0:	b580      	push	{r7, lr}
 80035b2:	b086      	sub	sp, #24
 80035b4:	af00      	add	r7, sp, #0
 80035b6:	60f8      	str	r0, [r7, #12]
 80035b8:	60b9      	str	r1, [r7, #8]
 80035ba:	4611      	mov	r1, r2
 80035bc:	461a      	mov	r2, r3
 80035be:	460b      	mov	r3, r1
 80035c0:	80fb      	strh	r3, [r7, #6]
 80035c2:	4613      	mov	r3, r2
 80035c4:	80bb      	strh	r3, [r7, #4]
  uint16_t send_len = data_len;
 80035c6:	88fb      	ldrh	r3, [r7, #6]
 80035c8:	82fb      	strh	r3, [r7, #22]

  if (requested_len < send_len)
 80035ca:	88ba      	ldrh	r2, [r7, #4]
 80035cc:	8afb      	ldrh	r3, [r7, #22]
 80035ce:	429a      	cmp	r2, r3
 80035d0:	d201      	bcs.n	80035d6 <USBHSDebug_SendControlData+0x26>
  {
    send_len = requested_len;
 80035d2:	88bb      	ldrh	r3, [r7, #4]
 80035d4:	82fb      	strh	r3, [r7, #22]
  }
  if (send_len > sizeof(usb_hs_debug_ep0_buffer))
 80035d6:	8afb      	ldrh	r3, [r7, #22]
 80035d8:	2b40      	cmp	r3, #64	@ 0x40
 80035da:	d901      	bls.n	80035e0 <USBHSDebug_SendControlData+0x30>
  {
    send_len = sizeof(usb_hs_debug_ep0_buffer);
 80035dc:	2340      	movs	r3, #64	@ 0x40
 80035de:	82fb      	strh	r3, [r7, #22]
  }

  if (data != usb_hs_debug_ep0_buffer)
 80035e0:	68bb      	ldr	r3, [r7, #8]
 80035e2:	4a10      	ldr	r2, [pc, #64]	@ (8003624 <USBHSDebug_SendControlData+0x74>)
 80035e4:	4293      	cmp	r3, r2
 80035e6:	d010      	beq.n	800360a <USBHSDebug_SendControlData+0x5a>
  {
    for (uint16_t i = 0U; i < send_len; ++i)
 80035e8:	2300      	movs	r3, #0
 80035ea:	82bb      	strh	r3, [r7, #20]
 80035ec:	e009      	b.n	8003602 <USBHSDebug_SendControlData+0x52>
    {
      usb_hs_debug_ep0_buffer[i] = data[i];
 80035ee:	8abb      	ldrh	r3, [r7, #20]
 80035f0:	68ba      	ldr	r2, [r7, #8]
 80035f2:	441a      	add	r2, r3
 80035f4:	8abb      	ldrh	r3, [r7, #20]
 80035f6:	7811      	ldrb	r1, [r2, #0]
 80035f8:	4a0a      	ldr	r2, [pc, #40]	@ (8003624 <USBHSDebug_SendControlData+0x74>)
 80035fa:	54d1      	strb	r1, [r2, r3]
    for (uint16_t i = 0U; i < send_len; ++i)
 80035fc:	8abb      	ldrh	r3, [r7, #20]
 80035fe:	3301      	adds	r3, #1
 8003600:	82bb      	strh	r3, [r7, #20]
 8003602:	8aba      	ldrh	r2, [r7, #20]
 8003604:	8afb      	ldrh	r3, [r7, #22]
 8003606:	429a      	cmp	r2, r3
 8003608:	d3f1      	bcc.n	80035ee <USBHSDebug_SendControlData+0x3e>
    }
  }

  usb_hs_debug_ep0_state = USB_HS_DEBUG_EP0_DATA_IN;
 800360a:	4b07      	ldr	r3, [pc, #28]	@ (8003628 <USBHSDebug_SendControlData+0x78>)
 800360c:	2201      	movs	r2, #1
 800360e:	701a      	strb	r2, [r3, #0]
  (void)HAL_PCD_EP_Transmit(hpcd, 0x80U, usb_hs_debug_ep0_buffer, send_len);
 8003610:	8afb      	ldrh	r3, [r7, #22]
 8003612:	4a04      	ldr	r2, [pc, #16]	@ (8003624 <USBHSDebug_SendControlData+0x74>)
 8003614:	2180      	movs	r1, #128	@ 0x80
 8003616:	68f8      	ldr	r0, [r7, #12]
 8003618:	f002 f819 	bl	800564e <HAL_PCD_EP_Transmit>
}
 800361c:	bf00      	nop
 800361e:	3718      	adds	r7, #24
 8003620:	46bd      	mov	sp, r7
 8003622:	bd80      	pop	{r7, pc}
 8003624:	200296b4 	.word	0x200296b4
 8003628:	2002868b 	.word	0x2002868b

0800362c <USBHSDebug_SendStatus>:

static void USBHSDebug_SendStatus(PCD_HandleTypeDef *hpcd)
{
 800362c:	b580      	push	{r7, lr}
 800362e:	b082      	sub	sp, #8
 8003630:	af00      	add	r7, sp, #0
 8003632:	6078      	str	r0, [r7, #4]
  usb_hs_debug_ep0_state = USB_HS_DEBUG_EP0_STATUS_IN;
 8003634:	4b06      	ldr	r3, [pc, #24]	@ (8003650 <USBHSDebug_SendStatus+0x24>)
 8003636:	2202      	movs	r2, #2
 8003638:	701a      	strb	r2, [r3, #0]
  (void)HAL_PCD_EP_Transmit(hpcd, 0x80U, usb_hs_debug_ep0_buffer, 0U);
 800363a:	2300      	movs	r3, #0
 800363c:	4a05      	ldr	r2, [pc, #20]	@ (8003654 <USBHSDebug_SendStatus+0x28>)
 800363e:	2180      	movs	r1, #128	@ 0x80
 8003640:	6878      	ldr	r0, [r7, #4]
 8003642:	f002 f804 	bl	800564e <HAL_PCD_EP_Transmit>
}
 8003646:	bf00      	nop
 8003648:	3708      	adds	r7, #8
 800364a:	46bd      	mov	sp, r7
 800364c:	bd80      	pop	{r7, pc}
 800364e:	bf00      	nop
 8003650:	2002868b 	.word	0x2002868b
 8003654:	200296b4 	.word	0x200296b4

08003658 <USBHSDebug_ReceiveStatusOut>:

static void USBHSDebug_ReceiveStatusOut(PCD_HandleTypeDef *hpcd)
{
 8003658:	b580      	push	{r7, lr}
 800365a:	b082      	sub	sp, #8
 800365c:	af00      	add	r7, sp, #0
 800365e:	6078      	str	r0, [r7, #4]
  usb_hs_debug_ep0_state = USB_HS_DEBUG_EP0_STATUS_OUT;
 8003660:	4b06      	ldr	r3, [pc, #24]	@ (800367c <USBHSDebug_ReceiveStatusOut+0x24>)
 8003662:	2203      	movs	r2, #3
 8003664:	701a      	strb	r2, [r3, #0]
  (void)HAL_PCD_EP_Receive(hpcd, 0x00U, usb_hs_debug_ep0_buffer, 0U);
 8003666:	2300      	movs	r3, #0
 8003668:	4a05      	ldr	r2, [pc, #20]	@ (8003680 <USBHSDebug_ReceiveStatusOut+0x28>)
 800366a:	2100      	movs	r1, #0
 800366c:	6878      	ldr	r0, [r7, #4]
 800366e:	f001 ff9b 	bl	80055a8 <HAL_PCD_EP_Receive>
}
 8003672:	bf00      	nop
 8003674:	3708      	adds	r7, #8
 8003676:	46bd      	mov	sp, r7
 8003678:	bd80      	pop	{r7, pc}
 800367a:	bf00      	nop
 800367c:	2002868b 	.word	0x2002868b
 8003680:	200296b4 	.word	0x200296b4

08003684 <USBHSDebug_StallControl>:

static void USBHSDebug_StallControl(PCD_HandleTypeDef *hpcd)
{
 8003684:	b580      	push	{r7, lr}
 8003686:	b082      	sub	sp, #8
 8003688:	af00      	add	r7, sp, #0
 800368a:	6078      	str	r0, [r7, #4]
  usb_hs_debug_ep0_state = USB_HS_DEBUG_EP0_IDLE;
 800368c:	4b07      	ldr	r3, [pc, #28]	@ (80036ac <USBHSDebug_StallControl+0x28>)
 800368e:	2200      	movs	r2, #0
 8003690:	701a      	strb	r2, [r3, #0]
  (void)HAL_PCD_EP_SetStall(hpcd, 0x80U);
 8003692:	2180      	movs	r1, #128	@ 0x80
 8003694:	6878      	ldr	r0, [r7, #4]
 8003696:	f002 f814 	bl	80056c2 <HAL_PCD_EP_SetStall>
  (void)HAL_PCD_EP_SetStall(hpcd, 0x00U);
 800369a:	2100      	movs	r1, #0
 800369c:	6878      	ldr	r0, [r7, #4]
 800369e:	f002 f810 	bl	80056c2 <HAL_PCD_EP_SetStall>
}
 80036a2:	bf00      	nop
 80036a4:	3708      	adds	r7, #8
 80036a6:	46bd      	mov	sp, r7
 80036a8:	bd80      	pop	{r7, pc}
 80036aa:	bf00      	nop
 80036ac:	2002868b 	.word	0x2002868b

080036b0 <USBHSDebug_BulkMps>:

static uint16_t USBHSDebug_BulkMps(const PCD_HandleTypeDef *hpcd)
{
 80036b0:	b480      	push	{r7}
 80036b2:	b083      	sub	sp, #12
 80036b4:	af00      	add	r7, sp, #0
 80036b6:	6078      	str	r0, [r7, #4]
  return (hpcd->Init.speed == PCD_SPEED_HIGH) ?
 80036b8:	687b      	ldr	r3, [r7, #4]
 80036ba:	79db      	ldrb	r3, [r3, #7]
         USB_HS_DEBUG_HS_BULK_MPS :
 80036bc:	2b00      	cmp	r3, #0
 80036be:	d102      	bne.n	80036c6 <USBHSDebug_BulkMps+0x16>
 80036c0:	f44f 7300 	mov.w	r3, #512	@ 0x200
 80036c4:	e000      	b.n	80036c8 <USBHSDebug_BulkMps+0x18>
 80036c6:	2340      	movs	r3, #64	@ 0x40
         USB_HS_DEBUG_FS_BULK_MPS;
}
 80036c8:	4618      	mov	r0, r3
 80036ca:	370c      	adds	r7, #12
 80036cc:	46bd      	mov	sp, r7
 80036ce:	f85d 7b04 	ldr.w	r7, [sp], #4
 80036d2:	4770      	bx	lr

080036d4 <USBHSDebug_BuildConfigDescriptor>:

static void USBHSDebug_BuildConfigDescriptor(uint8_t descriptor_type,
                                             uint16_t bulk_mps)
{
 80036d4:	b480      	push	{r7}
 80036d6:	b083      	sub	sp, #12
 80036d8:	af00      	add	r7, sp, #0
 80036da:	4603      	mov	r3, r0
 80036dc:	460a      	mov	r2, r1
 80036de:	71fb      	strb	r3, [r7, #7]
 80036e0:	4613      	mov	r3, r2
 80036e2:	80bb      	strh	r3, [r7, #4]
  usb_hs_debug_ep0_buffer[0] = 0x09U;
 80036e4:	4b2a      	ldr	r3, [pc, #168]	@ (8003790 <USBHSDebug_BuildConfigDescriptor+0xbc>)
 80036e6:	2209      	movs	r2, #9
 80036e8:	701a      	strb	r2, [r3, #0]
  usb_hs_debug_ep0_buffer[1] = descriptor_type;
 80036ea:	4a29      	ldr	r2, [pc, #164]	@ (8003790 <USBHSDebug_BuildConfigDescriptor+0xbc>)
 80036ec:	79fb      	ldrb	r3, [r7, #7]
 80036ee:	7053      	strb	r3, [r2, #1]
  usb_hs_debug_ep0_buffer[2] = 25U;
 80036f0:	4b27      	ldr	r3, [pc, #156]	@ (8003790 <USBHSDebug_BuildConfigDescriptor+0xbc>)
 80036f2:	2219      	movs	r2, #25
 80036f4:	709a      	strb	r2, [r3, #2]
  usb_hs_debug_ep0_buffer[3] = 0x00U;
 80036f6:	4b26      	ldr	r3, [pc, #152]	@ (8003790 <USBHSDebug_BuildConfigDescriptor+0xbc>)
 80036f8:	2200      	movs	r2, #0
 80036fa:	70da      	strb	r2, [r3, #3]
  usb_hs_debug_ep0_buffer[4] = 0x01U;
 80036fc:	4b24      	ldr	r3, [pc, #144]	@ (8003790 <USBHSDebug_BuildConfigDescriptor+0xbc>)
 80036fe:	2201      	movs	r2, #1
 8003700:	711a      	strb	r2, [r3, #4]
  usb_hs_debug_ep0_buffer[5] = 0x01U;
 8003702:	4b23      	ldr	r3, [pc, #140]	@ (8003790 <USBHSDebug_BuildConfigDescriptor+0xbc>)
 8003704:	2201      	movs	r2, #1
 8003706:	715a      	strb	r2, [r3, #5]
  usb_hs_debug_ep0_buffer[6] = 0x00U;
 8003708:	4b21      	ldr	r3, [pc, #132]	@ (8003790 <USBHSDebug_BuildConfigDescriptor+0xbc>)
 800370a:	2200      	movs	r2, #0
 800370c:	719a      	strb	r2, [r3, #6]
  usb_hs_debug_ep0_buffer[7] = 0x80U;
 800370e:	4b20      	ldr	r3, [pc, #128]	@ (8003790 <USBHSDebug_BuildConfigDescriptor+0xbc>)
 8003710:	2280      	movs	r2, #128	@ 0x80
 8003712:	71da      	strb	r2, [r3, #7]
  usb_hs_debug_ep0_buffer[8] = 50U;
 8003714:	4b1e      	ldr	r3, [pc, #120]	@ (8003790 <USBHSDebug_BuildConfigDescriptor+0xbc>)
 8003716:	2232      	movs	r2, #50	@ 0x32
 8003718:	721a      	strb	r2, [r3, #8]

  usb_hs_debug_ep0_buffer[9] = 0x09U;
 800371a:	4b1d      	ldr	r3, [pc, #116]	@ (8003790 <USBHSDebug_BuildConfigDescriptor+0xbc>)
 800371c:	2209      	movs	r2, #9
 800371e:	725a      	strb	r2, [r3, #9]
  usb_hs_debug_ep0_buffer[10] = 0x04U;
 8003720:	4b1b      	ldr	r3, [pc, #108]	@ (8003790 <USBHSDebug_BuildConfigDescriptor+0xbc>)
 8003722:	2204      	movs	r2, #4
 8003724:	729a      	strb	r2, [r3, #10]
  usb_hs_debug_ep0_buffer[11] = 0x00U;
 8003726:	4b1a      	ldr	r3, [pc, #104]	@ (8003790 <USBHSDebug_BuildConfigDescriptor+0xbc>)
 8003728:	2200      	movs	r2, #0
 800372a:	72da      	strb	r2, [r3, #11]
  usb_hs_debug_ep0_buffer[12] = 0x00U;
 800372c:	4b18      	ldr	r3, [pc, #96]	@ (8003790 <USBHSDebug_BuildConfigDescriptor+0xbc>)
 800372e:	2200      	movs	r2, #0
 8003730:	731a      	strb	r2, [r3, #12]
  usb_hs_debug_ep0_buffer[13] = 0x01U;
 8003732:	4b17      	ldr	r3, [pc, #92]	@ (8003790 <USBHSDebug_BuildConfigDescriptor+0xbc>)
 8003734:	2201      	movs	r2, #1
 8003736:	735a      	strb	r2, [r3, #13]
  usb_hs_debug_ep0_buffer[14] = 0xFFU;
 8003738:	4b15      	ldr	r3, [pc, #84]	@ (8003790 <USBHSDebug_BuildConfigDescriptor+0xbc>)
 800373a:	22ff      	movs	r2, #255	@ 0xff
 800373c:	739a      	strb	r2, [r3, #14]
  usb_hs_debug_ep0_buffer[15] = 0x00U;
 800373e:	4b14      	ldr	r3, [pc, #80]	@ (8003790 <USBHSDebug_BuildConfigDescriptor+0xbc>)
 8003740:	2200      	movs	r2, #0
 8003742:	73da      	strb	r2, [r3, #15]
  usb_hs_debug_ep0_buffer[16] = 0x00U;
 8003744:	4b12      	ldr	r3, [pc, #72]	@ (8003790 <USBHSDebug_BuildConfigDescriptor+0xbc>)
 8003746:	2200      	movs	r2, #0
 8003748:	741a      	strb	r2, [r3, #16]
  usb_hs_debug_ep0_buffer[17] = 0x00U;
 800374a:	4b11      	ldr	r3, [pc, #68]	@ (8003790 <USBHSDebug_BuildConfigDescriptor+0xbc>)
 800374c:	2200      	movs	r2, #0
 800374e:	745a      	strb	r2, [r3, #17]

  usb_hs_debug_ep0_buffer[18] = 0x07U;
 8003750:	4b0f      	ldr	r3, [pc, #60]	@ (8003790 <USBHSDebug_BuildConfigDescriptor+0xbc>)
 8003752:	2207      	movs	r2, #7
 8003754:	749a      	strb	r2, [r3, #18]
  usb_hs_debug_ep0_buffer[19] = 0x05U;
 8003756:	4b0e      	ldr	r3, [pc, #56]	@ (8003790 <USBHSDebug_BuildConfigDescriptor+0xbc>)
 8003758:	2205      	movs	r2, #5
 800375a:	74da      	strb	r2, [r3, #19]
  usb_hs_debug_ep0_buffer[20] = USB_HS_DEBUG_EP_IN;
 800375c:	4b0c      	ldr	r3, [pc, #48]	@ (8003790 <USBHSDebug_BuildConfigDescriptor+0xbc>)
 800375e:	2281      	movs	r2, #129	@ 0x81
 8003760:	751a      	strb	r2, [r3, #20]
  usb_hs_debug_ep0_buffer[21] = 0x02U;
 8003762:	4b0b      	ldr	r3, [pc, #44]	@ (8003790 <USBHSDebug_BuildConfigDescriptor+0xbc>)
 8003764:	2202      	movs	r2, #2
 8003766:	755a      	strb	r2, [r3, #21]
  usb_hs_debug_ep0_buffer[22] = (uint8_t)(bulk_mps & 0xFFU);
 8003768:	88bb      	ldrh	r3, [r7, #4]
 800376a:	b2da      	uxtb	r2, r3
 800376c:	4b08      	ldr	r3, [pc, #32]	@ (8003790 <USBHSDebug_BuildConfigDescriptor+0xbc>)
 800376e:	759a      	strb	r2, [r3, #22]
  usb_hs_debug_ep0_buffer[23] = (uint8_t)(bulk_mps >> 8);
 8003770:	88bb      	ldrh	r3, [r7, #4]
 8003772:	0a1b      	lsrs	r3, r3, #8
 8003774:	b29b      	uxth	r3, r3
 8003776:	b2da      	uxtb	r2, r3
 8003778:	4b05      	ldr	r3, [pc, #20]	@ (8003790 <USBHSDebug_BuildConfigDescriptor+0xbc>)
 800377a:	75da      	strb	r2, [r3, #23]
  usb_hs_debug_ep0_buffer[24] = 0x00U;
 800377c:	4b04      	ldr	r3, [pc, #16]	@ (8003790 <USBHSDebug_BuildConfigDescriptor+0xbc>)
 800377e:	2200      	movs	r2, #0
 8003780:	761a      	strb	r2, [r3, #24]
}
 8003782:	bf00      	nop
 8003784:	370c      	adds	r7, #12
 8003786:	46bd      	mov	sp, r7
 8003788:	f85d 7b04 	ldr.w	r7, [sp], #4
 800378c:	4770      	bx	lr
 800378e:	bf00      	nop
 8003790:	200296b4 	.word	0x200296b4

08003794 <USBHSDebug_OpenBulkIn>:

static void USBHSDebug_OpenBulkIn(PCD_HandleTypeDef *hpcd)
{
 8003794:	b580      	push	{r7, lr}
 8003796:	b084      	sub	sp, #16
 8003798:	af00      	add	r7, sp, #0
 800379a:	6078      	str	r0, [r7, #4]
  uint16_t mps = USBHSDebug_BulkMps(hpcd);
 800379c:	6878      	ldr	r0, [r7, #4]
 800379e:	f7ff ff87 	bl	80036b0 <USBHSDebug_BulkMps>
 80037a2:	4603      	mov	r3, r0
 80037a4:	81fb      	strh	r3, [r7, #14]

  (void)HAL_PCD_EP_Open(hpcd, USB_HS_DEBUG_EP_IN, mps, EP_TYPE_BULK);
 80037a6:	89fa      	ldrh	r2, [r7, #14]
 80037a8:	2302      	movs	r3, #2
 80037aa:	2181      	movs	r1, #129	@ 0x81
 80037ac:	6878      	ldr	r0, [r7, #4]
 80037ae:	f001 fe47 	bl	8005440 <HAL_PCD_EP_Open>
  printf("USB HS DEBUG: configured %s bulk IN, MPS=%lu\r\n",
 80037b2:	6878      	ldr	r0, [r7, #4]
 80037b4:	f000 f8a0 	bl	80038f8 <USBHSDebug_SpeedName>
 80037b8:	4601      	mov	r1, r0
 80037ba:	89fb      	ldrh	r3, [r7, #14]
 80037bc:	461a      	mov	r2, r3
 80037be:	4803      	ldr	r0, [pc, #12]	@ (80037cc <USBHSDebug_OpenBulkIn+0x38>)
 80037c0:	f004 fd28 	bl	8008214 <iprintf>
         USBHSDebug_SpeedName(hpcd),
         (unsigned long)mps);
}
 80037c4:	bf00      	nop
 80037c6:	3710      	adds	r7, #16
 80037c8:	46bd      	mov	sp, r7
 80037ca:	bd80      	pop	{r7, pc}
 80037cc:	0800a5f8 	.word	0x0800a5f8

080037d0 <USBHSDebug_CloseBulkIn>:

static void USBHSDebug_CloseBulkIn(PCD_HandleTypeDef *hpcd)
{
 80037d0:	b580      	push	{r7, lr}
 80037d2:	b082      	sub	sp, #8
 80037d4:	af00      	add	r7, sp, #0
 80037d6:	6078      	str	r0, [r7, #4]
  (void)HAL_PCD_EP_Close(hpcd, USB_HS_DEBUG_EP_IN);
 80037d8:	2181      	movs	r1, #129	@ 0x81
 80037da:	6878      	ldr	r0, [r7, #4]
 80037dc:	f001 fe9a 	bl	8005514 <HAL_PCD_EP_Close>
}
 80037e0:	bf00      	nop
 80037e2:	3708      	adds	r7, #8
 80037e4:	46bd      	mov	sp, r7
 80037e6:	bd80      	pop	{r7, pc}

080037e8 <USBHSDebug_PrepareTxBuffer>:

static void USBHSDebug_PrepareTxBuffer(void)
{
 80037e8:	b480      	push	{r7}
 80037ea:	b083      	sub	sp, #12
 80037ec:	af00      	add	r7, sp, #0
  for (uint32_t i = 0U; i < USB_HS_DEBUG_TX_SIZE; ++i)
 80037ee:	2300      	movs	r3, #0
 80037f0:	607b      	str	r3, [r7, #4]
 80037f2:	e009      	b.n	8003808 <USBHSDebug_PrepareTxBuffer+0x20>
  {
    usb_hs_debug_tx_buffer[i] = (uint8_t)i;
 80037f4:	687b      	ldr	r3, [r7, #4]
 80037f6:	b2d9      	uxtb	r1, r3
 80037f8:	4a09      	ldr	r2, [pc, #36]	@ (8003820 <USBHSDebug_PrepareTxBuffer+0x38>)
 80037fa:	687b      	ldr	r3, [r7, #4]
 80037fc:	4413      	add	r3, r2
 80037fe:	460a      	mov	r2, r1
 8003800:	701a      	strb	r2, [r3, #0]
  for (uint32_t i = 0U; i < USB_HS_DEBUG_TX_SIZE; ++i)
 8003802:	687b      	ldr	r3, [r7, #4]
 8003804:	3301      	adds	r3, #1
 8003806:	607b      	str	r3, [r7, #4]
 8003808:	687b      	ldr	r3, [r7, #4]
 800380a:	f5b3 5f80 	cmp.w	r3, #4096	@ 0x1000
 800380e:	d3f1      	bcc.n	80037f4 <USBHSDebug_PrepareTxBuffer+0xc>
  }
}
 8003810:	bf00      	nop
 8003812:	bf00      	nop
 8003814:	370c      	adds	r7, #12
 8003816:	46bd      	mov	sp, r7
 8003818:	f85d 7b04 	ldr.w	r7, [sp], #4
 800381c:	4770      	bx	lr
 800381e:	bf00      	nop
 8003820:	200286b4 	.word	0x200286b4

08003824 <USBHSDebug_QueueNextPacket>:

static void USBHSDebug_QueueNextPacket(void)
{
 8003824:	b580      	push	{r7, lr}
 8003826:	b082      	sub	sp, #8
 8003828:	af00      	add	r7, sp, #0
  const uint8_t *tx_data = usb_hs_debug_tx_buffer;
 800382a:	4b2a      	ldr	r3, [pc, #168]	@ (80038d4 <USBHSDebug_QueueNextPacket+0xb0>)
 800382c:	607b      	str	r3, [r7, #4]
  uint32_t tx_len = USB_HS_DEBUG_TX_SIZE;
 800382e:	f44f 5380 	mov.w	r3, #4096	@ 0x1000
 8003832:	603b      	str	r3, [r7, #0]

  if ((usb_hs_debug_pcd == NULL) ||
 8003834:	4b28      	ldr	r3, [pc, #160]	@ (80038d8 <USBHSDebug_QueueNextPacket+0xb4>)
 8003836:	681b      	ldr	r3, [r3, #0]
 8003838:	2b00      	cmp	r3, #0
 800383a:	d044      	beq.n	80038c6 <USBHSDebug_QueueNextPacket+0xa2>
      (usb_hs_debug_configuration == 0U) ||
 800383c:	4b27      	ldr	r3, [pc, #156]	@ (80038dc <USBHSDebug_QueueNextPacket+0xb8>)
 800383e:	781b      	ldrb	r3, [r3, #0]
  if ((usb_hs_debug_pcd == NULL) ||
 8003840:	2b00      	cmp	r3, #0
 8003842:	d040      	beq.n	80038c6 <USBHSDebug_QueueNextPacket+0xa2>
      (usb_hs_debug_tx_busy != 0U))
 8003844:	4b26      	ldr	r3, [pc, #152]	@ (80038e0 <USBHSDebug_QueueNextPacket+0xbc>)
 8003846:	781b      	ldrb	r3, [r3, #0]
 8003848:	b2db      	uxtb	r3, r3
      (usb_hs_debug_configuration == 0U) ||
 800384a:	2b00      	cmp	r3, #0
 800384c:	d13b      	bne.n	80038c6 <USBHSDebug_QueueNextPacket+0xa2>
  {
    return;
  }

  if (usb_hs_debug_next_tx != NULL)
 800384e:	4b25      	ldr	r3, [pc, #148]	@ (80038e4 <USBHSDebug_QueueNextPacket+0xc0>)
 8003850:	681b      	ldr	r3, [r3, #0]
 8003852:	2b00      	cmp	r3, #0
 8003854:	d01a      	beq.n	800388c <USBHSDebug_QueueNextPacket+0x68>
  {
    if ((usb_hs_debug_next_tx(&tx_data, &tx_len) == 0U) ||
 8003856:	4b23      	ldr	r3, [pc, #140]	@ (80038e4 <USBHSDebug_QueueNextPacket+0xc0>)
 8003858:	681b      	ldr	r3, [r3, #0]
 800385a:	4639      	mov	r1, r7
 800385c:	1d3a      	adds	r2, r7, #4
 800385e:	4610      	mov	r0, r2
 8003860:	4798      	blx	r3
 8003862:	4603      	mov	r3, r0
 8003864:	2b00      	cmp	r3, #0
 8003866:	d030      	beq.n	80038ca <USBHSDebug_QueueNextPacket+0xa6>
        (tx_data == NULL) ||
 8003868:	687b      	ldr	r3, [r7, #4]
    if ((usb_hs_debug_next_tx(&tx_data, &tx_len) == 0U) ||
 800386a:	2b00      	cmp	r3, #0
 800386c:	d02d      	beq.n	80038ca <USBHSDebug_QueueNextPacket+0xa6>
        (tx_len == 0U))
 800386e:	683b      	ldr	r3, [r7, #0]
        (tx_data == NULL) ||
 8003870:	2b00      	cmp	r3, #0
 8003872:	d02a      	beq.n	80038ca <USBHSDebug_QueueNextPacket+0xa6>
    {
      return;
    }
    if (usb_hs_debug_first_stream_tx_reported == 0U)
 8003874:	4b1c      	ldr	r3, [pc, #112]	@ (80038e8 <USBHSDebug_QueueNextPacket+0xc4>)
 8003876:	781b      	ldrb	r3, [r3, #0]
 8003878:	2b00      	cmp	r3, #0
 800387a:	d107      	bne.n	800388c <USBHSDebug_QueueNextPacket+0x68>
    {
      usb_hs_debug_first_stream_tx_reported = 1U;
 800387c:	4b1a      	ldr	r3, [pc, #104]	@ (80038e8 <USBHSDebug_QueueNextPacket+0xc4>)
 800387e:	2201      	movs	r2, #1
 8003880:	701a      	strb	r2, [r3, #0]
      printf("USB HS DEBUG: first producer TX queued, len=%lu\r\n",
 8003882:	683b      	ldr	r3, [r7, #0]
 8003884:	4619      	mov	r1, r3
 8003886:	4819      	ldr	r0, [pc, #100]	@ (80038ec <USBHSDebug_QueueNextPacket+0xc8>)
 8003888:	f004 fcc4 	bl	8008214 <iprintf>
             (unsigned long)tx_len);
    }
  }

  usb_hs_debug_tx_busy = 1U;
 800388c:	4b14      	ldr	r3, [pc, #80]	@ (80038e0 <USBHSDebug_QueueNextPacket+0xbc>)
 800388e:	2201      	movs	r2, #1
 8003890:	701a      	strb	r2, [r3, #0]
  usb_hs_debug_current_tx_data = tx_data;
 8003892:	687b      	ldr	r3, [r7, #4]
 8003894:	4a16      	ldr	r2, [pc, #88]	@ (80038f0 <USBHSDebug_QueueNextPacket+0xcc>)
 8003896:	6013      	str	r3, [r2, #0]
  usb_hs_debug_current_tx_len = tx_len;
 8003898:	683b      	ldr	r3, [r7, #0]
 800389a:	4a16      	ldr	r2, [pc, #88]	@ (80038f4 <USBHSDebug_QueueNextPacket+0xd0>)
 800389c:	6013      	str	r3, [r2, #0]
  if (HAL_PCD_EP_Transmit(usb_hs_debug_pcd,
 800389e:	4b0e      	ldr	r3, [pc, #56]	@ (80038d8 <USBHSDebug_QueueNextPacket+0xb4>)
 80038a0:	6818      	ldr	r0, [r3, #0]
 80038a2:	687a      	ldr	r2, [r7, #4]
 80038a4:	683b      	ldr	r3, [r7, #0]
 80038a6:	2181      	movs	r1, #129	@ 0x81
 80038a8:	f001 fed1 	bl	800564e <HAL_PCD_EP_Transmit>
 80038ac:	4603      	mov	r3, r0
 80038ae:	2b00      	cmp	r3, #0
 80038b0:	d00c      	beq.n	80038cc <USBHSDebug_QueueNextPacket+0xa8>
                          USB_HS_DEBUG_EP_IN,
                          (uint8_t *)tx_data,
                          tx_len) != HAL_OK)
  {
    usb_hs_debug_current_tx_data = NULL;
 80038b2:	4b0f      	ldr	r3, [pc, #60]	@ (80038f0 <USBHSDebug_QueueNextPacket+0xcc>)
 80038b4:	2200      	movs	r2, #0
 80038b6:	601a      	str	r2, [r3, #0]
    usb_hs_debug_current_tx_len = 0U;
 80038b8:	4b0e      	ldr	r3, [pc, #56]	@ (80038f4 <USBHSDebug_QueueNextPacket+0xd0>)
 80038ba:	2200      	movs	r2, #0
 80038bc:	601a      	str	r2, [r3, #0]
    usb_hs_debug_tx_busy = 0U;
 80038be:	4b08      	ldr	r3, [pc, #32]	@ (80038e0 <USBHSDebug_QueueNextPacket+0xbc>)
 80038c0:	2200      	movs	r2, #0
 80038c2:	701a      	strb	r2, [r3, #0]
 80038c4:	e002      	b.n	80038cc <USBHSDebug_QueueNextPacket+0xa8>
    return;
 80038c6:	bf00      	nop
 80038c8:	e000      	b.n	80038cc <USBHSDebug_QueueNextPacket+0xa8>
      return;
 80038ca:	bf00      	nop
  }
}
 80038cc:	3708      	adds	r7, #8
 80038ce:	46bd      	mov	sp, r7
 80038d0:	bd80      	pop	{r7, pc}
 80038d2:	bf00      	nop
 80038d4:	200286b4 	.word	0x200286b4
 80038d8:	20028684 	.word	0x20028684
 80038dc:	20028688 	.word	0x20028688
 80038e0:	2002868c 	.word	0x2002868c
 80038e4:	200286ac 	.word	0x200286ac
 80038e8:	200286a1 	.word	0x200286a1
 80038ec:	0800a628 	.word	0x0800a628
 80038f0:	200286a8 	.word	0x200286a8
 80038f4:	200286a4 	.word	0x200286a4

080038f8 <USBHSDebug_SpeedName>:

static const char *USBHSDebug_SpeedName(const PCD_HandleTypeDef *hpcd)
{
 80038f8:	b480      	push	{r7}
 80038fa:	b083      	sub	sp, #12
 80038fc:	af00      	add	r7, sp, #0
 80038fe:	6078      	str	r0, [r7, #4]
  if (hpcd == NULL)
 8003900:	687b      	ldr	r3, [r7, #4]
 8003902:	2b00      	cmp	r3, #0
 8003904:	d101      	bne.n	800390a <USBHSDebug_SpeedName+0x12>
  {
    return "unknown";
 8003906:	4b0a      	ldr	r3, [pc, #40]	@ (8003930 <USBHSDebug_SpeedName+0x38>)
 8003908:	e00c      	b.n	8003924 <USBHSDebug_SpeedName+0x2c>
  }

  if (hpcd->Init.speed == PCD_SPEED_HIGH)
 800390a:	687b      	ldr	r3, [r7, #4]
 800390c:	79db      	ldrb	r3, [r3, #7]
 800390e:	2b00      	cmp	r3, #0
 8003910:	d101      	bne.n	8003916 <USBHSDebug_SpeedName+0x1e>
  {
    return "high-speed";
 8003912:	4b08      	ldr	r3, [pc, #32]	@ (8003934 <USBHSDebug_SpeedName+0x3c>)
 8003914:	e006      	b.n	8003924 <USBHSDebug_SpeedName+0x2c>
  }

  if (hpcd->Init.speed == PCD_SPEED_FULL)
 8003916:	687b      	ldr	r3, [r7, #4]
 8003918:	79db      	ldrb	r3, [r3, #7]
 800391a:	2b02      	cmp	r3, #2
 800391c:	d101      	bne.n	8003922 <USBHSDebug_SpeedName+0x2a>
  {
    return "full-speed";
 800391e:	4b06      	ldr	r3, [pc, #24]	@ (8003938 <USBHSDebug_SpeedName+0x40>)
 8003920:	e000      	b.n	8003924 <USBHSDebug_SpeedName+0x2c>
  }

  return "unknown-speed";
 8003922:	4b06      	ldr	r3, [pc, #24]	@ (800393c <USBHSDebug_SpeedName+0x44>)
}
 8003924:	4618      	mov	r0, r3
 8003926:	370c      	adds	r7, #12
 8003928:	46bd      	mov	sp, r7
 800392a:	f85d 7b04 	ldr.w	r7, [sp], #4
 800392e:	4770      	bx	lr
 8003930:	0800a65c 	.word	0x0800a65c
 8003934:	0800a664 	.word	0x0800a664
 8003938:	0800a670 	.word	0x0800a670
 800393c:	0800a67c 	.word	0x0800a67c

08003940 <HAL_PCD_SetupStageCallback>:

void HAL_PCD_SetupStageCallback(PCD_HandleTypeDef *hpcd)
{
 8003940:	b590      	push	{r4, r7, lr}
 8003942:	b087      	sub	sp, #28
 8003944:	af02      	add	r7, sp, #8
 8003946:	6078      	str	r0, [r7, #4]
  USBHSDebug_SetupRequest req;

  if (hpcd != usb_hs_debug_pcd)
 8003948:	4b23      	ldr	r3, [pc, #140]	@ (80039d8 <HAL_PCD_SetupStageCallback+0x98>)
 800394a:	681b      	ldr	r3, [r3, #0]
 800394c:	687a      	ldr	r2, [r7, #4]
 800394e:	429a      	cmp	r2, r3
 8003950:	d13d      	bne.n	80039ce <HAL_PCD_SetupStageCallback+0x8e>
  {
    return;
  }

  USBHSDebug_ParseSetup(hpcd, &req);
 8003952:	f107 0308 	add.w	r3, r7, #8
 8003956:	4619      	mov	r1, r3
 8003958:	6878      	ldr	r0, [r7, #4]
 800395a:	f7ff fc73 	bl	8003244 <USBHSDebug_ParseSetup>
  usb_hs_debug_ep0_state = USB_HS_DEBUG_EP0_IDLE;
 800395e:	4b1f      	ldr	r3, [pc, #124]	@ (80039dc <HAL_PCD_SetupStageCallback+0x9c>)
 8003960:	2200      	movs	r2, #0
 8003962:	701a      	strb	r2, [r3, #0]

  if (usb_hs_debug_setup_print_count < 12U)
 8003964:	4b1e      	ldr	r3, [pc, #120]	@ (80039e0 <HAL_PCD_SetupStageCallback+0xa0>)
 8003966:	781b      	ldrb	r3, [r3, #0]
 8003968:	2b0b      	cmp	r3, #11
 800396a:	d814      	bhi.n	8003996 <HAL_PCD_SetupStageCallback+0x56>
  {
    ++usb_hs_debug_setup_print_count;
 800396c:	4b1c      	ldr	r3, [pc, #112]	@ (80039e0 <HAL_PCD_SetupStageCallback+0xa0>)
 800396e:	781b      	ldrb	r3, [r3, #0]
 8003970:	3301      	adds	r3, #1
 8003972:	b2da      	uxtb	r2, r3
 8003974:	4b1a      	ldr	r3, [pc, #104]	@ (80039e0 <HAL_PCD_SetupStageCallback+0xa0>)
 8003976:	701a      	strb	r2, [r3, #0]
    printf("USB HS DEBUG: setup bm=0x%02lX b=0x%02lX value=0x%04lX index=0x%04lX len=%lu\r\n",
           (unsigned long)req.bmRequestType,
 8003978:	7a3b      	ldrb	r3, [r7, #8]
    printf("USB HS DEBUG: setup bm=0x%02lX b=0x%02lX value=0x%04lX index=0x%04lX len=%lu\r\n",
 800397a:	4619      	mov	r1, r3
           (unsigned long)req.bRequest,
 800397c:	7a7b      	ldrb	r3, [r7, #9]
    printf("USB HS DEBUG: setup bm=0x%02lX b=0x%02lX value=0x%04lX index=0x%04lX len=%lu\r\n",
 800397e:	4618      	mov	r0, r3
           (unsigned long)req.wValue,
 8003980:	897b      	ldrh	r3, [r7, #10]
    printf("USB HS DEBUG: setup bm=0x%02lX b=0x%02lX value=0x%04lX index=0x%04lX len=%lu\r\n",
 8003982:	461c      	mov	r4, r3
           (unsigned long)req.wIndex,
 8003984:	89bb      	ldrh	r3, [r7, #12]
           (unsigned long)req.wLength);
 8003986:	89fa      	ldrh	r2, [r7, #14]
    printf("USB HS DEBUG: setup bm=0x%02lX b=0x%02lX value=0x%04lX index=0x%04lX len=%lu\r\n",
 8003988:	9201      	str	r2, [sp, #4]
 800398a:	9300      	str	r3, [sp, #0]
 800398c:	4623      	mov	r3, r4
 800398e:	4602      	mov	r2, r0
 8003990:	4814      	ldr	r0, [pc, #80]	@ (80039e4 <HAL_PCD_SetupStageCallback+0xa4>)
 8003992:	f004 fc3f 	bl	8008214 <iprintf>
  }

  if ((req.bmRequestType & 0x60U) == 0x00U)
 8003996:	7a3b      	ldrb	r3, [r7, #8]
 8003998:	f003 0360 	and.w	r3, r3, #96	@ 0x60
 800399c:	2b00      	cmp	r3, #0
 800399e:	d106      	bne.n	80039ae <HAL_PCD_SetupStageCallback+0x6e>
  {
    USBHSDebug_HandleStandardRequest(hpcd, &req);
 80039a0:	f107 0308 	add.w	r3, r7, #8
 80039a4:	4619      	mov	r1, r3
 80039a6:	6878      	ldr	r0, [r7, #4]
 80039a8:	f7ff fc78 	bl	800329c <USBHSDebug_HandleStandardRequest>
 80039ac:	e010      	b.n	80039d0 <HAL_PCD_SetupStageCallback+0x90>
  }
  else if ((req.bmRequestType & 0x60U) == 0x40U)
 80039ae:	7a3b      	ldrb	r3, [r7, #8]
 80039b0:	f003 0360 	and.w	r3, r3, #96	@ 0x60
 80039b4:	2b40      	cmp	r3, #64	@ 0x40
 80039b6:	d106      	bne.n	80039c6 <HAL_PCD_SetupStageCallback+0x86>
  {
    USBHSDebug_HandleVendorRequest(hpcd, &req);
 80039b8:	f107 0308 	add.w	r3, r7, #8
 80039bc:	4619      	mov	r1, r3
 80039be:	6878      	ldr	r0, [r7, #4]
 80039c0:	f7ff fdba 	bl	8003538 <USBHSDebug_HandleVendorRequest>
 80039c4:	e004      	b.n	80039d0 <HAL_PCD_SetupStageCallback+0x90>
  }
  else
  {
    USBHSDebug_StallControl(hpcd);
 80039c6:	6878      	ldr	r0, [r7, #4]
 80039c8:	f7ff fe5c 	bl	8003684 <USBHSDebug_StallControl>
 80039cc:	e000      	b.n	80039d0 <HAL_PCD_SetupStageCallback+0x90>
    return;
 80039ce:	bf00      	nop
  }
}
 80039d0:	3714      	adds	r7, #20
 80039d2:	46bd      	mov	sp, r7
 80039d4:	bd90      	pop	{r4, r7, pc}
 80039d6:	bf00      	nop
 80039d8:	20028684 	.word	0x20028684
 80039dc:	2002868b 	.word	0x2002868b
 80039e0:	20029708 	.word	0x20029708
 80039e4:	0800a68c 	.word	0x0800a68c

080039e8 <HAL_PCD_ResetCallback>:

void HAL_PCD_ResetCallback(PCD_HandleTypeDef *hpcd)
{
 80039e8:	b580      	push	{r7, lr}
 80039ea:	b082      	sub	sp, #8
 80039ec:	af00      	add	r7, sp, #0
 80039ee:	6078      	str	r0, [r7, #4]
  if (hpcd != usb_hs_debug_pcd)
 80039f0:	4b1e      	ldr	r3, [pc, #120]	@ (8003a6c <HAL_PCD_ResetCallback+0x84>)
 80039f2:	681b      	ldr	r3, [r3, #0]
 80039f4:	687a      	ldr	r2, [r7, #4]
 80039f6:	429a      	cmp	r2, r3
 80039f8:	d133      	bne.n	8003a62 <HAL_PCD_ResetCallback+0x7a>
  {
    return;
  }

  usb_hs_debug_configuration = 0U;
 80039fa:	4b1d      	ldr	r3, [pc, #116]	@ (8003a70 <HAL_PCD_ResetCallback+0x88>)
 80039fc:	2200      	movs	r2, #0
 80039fe:	701a      	strb	r2, [r3, #0]
  usb_hs_debug_stream_enabled = 0U;
 8003a00:	4b1c      	ldr	r3, [pc, #112]	@ (8003a74 <HAL_PCD_ResetCallback+0x8c>)
 8003a02:	2200      	movs	r2, #0
 8003a04:	701a      	strb	r2, [r3, #0]
  usb_hs_debug_tx_busy = 0U;
 8003a06:	4b1c      	ldr	r3, [pc, #112]	@ (8003a78 <HAL_PCD_ResetCallback+0x90>)
 8003a08:	2200      	movs	r2, #0
 8003a0a:	701a      	strb	r2, [r3, #0]
  usb_hs_debug_sequence = 0U;
 8003a0c:	4b1b      	ldr	r3, [pc, #108]	@ (8003a7c <HAL_PCD_ResetCallback+0x94>)
 8003a0e:	2200      	movs	r2, #0
 8003a10:	601a      	str	r2, [r3, #0]
  usb_hs_debug_stream_start_requested = 0U;
 8003a12:	4b1b      	ldr	r3, [pc, #108]	@ (8003a80 <HAL_PCD_ResetCallback+0x98>)
 8003a14:	2200      	movs	r2, #0
 8003a16:	701a      	strb	r2, [r3, #0]
  usb_hs_debug_first_stream_tx_reported = 0U;
 8003a18:	4b1a      	ldr	r3, [pc, #104]	@ (8003a84 <HAL_PCD_ResetCallback+0x9c>)
 8003a1a:	2200      	movs	r2, #0
 8003a1c:	701a      	strb	r2, [r3, #0]
  usb_hs_debug_pending_address = 0U;
 8003a1e:	4b1a      	ldr	r3, [pc, #104]	@ (8003a88 <HAL_PCD_ResetCallback+0xa0>)
 8003a20:	2200      	movs	r2, #0
 8003a22:	701a      	strb	r2, [r3, #0]
  usb_hs_debug_has_pending_address = 0U;
 8003a24:	4b19      	ldr	r3, [pc, #100]	@ (8003a8c <HAL_PCD_ResetCallback+0xa4>)
 8003a26:	2200      	movs	r2, #0
 8003a28:	701a      	strb	r2, [r3, #0]
  usb_hs_debug_ep0_state = USB_HS_DEBUG_EP0_IDLE;
 8003a2a:	4b19      	ldr	r3, [pc, #100]	@ (8003a90 <HAL_PCD_ResetCallback+0xa8>)
 8003a2c:	2200      	movs	r2, #0
 8003a2e:	701a      	strb	r2, [r3, #0]
  usb_hs_debug_ep0_print_count = 0U;
 8003a30:	4b18      	ldr	r3, [pc, #96]	@ (8003a94 <HAL_PCD_ResetCallback+0xac>)
 8003a32:	2200      	movs	r2, #0
 8003a34:	701a      	strb	r2, [r3, #0]
  usb_hs_debug_current_tx_data = NULL;
 8003a36:	4b18      	ldr	r3, [pc, #96]	@ (8003a98 <HAL_PCD_ResetCallback+0xb0>)
 8003a38:	2200      	movs	r2, #0
 8003a3a:	601a      	str	r2, [r3, #0]
  usb_hs_debug_current_tx_len = 0U;
 8003a3c:	4b17      	ldr	r3, [pc, #92]	@ (8003a9c <HAL_PCD_ResetCallback+0xb4>)
 8003a3e:	2200      	movs	r2, #0
 8003a40:	601a      	str	r2, [r3, #0]

  (void)HAL_PCD_EP_Open(hpcd, 0x00U, USB_HS_DEBUG_EP0_MPS, EP_TYPE_CTRL);
 8003a42:	2300      	movs	r3, #0
 8003a44:	2240      	movs	r2, #64	@ 0x40
 8003a46:	2100      	movs	r1, #0
 8003a48:	6878      	ldr	r0, [r7, #4]
 8003a4a:	f001 fcf9 	bl	8005440 <HAL_PCD_EP_Open>
  (void)HAL_PCD_EP_Open(hpcd, 0x80U, USB_HS_DEBUG_EP0_MPS, EP_TYPE_CTRL);
 8003a4e:	2300      	movs	r3, #0
 8003a50:	2240      	movs	r2, #64	@ 0x40
 8003a52:	2180      	movs	r1, #128	@ 0x80
 8003a54:	6878      	ldr	r0, [r7, #4]
 8003a56:	f001 fcf3 	bl	8005440 <HAL_PCD_EP_Open>

  USBHSDebug_PrintCoreStatus("USB bus reset / enum done");
 8003a5a:	4811      	ldr	r0, [pc, #68]	@ (8003aa0 <HAL_PCD_ResetCallback+0xb8>)
 8003a5c:	f7ff fba8 	bl	80031b0 <USBHSDebug_PrintCoreStatus>
 8003a60:	e000      	b.n	8003a64 <HAL_PCD_ResetCallback+0x7c>
    return;
 8003a62:	bf00      	nop
}
 8003a64:	3708      	adds	r7, #8
 8003a66:	46bd      	mov	sp, r7
 8003a68:	bd80      	pop	{r7, pc}
 8003a6a:	bf00      	nop
 8003a6c:	20028684 	.word	0x20028684
 8003a70:	20028688 	.word	0x20028688
 8003a74:	2002868d 	.word	0x2002868d
 8003a78:	2002868c 	.word	0x2002868c
 8003a7c:	200296f4 	.word	0x200296f4
 8003a80:	200286a0 	.word	0x200286a0
 8003a84:	200286a1 	.word	0x200286a1
 8003a88:	20028689 	.word	0x20028689
 8003a8c:	2002868a 	.word	0x2002868a
 8003a90:	2002868b 	.word	0x2002868b
 8003a94:	20029709 	.word	0x20029709
 8003a98:	200286a8 	.word	0x200286a8
 8003a9c:	200286a4 	.word	0x200286a4
 8003aa0:	0800a6dc 	.word	0x0800a6dc

08003aa4 <HAL_PCD_DataInStageCallback>:

void HAL_PCD_DataInStageCallback(PCD_HandleTypeDef *hpcd, uint8_t epnum)
{
 8003aa4:	e92d 43b0 	stmdb	sp!, {r4, r5, r7, r8, r9, lr}
 8003aa8:	b084      	sub	sp, #16
 8003aaa:	af00      	add	r7, sp, #0
 8003aac:	6078      	str	r0, [r7, #4]
 8003aae:	460b      	mov	r3, r1
 8003ab0:	70fb      	strb	r3, [r7, #3]
  if (hpcd != usb_hs_debug_pcd)
 8003ab2:	4b36      	ldr	r3, [pc, #216]	@ (8003b8c <HAL_PCD_DataInStageCallback+0xe8>)
 8003ab4:	681b      	ldr	r3, [r3, #0]
 8003ab6:	687a      	ldr	r2, [r7, #4]
 8003ab8:	429a      	cmp	r2, r3
 8003aba:	d162      	bne.n	8003b82 <HAL_PCD_DataInStageCallback+0xde>
  {
    return;
  }

  if (epnum == 0U)
 8003abc:	78fb      	ldrb	r3, [r7, #3]
 8003abe:	2b00      	cmp	r3, #0
 8003ac0:	d128      	bne.n	8003b14 <HAL_PCD_DataInStageCallback+0x70>
  {
    if (usb_hs_debug_ep0_print_count < 8U)
 8003ac2:	4b33      	ldr	r3, [pc, #204]	@ (8003b90 <HAL_PCD_DataInStageCallback+0xec>)
 8003ac4:	781b      	ldrb	r3, [r3, #0]
 8003ac6:	2b07      	cmp	r3, #7
 8003ac8:	d80b      	bhi.n	8003ae2 <HAL_PCD_DataInStageCallback+0x3e>
    {
      ++usb_hs_debug_ep0_print_count;
 8003aca:	4b31      	ldr	r3, [pc, #196]	@ (8003b90 <HAL_PCD_DataInStageCallback+0xec>)
 8003acc:	781b      	ldrb	r3, [r3, #0]
 8003ace:	3301      	adds	r3, #1
 8003ad0:	b2da      	uxtb	r2, r3
 8003ad2:	4b2f      	ldr	r3, [pc, #188]	@ (8003b90 <HAL_PCD_DataInStageCallback+0xec>)
 8003ad4:	701a      	strb	r2, [r3, #0]
      printf("USB HS DEBUG: ep0 IN complete state=%lu\r\n",
 8003ad6:	4b2f      	ldr	r3, [pc, #188]	@ (8003b94 <HAL_PCD_DataInStageCallback+0xf0>)
 8003ad8:	781b      	ldrb	r3, [r3, #0]
 8003ada:	4619      	mov	r1, r3
 8003adc:	482e      	ldr	r0, [pc, #184]	@ (8003b98 <HAL_PCD_DataInStageCallback+0xf4>)
 8003ade:	f004 fb99 	bl	8008214 <iprintf>
             (unsigned long)usb_hs_debug_ep0_state);
    }

    if (usb_hs_debug_has_pending_address != 0U)
 8003ae2:	4b2e      	ldr	r3, [pc, #184]	@ (8003b9c <HAL_PCD_DataInStageCallback+0xf8>)
 8003ae4:	781b      	ldrb	r3, [r3, #0]
 8003ae6:	2b00      	cmp	r3, #0
 8003ae8:	d008      	beq.n	8003afc <HAL_PCD_DataInStageCallback+0x58>
    {
      (void)HAL_PCD_SetAddress(hpcd, usb_hs_debug_pending_address);
 8003aea:	4b2d      	ldr	r3, [pc, #180]	@ (8003ba0 <HAL_PCD_DataInStageCallback+0xfc>)
 8003aec:	781b      	ldrb	r3, [r3, #0]
 8003aee:	4619      	mov	r1, r3
 8003af0:	6878      	ldr	r0, [r7, #4]
 8003af2:	f001 fc81 	bl	80053f8 <HAL_PCD_SetAddress>
      usb_hs_debug_has_pending_address = 0U;
 8003af6:	4b29      	ldr	r3, [pc, #164]	@ (8003b9c <HAL_PCD_DataInStageCallback+0xf8>)
 8003af8:	2200      	movs	r2, #0
 8003afa:	701a      	strb	r2, [r3, #0]
    }

    if (usb_hs_debug_ep0_state == USB_HS_DEBUG_EP0_DATA_IN)
 8003afc:	4b25      	ldr	r3, [pc, #148]	@ (8003b94 <HAL_PCD_DataInStageCallback+0xf0>)
 8003afe:	781b      	ldrb	r3, [r3, #0]
 8003b00:	2b01      	cmp	r3, #1
 8003b02:	d103      	bne.n	8003b0c <HAL_PCD_DataInStageCallback+0x68>
    {
      USBHSDebug_ReceiveStatusOut(hpcd);
 8003b04:	6878      	ldr	r0, [r7, #4]
 8003b06:	f7ff fda7 	bl	8003658 <USBHSDebug_ReceiveStatusOut>
 8003b0a:	e03b      	b.n	8003b84 <HAL_PCD_DataInStageCallback+0xe0>
    }
    else
    {
      usb_hs_debug_ep0_state = USB_HS_DEBUG_EP0_IDLE;
 8003b0c:	4b21      	ldr	r3, [pc, #132]	@ (8003b94 <HAL_PCD_DataInStageCallback+0xf0>)
 8003b0e:	2200      	movs	r2, #0
 8003b10:	701a      	strb	r2, [r3, #0]
 8003b12:	e037      	b.n	8003b84 <HAL_PCD_DataInStageCallback+0xe0>
    }
  }
  else if (epnum == (USB_HS_DEBUG_EP_IN & 0x7FU))
 8003b14:	78fb      	ldrb	r3, [r7, #3]
 8003b16:	2b01      	cmp	r3, #1
 8003b18:	d134      	bne.n	8003b84 <HAL_PCD_DataInStageCallback+0xe0>
  {
    const uint8_t *done_data = usb_hs_debug_current_tx_data;
 8003b1a:	4b22      	ldr	r3, [pc, #136]	@ (8003ba4 <HAL_PCD_DataInStageCallback+0x100>)
 8003b1c:	681b      	ldr	r3, [r3, #0]
 8003b1e:	60fb      	str	r3, [r7, #12]
    uint32_t done_len = usb_hs_debug_current_tx_len;
 8003b20:	4b21      	ldr	r3, [pc, #132]	@ (8003ba8 <HAL_PCD_DataInStageCallback+0x104>)
 8003b22:	681b      	ldr	r3, [r3, #0]
 8003b24:	60bb      	str	r3, [r7, #8]

    usb_hs_debug_completed_bytes += done_len;
 8003b26:	68bb      	ldr	r3, [r7, #8]
 8003b28:	2200      	movs	r2, #0
 8003b2a:	461c      	mov	r4, r3
 8003b2c:	4615      	mov	r5, r2
 8003b2e:	4b1f      	ldr	r3, [pc, #124]	@ (8003bac <HAL_PCD_DataInStageCallback+0x108>)
 8003b30:	e9d3 2300 	ldrd	r2, r3, [r3]
 8003b34:	eb14 0802 	adds.w	r8, r4, r2
 8003b38:	eb45 0903 	adc.w	r9, r5, r3
 8003b3c:	4b1b      	ldr	r3, [pc, #108]	@ (8003bac <HAL_PCD_DataInStageCallback+0x108>)
 8003b3e:	e9c3 8900 	strd	r8, r9, [r3]
    ++usb_hs_debug_completed_transfers;
 8003b42:	4b1b      	ldr	r3, [pc, #108]	@ (8003bb0 <HAL_PCD_DataInStageCallback+0x10c>)
 8003b44:	681b      	ldr	r3, [r3, #0]
 8003b46:	3301      	adds	r3, #1
 8003b48:	4a19      	ldr	r2, [pc, #100]	@ (8003bb0 <HAL_PCD_DataInStageCallback+0x10c>)
 8003b4a:	6013      	str	r3, [r2, #0]
    usb_hs_debug_current_tx_data = NULL;
 8003b4c:	4b15      	ldr	r3, [pc, #84]	@ (8003ba4 <HAL_PCD_DataInStageCallback+0x100>)
 8003b4e:	2200      	movs	r2, #0
 8003b50:	601a      	str	r2, [r3, #0]
    usb_hs_debug_current_tx_len = 0U;
 8003b52:	4b15      	ldr	r3, [pc, #84]	@ (8003ba8 <HAL_PCD_DataInStageCallback+0x104>)
 8003b54:	2200      	movs	r2, #0
 8003b56:	601a      	str	r2, [r3, #0]
    if ((usb_hs_debug_tx_done != NULL) && (done_data != NULL) && (done_len != 0U))
 8003b58:	4b16      	ldr	r3, [pc, #88]	@ (8003bb4 <HAL_PCD_DataInStageCallback+0x110>)
 8003b5a:	681b      	ldr	r3, [r3, #0]
 8003b5c:	2b00      	cmp	r3, #0
 8003b5e:	d00a      	beq.n	8003b76 <HAL_PCD_DataInStageCallback+0xd2>
 8003b60:	68fb      	ldr	r3, [r7, #12]
 8003b62:	2b00      	cmp	r3, #0
 8003b64:	d007      	beq.n	8003b76 <HAL_PCD_DataInStageCallback+0xd2>
 8003b66:	68bb      	ldr	r3, [r7, #8]
 8003b68:	2b00      	cmp	r3, #0
 8003b6a:	d004      	beq.n	8003b76 <HAL_PCD_DataInStageCallback+0xd2>
    {
      usb_hs_debug_tx_done(done_data, done_len);
 8003b6c:	4b11      	ldr	r3, [pc, #68]	@ (8003bb4 <HAL_PCD_DataInStageCallback+0x110>)
 8003b6e:	681b      	ldr	r3, [r3, #0]
 8003b70:	68b9      	ldr	r1, [r7, #8]
 8003b72:	68f8      	ldr	r0, [r7, #12]
 8003b74:	4798      	blx	r3
    }
    usb_hs_debug_tx_busy = 0U;
 8003b76:	4b10      	ldr	r3, [pc, #64]	@ (8003bb8 <HAL_PCD_DataInStageCallback+0x114>)
 8003b78:	2200      	movs	r2, #0
 8003b7a:	701a      	strb	r2, [r3, #0]
    USBHSDebug_QueueNextPacket();
 8003b7c:	f7ff fe52 	bl	8003824 <USBHSDebug_QueueNextPacket>
 8003b80:	e000      	b.n	8003b84 <HAL_PCD_DataInStageCallback+0xe0>
    return;
 8003b82:	bf00      	nop
  }
  else
  {
  }
}
 8003b84:	3710      	adds	r7, #16
 8003b86:	46bd      	mov	sp, r7
 8003b88:	e8bd 83b0 	ldmia.w	sp!, {r4, r5, r7, r8, r9, pc}
 8003b8c:	20028684 	.word	0x20028684
 8003b90:	20029709 	.word	0x20029709
 8003b94:	2002868b 	.word	0x2002868b
 8003b98:	0800a6f8 	.word	0x0800a6f8
 8003b9c:	2002868a 	.word	0x2002868a
 8003ba0:	20028689 	.word	0x20028689
 8003ba4:	200286a8 	.word	0x200286a8
 8003ba8:	200286a4 	.word	0x200286a4
 8003bac:	20028698 	.word	0x20028698
 8003bb0:	20028690 	.word	0x20028690
 8003bb4:	200286b0 	.word	0x200286b0
 8003bb8:	2002868c 	.word	0x2002868c

08003bbc <HAL_PCD_DataOutStageCallback>:

void HAL_PCD_DataOutStageCallback(PCD_HandleTypeDef *hpcd, uint8_t epnum)
{
 8003bbc:	b590      	push	{r4, r7, lr}
 8003bbe:	b083      	sub	sp, #12
 8003bc0:	af00      	add	r7, sp, #0
 8003bc2:	6078      	str	r0, [r7, #4]
 8003bc4:	460b      	mov	r3, r1
 8003bc6:	70fb      	strb	r3, [r7, #3]
  if (hpcd != usb_hs_debug_pcd)
 8003bc8:	4b15      	ldr	r3, [pc, #84]	@ (8003c20 <HAL_PCD_DataOutStageCallback+0x64>)
 8003bca:	681b      	ldr	r3, [r3, #0]
 8003bcc:	687a      	ldr	r2, [r7, #4]
 8003bce:	429a      	cmp	r2, r3
 8003bd0:	d121      	bne.n	8003c16 <HAL_PCD_DataOutStageCallback+0x5a>
  {
    return;
  }

  if (epnum == 0U)
 8003bd2:	78fb      	ldrb	r3, [r7, #3]
 8003bd4:	2b00      	cmp	r3, #0
 8003bd6:	d11f      	bne.n	8003c18 <HAL_PCD_DataOutStageCallback+0x5c>
  {
    if (usb_hs_debug_ep0_print_count < 8U)
 8003bd8:	4b12      	ldr	r3, [pc, #72]	@ (8003c24 <HAL_PCD_DataOutStageCallback+0x68>)
 8003bda:	781b      	ldrb	r3, [r3, #0]
 8003bdc:	2b07      	cmp	r3, #7
 8003bde:	d812      	bhi.n	8003c06 <HAL_PCD_DataOutStageCallback+0x4a>
    {
      ++usb_hs_debug_ep0_print_count;
 8003be0:	4b10      	ldr	r3, [pc, #64]	@ (8003c24 <HAL_PCD_DataOutStageCallback+0x68>)
 8003be2:	781b      	ldrb	r3, [r3, #0]
 8003be4:	3301      	adds	r3, #1
 8003be6:	b2da      	uxtb	r2, r3
 8003be8:	4b0e      	ldr	r3, [pc, #56]	@ (8003c24 <HAL_PCD_DataOutStageCallback+0x68>)
 8003bea:	701a      	strb	r2, [r3, #0]
      printf("USB HS DEBUG: ep0 OUT complete state=%lu count=%lu\r\n",
 8003bec:	4b0e      	ldr	r3, [pc, #56]	@ (8003c28 <HAL_PCD_DataOutStageCallback+0x6c>)
 8003bee:	781b      	ldrb	r3, [r3, #0]
 8003bf0:	461c      	mov	r4, r3
             (unsigned long)usb_hs_debug_ep0_state,
             (unsigned long)HAL_PCD_EP_GetRxCount(hpcd, 0x00U));
 8003bf2:	2100      	movs	r1, #0
 8003bf4:	6878      	ldr	r0, [r7, #4]
 8003bf6:	f001 fd12 	bl	800561e <HAL_PCD_EP_GetRxCount>
 8003bfa:	4603      	mov	r3, r0
      printf("USB HS DEBUG: ep0 OUT complete state=%lu count=%lu\r\n",
 8003bfc:	461a      	mov	r2, r3
 8003bfe:	4621      	mov	r1, r4
 8003c00:	480a      	ldr	r0, [pc, #40]	@ (8003c2c <HAL_PCD_DataOutStageCallback+0x70>)
 8003c02:	f004 fb07 	bl	8008214 <iprintf>
    }

    if (usb_hs_debug_ep0_state == USB_HS_DEBUG_EP0_STATUS_OUT)
 8003c06:	4b08      	ldr	r3, [pc, #32]	@ (8003c28 <HAL_PCD_DataOutStageCallback+0x6c>)
 8003c08:	781b      	ldrb	r3, [r3, #0]
 8003c0a:	2b03      	cmp	r3, #3
 8003c0c:	d104      	bne.n	8003c18 <HAL_PCD_DataOutStageCallback+0x5c>
    {
      usb_hs_debug_ep0_state = USB_HS_DEBUG_EP0_IDLE;
 8003c0e:	4b06      	ldr	r3, [pc, #24]	@ (8003c28 <HAL_PCD_DataOutStageCallback+0x6c>)
 8003c10:	2200      	movs	r2, #0
 8003c12:	701a      	strb	r2, [r3, #0]
 8003c14:	e000      	b.n	8003c18 <HAL_PCD_DataOutStageCallback+0x5c>
    return;
 8003c16:	bf00      	nop
    }
  }
}
 8003c18:	370c      	adds	r7, #12
 8003c1a:	46bd      	mov	sp, r7
 8003c1c:	bd90      	pop	{r4, r7, pc}
 8003c1e:	bf00      	nop
 8003c20:	20028684 	.word	0x20028684
 8003c24:	20029709 	.word	0x20029709
 8003c28:	2002868b 	.word	0x2002868b
 8003c2c:	0800a724 	.word	0x0800a724

08003c30 <HAL_PCD_ConnectCallback>:

void HAL_PCD_ConnectCallback(PCD_HandleTypeDef *hpcd)
{
 8003c30:	b580      	push	{r7, lr}
 8003c32:	b082      	sub	sp, #8
 8003c34:	af00      	add	r7, sp, #0
 8003c36:	6078      	str	r0, [r7, #4]
  if (hpcd == usb_hs_debug_pcd)
 8003c38:	4b05      	ldr	r3, [pc, #20]	@ (8003c50 <HAL_PCD_ConnectCallback+0x20>)
 8003c3a:	681b      	ldr	r3, [r3, #0]
 8003c3c:	687a      	ldr	r2, [r7, #4]
 8003c3e:	429a      	cmp	r2, r3
 8003c40:	d102      	bne.n	8003c48 <HAL_PCD_ConnectCallback+0x18>
  {
    printf("USB HS DEBUG: host connect detected\r\n");
 8003c42:	4804      	ldr	r0, [pc, #16]	@ (8003c54 <HAL_PCD_ConnectCallback+0x24>)
 8003c44:	f004 fb4e 	bl	80082e4 <puts>
  }
}
 8003c48:	bf00      	nop
 8003c4a:	3708      	adds	r7, #8
 8003c4c:	46bd      	mov	sp, r7
 8003c4e:	bd80      	pop	{r7, pc}
 8003c50:	20028684 	.word	0x20028684
 8003c54:	0800a75c 	.word	0x0800a75c

08003c58 <HAL_PCD_DisconnectCallback>:

void HAL_PCD_DisconnectCallback(PCD_HandleTypeDef *hpcd)
{
 8003c58:	b580      	push	{r7, lr}
 8003c5a:	b082      	sub	sp, #8
 8003c5c:	af00      	add	r7, sp, #0
 8003c5e:	6078      	str	r0, [r7, #4]
  if (hpcd == usb_hs_debug_pcd)
 8003c60:	4b10      	ldr	r3, [pc, #64]	@ (8003ca4 <HAL_PCD_DisconnectCallback+0x4c>)
 8003c62:	681b      	ldr	r3, [r3, #0]
 8003c64:	687a      	ldr	r2, [r7, #4]
 8003c66:	429a      	cmp	r2, r3
 8003c68:	d117      	bne.n	8003c9a <HAL_PCD_DisconnectCallback+0x42>
  {
    usb_hs_debug_configuration = 0U;
 8003c6a:	4b0f      	ldr	r3, [pc, #60]	@ (8003ca8 <HAL_PCD_DisconnectCallback+0x50>)
 8003c6c:	2200      	movs	r2, #0
 8003c6e:	701a      	strb	r2, [r3, #0]
    usb_hs_debug_stream_enabled = 0U;
 8003c70:	4b0e      	ldr	r3, [pc, #56]	@ (8003cac <HAL_PCD_DisconnectCallback+0x54>)
 8003c72:	2200      	movs	r2, #0
 8003c74:	701a      	strb	r2, [r3, #0]
    usb_hs_debug_tx_busy = 0U;
 8003c76:	4b0e      	ldr	r3, [pc, #56]	@ (8003cb0 <HAL_PCD_DisconnectCallback+0x58>)
 8003c78:	2200      	movs	r2, #0
 8003c7a:	701a      	strb	r2, [r3, #0]
    usb_hs_debug_stream_start_requested = 0U;
 8003c7c:	4b0d      	ldr	r3, [pc, #52]	@ (8003cb4 <HAL_PCD_DisconnectCallback+0x5c>)
 8003c7e:	2200      	movs	r2, #0
 8003c80:	701a      	strb	r2, [r3, #0]
    usb_hs_debug_first_stream_tx_reported = 0U;
 8003c82:	4b0d      	ldr	r3, [pc, #52]	@ (8003cb8 <HAL_PCD_DisconnectCallback+0x60>)
 8003c84:	2200      	movs	r2, #0
 8003c86:	701a      	strb	r2, [r3, #0]
    usb_hs_debug_current_tx_data = NULL;
 8003c88:	4b0c      	ldr	r3, [pc, #48]	@ (8003cbc <HAL_PCD_DisconnectCallback+0x64>)
 8003c8a:	2200      	movs	r2, #0
 8003c8c:	601a      	str	r2, [r3, #0]
    usb_hs_debug_current_tx_len = 0U;
 8003c8e:	4b0c      	ldr	r3, [pc, #48]	@ (8003cc0 <HAL_PCD_DisconnectCallback+0x68>)
 8003c90:	2200      	movs	r2, #0
 8003c92:	601a      	str	r2, [r3, #0]
    printf("USB HS DEBUG: host disconnect detected\r\n");
 8003c94:	480b      	ldr	r0, [pc, #44]	@ (8003cc4 <HAL_PCD_DisconnectCallback+0x6c>)
 8003c96:	f004 fb25 	bl	80082e4 <puts>
  }
}
 8003c9a:	bf00      	nop
 8003c9c:	3708      	adds	r7, #8
 8003c9e:	46bd      	mov	sp, r7
 8003ca0:	bd80      	pop	{r7, pc}
 8003ca2:	bf00      	nop
 8003ca4:	20028684 	.word	0x20028684
 8003ca8:	20028688 	.word	0x20028688
 8003cac:	2002868d 	.word	0x2002868d
 8003cb0:	2002868c 	.word	0x2002868c
 8003cb4:	200286a0 	.word	0x200286a0
 8003cb8:	200286a1 	.word	0x200286a1
 8003cbc:	200286a8 	.word	0x200286a8
 8003cc0:	200286a4 	.word	0x200286a4
 8003cc4:	0800a784 	.word	0x0800a784

08003cc8 <HAL_PCD_SuspendCallback>:

void HAL_PCD_SuspendCallback(PCD_HandleTypeDef *hpcd)
{
 8003cc8:	b580      	push	{r7, lr}
 8003cca:	b082      	sub	sp, #8
 8003ccc:	af00      	add	r7, sp, #0
 8003cce:	6078      	str	r0, [r7, #4]
  if (hpcd == usb_hs_debug_pcd)
 8003cd0:	4b05      	ldr	r3, [pc, #20]	@ (8003ce8 <HAL_PCD_SuspendCallback+0x20>)
 8003cd2:	681b      	ldr	r3, [r3, #0]
 8003cd4:	687a      	ldr	r2, [r7, #4]
 8003cd6:	429a      	cmp	r2, r3
 8003cd8:	d102      	bne.n	8003ce0 <HAL_PCD_SuspendCallback+0x18>
  {
    printf("USB HS DEBUG: suspend\r\n");
 8003cda:	4804      	ldr	r0, [pc, #16]	@ (8003cec <HAL_PCD_SuspendCallback+0x24>)
 8003cdc:	f004 fb02 	bl	80082e4 <puts>
  }
}
 8003ce0:	bf00      	nop
 8003ce2:	3708      	adds	r7, #8
 8003ce4:	46bd      	mov	sp, r7
 8003ce6:	bd80      	pop	{r7, pc}
 8003ce8:	20028684 	.word	0x20028684
 8003cec:	0800a7ac 	.word	0x0800a7ac

08003cf0 <HAL_PCD_ResumeCallback>:

void HAL_PCD_ResumeCallback(PCD_HandleTypeDef *hpcd)
{
 8003cf0:	b580      	push	{r7, lr}
 8003cf2:	b082      	sub	sp, #8
 8003cf4:	af00      	add	r7, sp, #0
 8003cf6:	6078      	str	r0, [r7, #4]
  if (hpcd == usb_hs_debug_pcd)
 8003cf8:	4b05      	ldr	r3, [pc, #20]	@ (8003d10 <HAL_PCD_ResumeCallback+0x20>)
 8003cfa:	681b      	ldr	r3, [r3, #0]
 8003cfc:	687a      	ldr	r2, [r7, #4]
 8003cfe:	429a      	cmp	r2, r3
 8003d00:	d102      	bne.n	8003d08 <HAL_PCD_ResumeCallback+0x18>
  {
    printf("USB HS DEBUG: resume\r\n");
 8003d02:	4804      	ldr	r0, [pc, #16]	@ (8003d14 <HAL_PCD_ResumeCallback+0x24>)
 8003d04:	f004 faee 	bl	80082e4 <puts>
  }
}
 8003d08:	bf00      	nop
 8003d0a:	3708      	adds	r7, #8
 8003d0c:	46bd      	mov	sp, r7
 8003d0e:	bd80      	pop	{r7, pc}
 8003d10:	20028684 	.word	0x20028684
 8003d14:	0800a7c4 	.word	0x0800a7c4

08003d18 <Reset_Handler>:

    .section  .text.Reset_Handler
  .weak  Reset_Handler
  .type  Reset_Handler, %function
Reset_Handler: 
  ldr   sp, =_estack       /* set stack pointer */
 8003d18:	f8df d034 	ldr.w	sp, [pc, #52]	@ 8003d50 <LoopFillZerobss+0xe>

/* Call the clock system initialization function.*/
  bl  SystemInit   
 8003d1c:	f7fe fa42 	bl	80021a4 <SystemInit>
 
/* Copy the data segment initializers from flash to SRAM */  
  ldr r0, =_sdata
 8003d20:	480c      	ldr	r0, [pc, #48]	@ (8003d54 <LoopFillZerobss+0x12>)
  ldr r1, =_edata
 8003d22:	490d      	ldr	r1, [pc, #52]	@ (8003d58 <LoopFillZerobss+0x16>)
  ldr r2, =_sidata
 8003d24:	4a0d      	ldr	r2, [pc, #52]	@ (8003d5c <LoopFillZerobss+0x1a>)
  movs r3, #0
 8003d26:	2300      	movs	r3, #0
  b LoopCopyDataInit
 8003d28:	e002      	b.n	8003d30 <LoopCopyDataInit>

08003d2a <CopyDataInit>:

CopyDataInit:
  ldr r4, [r2, r3]
 8003d2a:	58d4      	ldr	r4, [r2, r3]
  str r4, [r0, r3]
 8003d2c:	50c4      	str	r4, [r0, r3]
  adds r3, r3, #4
 8003d2e:	3304      	adds	r3, #4

08003d30 <LoopCopyDataInit>:

LoopCopyDataInit:
  adds r4, r0, r3
 8003d30:	18c4      	adds	r4, r0, r3
  cmp r4, r1
 8003d32:	428c      	cmp	r4, r1
  bcc CopyDataInit
 8003d34:	d3f9      	bcc.n	8003d2a <CopyDataInit>
  
/* Zero fill the bss segment. */
  ldr r2, =_sbss
 8003d36:	4a0a      	ldr	r2, [pc, #40]	@ (8003d60 <LoopFillZerobss+0x1e>)
  ldr r4, =_ebss
 8003d38:	4c0a      	ldr	r4, [pc, #40]	@ (8003d64 <LoopFillZerobss+0x22>)
  movs r3, #0
 8003d3a:	2300      	movs	r3, #0
  b LoopFillZerobss
 8003d3c:	e001      	b.n	8003d42 <LoopFillZerobss>

08003d3e <FillZerobss>:

FillZerobss:
  str  r3, [r2]
 8003d3e:	6013      	str	r3, [r2, #0]
  adds r2, r2, #4
 8003d40:	3204      	adds	r2, #4

08003d42 <LoopFillZerobss>:

LoopFillZerobss:
  cmp r2, r4
 8003d42:	42a2      	cmp	r2, r4
  bcc FillZerobss
 8003d44:	d3fb      	bcc.n	8003d3e <FillZerobss>
  
/* Call static constructors */
    bl __libc_init_array
 8003d46:	f004 fc01 	bl	800854c <__libc_init_array>
/* Call the application's entry point.*/
  bl  main
 8003d4a:	f7fd fe77 	bl	8001a3c <main>
  bx  lr    
 8003d4e:	4770      	bx	lr
  ldr   sp, =_estack       /* set stack pointer */
 8003d50:	20030000 	.word	0x20030000
  ldr r0, =_sdata
 8003d54:	20000000 	.word	0x20000000
  ldr r1, =_edata
 8003d58:	20000068 	.word	0x20000068
  ldr r2, =_sidata
 8003d5c:	0800a934 	.word	0x0800a934
  ldr r2, =_sbss
 8003d60:	20000068 	.word	0x20000068
  ldr r4, =_ebss
 8003d64:	2002985c 	.word	0x2002985c

08003d68 <ADC_IRQHandler>:
 * @retval None       
*/
    .section  .text.Default_Handler,"ax",%progbits
Default_Handler:
Infinite_Loop:
  b  Infinite_Loop
 8003d68:	e7fe      	b.n	8003d68 <ADC_IRQHandler>
	...

08003d6c <HAL_Init>:
  *         need to ensure that the SysTick time base is always set to 1 millisecond
  *         to have correct HAL operation.
  * @retval HAL status
  */
HAL_StatusTypeDef HAL_Init(void)
{
 8003d6c:	b580      	push	{r7, lr}
 8003d6e:	af00      	add	r7, sp, #0
  /* Configure Flash prefetch, Instruction cache, Data cache */ 
#if (INSTRUCTION_CACHE_ENABLE != 0U)
  __HAL_FLASH_INSTRUCTION_CACHE_ENABLE();
 8003d70:	4b0e      	ldr	r3, [pc, #56]	@ (8003dac <HAL_Init+0x40>)
 8003d72:	681b      	ldr	r3, [r3, #0]
 8003d74:	4a0d      	ldr	r2, [pc, #52]	@ (8003dac <HAL_Init+0x40>)
 8003d76:	f443 7300 	orr.w	r3, r3, #512	@ 0x200
 8003d7a:	6013      	str	r3, [r2, #0]
#endif /* INSTRUCTION_CACHE_ENABLE */

#if (DATA_CACHE_ENABLE != 0U)
  __HAL_FLASH_DATA_CACHE_ENABLE();
 8003d7c:	4b0b      	ldr	r3, [pc, #44]	@ (8003dac <HAL_Init+0x40>)
 8003d7e:	681b      	ldr	r3, [r3, #0]
 8003d80:	4a0a      	ldr	r2, [pc, #40]	@ (8003dac <HAL_Init+0x40>)
 8003d82:	f443 6380 	orr.w	r3, r3, #1024	@ 0x400
 8003d86:	6013      	str	r3, [r2, #0]
#endif /* DATA_CACHE_ENABLE */

#if (PREFETCH_ENABLE != 0U)
  __HAL_FLASH_PREFETCH_BUFFER_ENABLE();
 8003d88:	4b08      	ldr	r3, [pc, #32]	@ (8003dac <HAL_Init+0x40>)
 8003d8a:	681b      	ldr	r3, [r3, #0]
 8003d8c:	4a07      	ldr	r2, [pc, #28]	@ (8003dac <HAL_Init+0x40>)
 8003d8e:	f443 7380 	orr.w	r3, r3, #256	@ 0x100
 8003d92:	6013      	str	r3, [r2, #0]
#endif /* PREFETCH_ENABLE */

  /* Set Interrupt Group Priority */
  HAL_NVIC_SetPriorityGrouping(NVIC_PRIORITYGROUP_4);
 8003d94:	2003      	movs	r0, #3
 8003d96:	f000 f94f 	bl	8004038 <HAL_NVIC_SetPriorityGrouping>

  /* Use systick as time base source and configure 1ms tick (default clock after Reset is HSI) */
  HAL_InitTick(TICK_INT_PRIORITY);
 8003d9a:	200f      	movs	r0, #15
 8003d9c:	f000 f808 	bl	8003db0 <HAL_InitTick>

  /* Init the low level hardware */
  HAL_MspInit();
 8003da0:	f7fe f842 	bl	8001e28 <HAL_MspInit>

  /* Return function status */
  return HAL_OK;
 8003da4:	2300      	movs	r3, #0
}
 8003da6:	4618      	mov	r0, r3
 8003da8:	bd80      	pop	{r7, pc}
 8003daa:	bf00      	nop
 8003dac:	40023c00 	.word	0x40023c00

08003db0 <HAL_InitTick>:
  *       implementation  in user file.
  * @param TickPriority Tick interrupt priority.
  * @retval HAL status
  */
__weak HAL_StatusTypeDef HAL_InitTick(uint32_t TickPriority)
{
 8003db0:	b580      	push	{r7, lr}
 8003db2:	b082      	sub	sp, #8
 8003db4:	af00      	add	r7, sp, #0
 8003db6:	6078      	str	r0, [r7, #4]
  /* Configure the SysTick to have interrupt in 1ms time basis*/
  if (HAL_SYSTICK_Config(SystemCoreClock / (1000U / uwTickFreq)) > 0U)
 8003db8:	4b12      	ldr	r3, [pc, #72]	@ (8003e04 <HAL_InitTick+0x54>)
 8003dba:	681a      	ldr	r2, [r3, #0]
 8003dbc:	4b12      	ldr	r3, [pc, #72]	@ (8003e08 <HAL_InitTick+0x58>)
 8003dbe:	781b      	ldrb	r3, [r3, #0]
 8003dc0:	4619      	mov	r1, r3
 8003dc2:	f44f 737a 	mov.w	r3, #1000	@ 0x3e8
 8003dc6:	fbb3 f3f1 	udiv	r3, r3, r1
 8003dca:	fbb2 f3f3 	udiv	r3, r2, r3
 8003dce:	4618      	mov	r0, r3
 8003dd0:	f000 f967 	bl	80040a2 <HAL_SYSTICK_Config>
 8003dd4:	4603      	mov	r3, r0
 8003dd6:	2b00      	cmp	r3, #0
 8003dd8:	d001      	beq.n	8003dde <HAL_InitTick+0x2e>
  {
    return HAL_ERROR;
 8003dda:	2301      	movs	r3, #1
 8003ddc:	e00e      	b.n	8003dfc <HAL_InitTick+0x4c>
  }

  /* Configure the SysTick IRQ priority */
  if (TickPriority < (1UL << __NVIC_PRIO_BITS))
 8003dde:	687b      	ldr	r3, [r7, #4]
 8003de0:	2b0f      	cmp	r3, #15
 8003de2:	d80a      	bhi.n	8003dfa <HAL_InitTick+0x4a>
  {
    HAL_NVIC_SetPriority(SysTick_IRQn, TickPriority, 0U);
 8003de4:	2200      	movs	r2, #0
 8003de6:	6879      	ldr	r1, [r7, #4]
 8003de8:	f04f 30ff 	mov.w	r0, #4294967295
 8003dec:	f000 f92f 	bl	800404e <HAL_NVIC_SetPriority>
    uwTickPrio = TickPriority;
 8003df0:	4a06      	ldr	r2, [pc, #24]	@ (8003e0c <HAL_InitTick+0x5c>)
 8003df2:	687b      	ldr	r3, [r7, #4]
 8003df4:	6013      	str	r3, [r2, #0]
  {
    return HAL_ERROR;
  }

  /* Return function status */
  return HAL_OK;
 8003df6:	2300      	movs	r3, #0
 8003df8:	e000      	b.n	8003dfc <HAL_InitTick+0x4c>
    return HAL_ERROR;
 8003dfa:	2301      	movs	r3, #1
}
 8003dfc:	4618      	mov	r0, r3
 8003dfe:	3708      	adds	r7, #8
 8003e00:	46bd      	mov	sp, r7
 8003e02:	bd80      	pop	{r7, pc}
 8003e04:	20000000 	.word	0x20000000
 8003e08:	20000008 	.word	0x20000008
 8003e0c:	20000004 	.word	0x20000004

08003e10 <HAL_IncTick>:
 * @note This function is declared as __weak to be overwritten in case of other 
  *      implementations in user file.
  * @retval None
  */
__weak void HAL_IncTick(void)
{
 8003e10:	b480      	push	{r7}
 8003e12:	af00      	add	r7, sp, #0
  uwTick += uwTickFreq;
 8003e14:	4b06      	ldr	r3, [pc, #24]	@ (8003e30 <HAL_IncTick+0x20>)
 8003e16:	781b      	ldrb	r3, [r3, #0]
 8003e18:	461a      	mov	r2, r3
 8003e1a:	4b06      	ldr	r3, [pc, #24]	@ (8003e34 <HAL_IncTick+0x24>)
 8003e1c:	681b      	ldr	r3, [r3, #0]
 8003e1e:	4413      	add	r3, r2
 8003e20:	4a04      	ldr	r2, [pc, #16]	@ (8003e34 <HAL_IncTick+0x24>)
 8003e22:	6013      	str	r3, [r2, #0]
}
 8003e24:	bf00      	nop
 8003e26:	46bd      	mov	sp, r7
 8003e28:	f85d 7b04 	ldr.w	r7, [sp], #4
 8003e2c:	4770      	bx	lr
 8003e2e:	bf00      	nop
 8003e30:	20000008 	.word	0x20000008
 8003e34:	2002970c 	.word	0x2002970c

08003e38 <HAL_GetTick>:
  * @note This function is declared as __weak to be overwritten in case of other 
  *       implementations in user file.
  * @retval tick value
  */
__weak uint32_t HAL_GetTick(void)
{
 8003e38:	b480      	push	{r7}
 8003e3a:	af00      	add	r7, sp, #0
  return uwTick;
 8003e3c:	4b03      	ldr	r3, [pc, #12]	@ (8003e4c <HAL_GetTick+0x14>)
 8003e3e:	681b      	ldr	r3, [r3, #0]
}
 8003e40:	4618      	mov	r0, r3
 8003e42:	46bd      	mov	sp, r7
 8003e44:	f85d 7b04 	ldr.w	r7, [sp], #4
 8003e48:	4770      	bx	lr
 8003e4a:	bf00      	nop
 8003e4c:	2002970c 	.word	0x2002970c

08003e50 <HAL_Delay>:
  *       implementations in user file.
  * @param Delay specifies the delay time length, in milliseconds.
  * @retval None
  */
__weak void HAL_Delay(uint32_t Delay)
{
 8003e50:	b580      	push	{r7, lr}
 8003e52:	b084      	sub	sp, #16
 8003e54:	af00      	add	r7, sp, #0
 8003e56:	6078      	str	r0, [r7, #4]
  uint32_t tickstart = HAL_GetTick();
 8003e58:	f7ff ffee 	bl	8003e38 <HAL_GetTick>
 8003e5c:	60b8      	str	r0, [r7, #8]
  uint32_t wait = Delay;
 8003e5e:	687b      	ldr	r3, [r7, #4]
 8003e60:	60fb      	str	r3, [r7, #12]

  /* Add a freq to guarantee minimum wait */
  if (wait < HAL_MAX_DELAY)
 8003e62:	68fb      	ldr	r3, [r7, #12]
 8003e64:	f1b3 3fff 	cmp.w	r3, #4294967295
 8003e68:	d005      	beq.n	8003e76 <HAL_Delay+0x26>
  {
    wait += (uint32_t)(uwTickFreq);
 8003e6a:	4b0a      	ldr	r3, [pc, #40]	@ (8003e94 <HAL_Delay+0x44>)
 8003e6c:	781b      	ldrb	r3, [r3, #0]
 8003e6e:	461a      	mov	r2, r3
 8003e70:	68fb      	ldr	r3, [r7, #12]
 8003e72:	4413      	add	r3, r2
 8003e74:	60fb      	str	r3, [r7, #12]
  }

  while((HAL_GetTick() - tickstart) < wait)
 8003e76:	bf00      	nop
 8003e78:	f7ff ffde 	bl	8003e38 <HAL_GetTick>
 8003e7c:	4602      	mov	r2, r0
 8003e7e:	68bb      	ldr	r3, [r7, #8]
 8003e80:	1ad3      	subs	r3, r2, r3
 8003e82:	68fa      	ldr	r2, [r7, #12]
 8003e84:	429a      	cmp	r2, r3
 8003e86:	d8f7      	bhi.n	8003e78 <HAL_Delay+0x28>
  {
  }
}
 8003e88:	bf00      	nop
 8003e8a:	bf00      	nop
 8003e8c:	3710      	adds	r7, #16
 8003e8e:	46bd      	mov	sp, r7
 8003e90:	bd80      	pop	{r7, pc}
 8003e92:	bf00      	nop
 8003e94:	20000008 	.word	0x20000008

08003e98 <__NVIC_SetPriorityGrouping>:
{
 8003e98:	b480      	push	{r7}
 8003e9a:	b085      	sub	sp, #20
 8003e9c:	af00      	add	r7, sp, #0
 8003e9e:	6078      	str	r0, [r7, #4]
  uint32_t PriorityGroupTmp = (PriorityGroup & (uint32_t)0x07UL);             /* only values 0..7 are used          */
 8003ea0:	687b      	ldr	r3, [r7, #4]
 8003ea2:	f003 0307 	and.w	r3, r3, #7
 8003ea6:	60fb      	str	r3, [r7, #12]
  reg_value  =  SCB->AIRCR;                                                   /* read old register configuration    */
 8003ea8:	4b0c      	ldr	r3, [pc, #48]	@ (8003edc <__NVIC_SetPriorityGrouping+0x44>)
 8003eaa:	68db      	ldr	r3, [r3, #12]
 8003eac:	60bb      	str	r3, [r7, #8]
  reg_value &= ~((uint32_t)(SCB_AIRCR_VECTKEY_Msk | SCB_AIRCR_PRIGROUP_Msk)); /* clear bits to change               */
 8003eae:	68ba      	ldr	r2, [r7, #8]
 8003eb0:	f64f 03ff 	movw	r3, #63743	@ 0xf8ff
 8003eb4:	4013      	ands	r3, r2
 8003eb6:	60bb      	str	r3, [r7, #8]
                (PriorityGroupTmp << SCB_AIRCR_PRIGROUP_Pos)  );              /* Insert write key and priority group */
 8003eb8:	68fb      	ldr	r3, [r7, #12]
 8003eba:	021a      	lsls	r2, r3, #8
                ((uint32_t)0x5FAUL << SCB_AIRCR_VECTKEY_Pos) |
 8003ebc:	68bb      	ldr	r3, [r7, #8]
 8003ebe:	4313      	orrs	r3, r2
  reg_value  =  (reg_value                                   |
 8003ec0:	f043 63bf 	orr.w	r3, r3, #100139008	@ 0x5f80000
 8003ec4:	f443 3300 	orr.w	r3, r3, #131072	@ 0x20000
 8003ec8:	60bb      	str	r3, [r7, #8]
  SCB->AIRCR =  reg_value;
 8003eca:	4a04      	ldr	r2, [pc, #16]	@ (8003edc <__NVIC_SetPriorityGrouping+0x44>)
 8003ecc:	68bb      	ldr	r3, [r7, #8]
 8003ece:	60d3      	str	r3, [r2, #12]
}
 8003ed0:	bf00      	nop
 8003ed2:	3714      	adds	r7, #20
 8003ed4:	46bd      	mov	sp, r7
 8003ed6:	f85d 7b04 	ldr.w	r7, [sp], #4
 8003eda:	4770      	bx	lr
 8003edc:	e000ed00 	.word	0xe000ed00

08003ee0 <__NVIC_GetPriorityGrouping>:
{
 8003ee0:	b480      	push	{r7}
 8003ee2:	af00      	add	r7, sp, #0
  return ((uint32_t)((SCB->AIRCR & SCB_AIRCR_PRIGROUP_Msk) >> SCB_AIRCR_PRIGROUP_Pos));
 8003ee4:	4b04      	ldr	r3, [pc, #16]	@ (8003ef8 <__NVIC_GetPriorityGrouping+0x18>)
 8003ee6:	68db      	ldr	r3, [r3, #12]
 8003ee8:	0a1b      	lsrs	r3, r3, #8
 8003eea:	f003 0307 	and.w	r3, r3, #7
}
 8003eee:	4618      	mov	r0, r3
 8003ef0:	46bd      	mov	sp, r7
 8003ef2:	f85d 7b04 	ldr.w	r7, [sp], #4
 8003ef6:	4770      	bx	lr
 8003ef8:	e000ed00 	.word	0xe000ed00

08003efc <__NVIC_EnableIRQ>:
{
 8003efc:	b480      	push	{r7}
 8003efe:	b083      	sub	sp, #12
 8003f00:	af00      	add	r7, sp, #0
 8003f02:	4603      	mov	r3, r0
 8003f04:	71fb      	strb	r3, [r7, #7]
  if ((int32_t)(IRQn) >= 0)
 8003f06:	f997 3007 	ldrsb.w	r3, [r7, #7]
 8003f0a:	2b00      	cmp	r3, #0
 8003f0c:	db0b      	blt.n	8003f26 <__NVIC_EnableIRQ+0x2a>
    NVIC->ISER[(((uint32_t)IRQn) >> 5UL)] = (uint32_t)(1UL << (((uint32_t)IRQn) & 0x1FUL));
 8003f0e:	79fb      	ldrb	r3, [r7, #7]
 8003f10:	f003 021f 	and.w	r2, r3, #31
 8003f14:	4907      	ldr	r1, [pc, #28]	@ (8003f34 <__NVIC_EnableIRQ+0x38>)
 8003f16:	f997 3007 	ldrsb.w	r3, [r7, #7]
 8003f1a:	095b      	lsrs	r3, r3, #5
 8003f1c:	2001      	movs	r0, #1
 8003f1e:	fa00 f202 	lsl.w	r2, r0, r2
 8003f22:	f841 2023 	str.w	r2, [r1, r3, lsl #2]
}
 8003f26:	bf00      	nop
 8003f28:	370c      	adds	r7, #12
 8003f2a:	46bd      	mov	sp, r7
 8003f2c:	f85d 7b04 	ldr.w	r7, [sp], #4
 8003f30:	4770      	bx	lr
 8003f32:	bf00      	nop
 8003f34:	e000e100 	.word	0xe000e100

08003f38 <__NVIC_SetPriority>:
{
 8003f38:	b480      	push	{r7}
 8003f3a:	b083      	sub	sp, #12
 8003f3c:	af00      	add	r7, sp, #0
 8003f3e:	4603      	mov	r3, r0
 8003f40:	6039      	str	r1, [r7, #0]
 8003f42:	71fb      	strb	r3, [r7, #7]
  if ((int32_t)(IRQn) >= 0)
 8003f44:	f997 3007 	ldrsb.w	r3, [r7, #7]
 8003f48:	2b00      	cmp	r3, #0
 8003f4a:	db0a      	blt.n	8003f62 <__NVIC_SetPriority+0x2a>
    NVIC->IP[((uint32_t)IRQn)]               = (uint8_t)((priority << (8U - __NVIC_PRIO_BITS)) & (uint32_t)0xFFUL);
 8003f4c:	683b      	ldr	r3, [r7, #0]
 8003f4e:	b2da      	uxtb	r2, r3
 8003f50:	490c      	ldr	r1, [pc, #48]	@ (8003f84 <__NVIC_SetPriority+0x4c>)
 8003f52:	f997 3007 	ldrsb.w	r3, [r7, #7]
 8003f56:	0112      	lsls	r2, r2, #4
 8003f58:	b2d2      	uxtb	r2, r2
 8003f5a:	440b      	add	r3, r1
 8003f5c:	f883 2300 	strb.w	r2, [r3, #768]	@ 0x300
}
 8003f60:	e00a      	b.n	8003f78 <__NVIC_SetPriority+0x40>
    SCB->SHP[(((uint32_t)IRQn) & 0xFUL)-4UL] = (uint8_t)((priority << (8U - __NVIC_PRIO_BITS)) & (uint32_t)0xFFUL);
 8003f62:	683b      	ldr	r3, [r7, #0]
 8003f64:	b2da      	uxtb	r2, r3
 8003f66:	4908      	ldr	r1, [pc, #32]	@ (8003f88 <__NVIC_SetPriority+0x50>)
 8003f68:	79fb      	ldrb	r3, [r7, #7]
 8003f6a:	f003 030f 	and.w	r3, r3, #15
 8003f6e:	3b04      	subs	r3, #4
 8003f70:	0112      	lsls	r2, r2, #4
 8003f72:	b2d2      	uxtb	r2, r2
 8003f74:	440b      	add	r3, r1
 8003f76:	761a      	strb	r2, [r3, #24]
}
 8003f78:	bf00      	nop
 8003f7a:	370c      	adds	r7, #12
 8003f7c:	46bd      	mov	sp, r7
 8003f7e:	f85d 7b04 	ldr.w	r7, [sp], #4
 8003f82:	4770      	bx	lr
 8003f84:	e000e100 	.word	0xe000e100
 8003f88:	e000ed00 	.word	0xe000ed00

08003f8c <NVIC_EncodePriority>:
{
 8003f8c:	b480      	push	{r7}
 8003f8e:	b089      	sub	sp, #36	@ 0x24
 8003f90:	af00      	add	r7, sp, #0
 8003f92:	60f8      	str	r0, [r7, #12]
 8003f94:	60b9      	str	r1, [r7, #8]
 8003f96:	607a      	str	r2, [r7, #4]
  uint32_t PriorityGroupTmp = (PriorityGroup & (uint32_t)0x07UL);   /* only values 0..7 are used          */
 8003f98:	68fb      	ldr	r3, [r7, #12]
 8003f9a:	f003 0307 	and.w	r3, r3, #7
 8003f9e:	61fb      	str	r3, [r7, #28]
  PreemptPriorityBits = ((7UL - PriorityGroupTmp) > (uint32_t)(__NVIC_PRIO_BITS)) ? (uint32_t)(__NVIC_PRIO_BITS) : (uint32_t)(7UL - PriorityGroupTmp);
 8003fa0:	69fb      	ldr	r3, [r7, #28]
 8003fa2:	f1c3 0307 	rsb	r3, r3, #7
 8003fa6:	2b04      	cmp	r3, #4
 8003fa8:	bf28      	it	cs
 8003faa:	2304      	movcs	r3, #4
 8003fac:	61bb      	str	r3, [r7, #24]
  SubPriorityBits     = ((PriorityGroupTmp + (uint32_t)(__NVIC_PRIO_BITS)) < (uint32_t)7UL) ? (uint32_t)0UL : (uint32_t)((PriorityGroupTmp - 7UL) + (uint32_t)(__NVIC_PRIO_BITS));
 8003fae:	69fb      	ldr	r3, [r7, #28]
 8003fb0:	3304      	adds	r3, #4
 8003fb2:	2b06      	cmp	r3, #6
 8003fb4:	d902      	bls.n	8003fbc <NVIC_EncodePriority+0x30>
 8003fb6:	69fb      	ldr	r3, [r7, #28]
 8003fb8:	3b03      	subs	r3, #3
 8003fba:	e000      	b.n	8003fbe <NVIC_EncodePriority+0x32>
 8003fbc:	2300      	movs	r3, #0
 8003fbe:	617b      	str	r3, [r7, #20]
           ((PreemptPriority & (uint32_t)((1UL << (PreemptPriorityBits)) - 1UL)) << SubPriorityBits) |
 8003fc0:	f04f 32ff 	mov.w	r2, #4294967295
 8003fc4:	69bb      	ldr	r3, [r7, #24]
 8003fc6:	fa02 f303 	lsl.w	r3, r2, r3
 8003fca:	43da      	mvns	r2, r3
 8003fcc:	68bb      	ldr	r3, [r7, #8]
 8003fce:	401a      	ands	r2, r3
 8003fd0:	697b      	ldr	r3, [r7, #20]
 8003fd2:	409a      	lsls	r2, r3
           ((SubPriority     & (uint32_t)((1UL << (SubPriorityBits    )) - 1UL)))
 8003fd4:	f04f 31ff 	mov.w	r1, #4294967295
 8003fd8:	697b      	ldr	r3, [r7, #20]
 8003fda:	fa01 f303 	lsl.w	r3, r1, r3
 8003fde:	43d9      	mvns	r1, r3
 8003fe0:	687b      	ldr	r3, [r7, #4]
 8003fe2:	400b      	ands	r3, r1
           ((PreemptPriority & (uint32_t)((1UL << (PreemptPriorityBits)) - 1UL)) << SubPriorityBits) |
 8003fe4:	4313      	orrs	r3, r2
}
 8003fe6:	4618      	mov	r0, r3
 8003fe8:	3724      	adds	r7, #36	@ 0x24
 8003fea:	46bd      	mov	sp, r7
 8003fec:	f85d 7b04 	ldr.w	r7, [sp], #4
 8003ff0:	4770      	bx	lr
	...

08003ff4 <SysTick_Config>:
{
 8003ff4:	b580      	push	{r7, lr}
 8003ff6:	b082      	sub	sp, #8
 8003ff8:	af00      	add	r7, sp, #0
 8003ffa:	6078      	str	r0, [r7, #4]
  if ((ticks - 1UL) > SysTick_LOAD_RELOAD_Msk)
 8003ffc:	687b      	ldr	r3, [r7, #4]
 8003ffe:	3b01      	subs	r3, #1
 8004000:	f1b3 7f80 	cmp.w	r3, #16777216	@ 0x1000000
 8004004:	d301      	bcc.n	800400a <SysTick_Config+0x16>
    return (1UL);                                                   /* Reload value impossible */
 8004006:	2301      	movs	r3, #1
 8004008:	e00f      	b.n	800402a <SysTick_Config+0x36>
  SysTick->LOAD  = (uint32_t)(ticks - 1UL);                         /* set reload register */
 800400a:	4a0a      	ldr	r2, [pc, #40]	@ (8004034 <SysTick_Config+0x40>)
 800400c:	687b      	ldr	r3, [r7, #4]
 800400e:	3b01      	subs	r3, #1
 8004010:	6053      	str	r3, [r2, #4]
  NVIC_SetPriority (SysTick_IRQn, (1UL << __NVIC_PRIO_BITS) - 1UL); /* set Priority for Systick Interrupt */
 8004012:	210f      	movs	r1, #15
 8004014:	f04f 30ff 	mov.w	r0, #4294967295
 8004018:	f7ff ff8e 	bl	8003f38 <__NVIC_SetPriority>
  SysTick->VAL   = 0UL;                                             /* Load the SysTick Counter Value */
 800401c:	4b05      	ldr	r3, [pc, #20]	@ (8004034 <SysTick_Config+0x40>)
 800401e:	2200      	movs	r2, #0
 8004020:	609a      	str	r2, [r3, #8]
  SysTick->CTRL  = SysTick_CTRL_CLKSOURCE_Msk |
 8004022:	4b04      	ldr	r3, [pc, #16]	@ (8004034 <SysTick_Config+0x40>)
 8004024:	2207      	movs	r2, #7
 8004026:	601a      	str	r2, [r3, #0]
  return (0UL);                                                     /* Function successful */
 8004028:	2300      	movs	r3, #0
}
 800402a:	4618      	mov	r0, r3
 800402c:	3708      	adds	r7, #8
 800402e:	46bd      	mov	sp, r7
 8004030:	bd80      	pop	{r7, pc}
 8004032:	bf00      	nop
 8004034:	e000e010 	.word	0xe000e010

08004038 <HAL_NVIC_SetPriorityGrouping>:
  * @note   When the NVIC_PriorityGroup_0 is selected, IRQ preemption is no more possible. 
  *         The pending IRQ priority will be managed only by the subpriority. 
  * @retval None
  */
void HAL_NVIC_SetPriorityGrouping(uint32_t PriorityGroup)
{
 8004038:	b580      	push	{r7, lr}
 800403a:	b082      	sub	sp, #8
 800403c:	af00      	add	r7, sp, #0
 800403e:	6078      	str	r0, [r7, #4]
  /* Check the parameters */
  assert_param(IS_NVIC_PRIORITY_GROUP(PriorityGroup));
  
  /* Set the PRIGROUP[10:8] bits according to the PriorityGroup parameter value */
  NVIC_SetPriorityGrouping(PriorityGroup);
 8004040:	6878      	ldr	r0, [r7, #4]
 8004042:	f7ff ff29 	bl	8003e98 <__NVIC_SetPriorityGrouping>
}
 8004046:	bf00      	nop
 8004048:	3708      	adds	r7, #8
 800404a:	46bd      	mov	sp, r7
 800404c:	bd80      	pop	{r7, pc}

0800404e <HAL_NVIC_SetPriority>:
  *         This parameter can be a value between 0 and 15
  *         A lower priority value indicates a higher priority.          
  * @retval None
  */
void HAL_NVIC_SetPriority(IRQn_Type IRQn, uint32_t PreemptPriority, uint32_t SubPriority)
{ 
 800404e:	b580      	push	{r7, lr}
 8004050:	b086      	sub	sp, #24
 8004052:	af00      	add	r7, sp, #0
 8004054:	4603      	mov	r3, r0
 8004056:	60b9      	str	r1, [r7, #8]
 8004058:	607a      	str	r2, [r7, #4]
 800405a:	73fb      	strb	r3, [r7, #15]
  uint32_t prioritygroup = 0x00U;
 800405c:	2300      	movs	r3, #0
 800405e:	617b      	str	r3, [r7, #20]
  
  /* Check the parameters */
  assert_param(IS_NVIC_SUB_PRIORITY(SubPriority));
  assert_param(IS_NVIC_PREEMPTION_PRIORITY(PreemptPriority));
  
  prioritygroup = NVIC_GetPriorityGrouping();
 8004060:	f7ff ff3e 	bl	8003ee0 <__NVIC_GetPriorityGrouping>
 8004064:	6178      	str	r0, [r7, #20]
  
  NVIC_SetPriority(IRQn, NVIC_EncodePriority(prioritygroup, PreemptPriority, SubPriority));
 8004066:	687a      	ldr	r2, [r7, #4]
 8004068:	68b9      	ldr	r1, [r7, #8]
 800406a:	6978      	ldr	r0, [r7, #20]
 800406c:	f7ff ff8e 	bl	8003f8c <NVIC_EncodePriority>
 8004070:	4602      	mov	r2, r0
 8004072:	f997 300f 	ldrsb.w	r3, [r7, #15]
 8004076:	4611      	mov	r1, r2
 8004078:	4618      	mov	r0, r3
 800407a:	f7ff ff5d 	bl	8003f38 <__NVIC_SetPriority>
}
 800407e:	bf00      	nop
 8004080:	3718      	adds	r7, #24
 8004082:	46bd      	mov	sp, r7
 8004084:	bd80      	pop	{r7, pc}

08004086 <HAL_NVIC_EnableIRQ>:
  *         This parameter can be an enumerator of IRQn_Type enumeration
  *         (For the complete STM32 Devices IRQ Channels list, please refer to the appropriate CMSIS device file (stm32f4xxxx.h))
  * @retval None
  */
void HAL_NVIC_EnableIRQ(IRQn_Type IRQn)
{
 8004086:	b580      	push	{r7, lr}
 8004088:	b082      	sub	sp, #8
 800408a:	af00      	add	r7, sp, #0
 800408c:	4603      	mov	r3, r0
 800408e:	71fb      	strb	r3, [r7, #7]
  /* Check the parameters */
  assert_param(IS_NVIC_DEVICE_IRQ(IRQn));
  
  /* Enable interrupt */
  NVIC_EnableIRQ(IRQn);
 8004090:	f997 3007 	ldrsb.w	r3, [r7, #7]
 8004094:	4618      	mov	r0, r3
 8004096:	f7ff ff31 	bl	8003efc <__NVIC_EnableIRQ>
}
 800409a:	bf00      	nop
 800409c:	3708      	adds	r7, #8
 800409e:	46bd      	mov	sp, r7
 80040a0:	bd80      	pop	{r7, pc}

080040a2 <HAL_SYSTICK_Config>:
  * @param  TicksNumb Specifies the ticks Number of ticks between two interrupts.
  * @retval status:  - 0  Function succeeded.
  *                  - 1  Function failed.
  */
uint32_t HAL_SYSTICK_Config(uint32_t TicksNumb)
{
 80040a2:	b580      	push	{r7, lr}
 80040a4:	b082      	sub	sp, #8
 80040a6:	af00      	add	r7, sp, #0
 80040a8:	6078      	str	r0, [r7, #4]
   return SysTick_Config(TicksNumb);
 80040aa:	6878      	ldr	r0, [r7, #4]
 80040ac:	f7ff ffa2 	bl	8003ff4 <SysTick_Config>
 80040b0:	4603      	mov	r3, r0
}
 80040b2:	4618      	mov	r0, r3
 80040b4:	3708      	adds	r7, #8
 80040b6:	46bd      	mov	sp, r7
 80040b8:	bd80      	pop	{r7, pc}
	...

080040bc <HAL_DMA_IRQHandler>:
  * @param  hdma pointer to a DMA_HandleTypeDef structure that contains
  *               the configuration information for the specified DMA Stream.  
  * @retval None
  */
void HAL_DMA_IRQHandler(DMA_HandleTypeDef *hdma)
{
 80040bc:	b580      	push	{r7, lr}
 80040be:	b086      	sub	sp, #24
 80040c0:	af00      	add	r7, sp, #0
 80040c2:	6078      	str	r0, [r7, #4]
  uint32_t tmpisr;
  __IO uint32_t count = 0U;
 80040c4:	2300      	movs	r3, #0
 80040c6:	60bb      	str	r3, [r7, #8]
  uint32_t timeout = SystemCoreClock / 9600U;
 80040c8:	4b8e      	ldr	r3, [pc, #568]	@ (8004304 <HAL_DMA_IRQHandler+0x248>)
 80040ca:	681b      	ldr	r3, [r3, #0]
 80040cc:	4a8e      	ldr	r2, [pc, #568]	@ (8004308 <HAL_DMA_IRQHandler+0x24c>)
 80040ce:	fba2 2303 	umull	r2, r3, r2, r3
 80040d2:	0a9b      	lsrs	r3, r3, #10
 80040d4:	617b      	str	r3, [r7, #20]

  /* calculate DMA base and stream number */
  DMA_Base_Registers *regs = (DMA_Base_Registers *)hdma->StreamBaseAddress;
 80040d6:	687b      	ldr	r3, [r7, #4]
 80040d8:	6d9b      	ldr	r3, [r3, #88]	@ 0x58
 80040da:	613b      	str	r3, [r7, #16]

  tmpisr = regs->ISR;
 80040dc:	693b      	ldr	r3, [r7, #16]
 80040de:	681b      	ldr	r3, [r3, #0]
 80040e0:	60fb      	str	r3, [r7, #12]

  /* Transfer Error Interrupt management ***************************************/
  if ((tmpisr & (DMA_FLAG_TEIF0_4 << hdma->StreamIndex)) != RESET)
 80040e2:	687b      	ldr	r3, [r7, #4]
 80040e4:	6ddb      	ldr	r3, [r3, #92]	@ 0x5c
 80040e6:	2208      	movs	r2, #8
 80040e8:	409a      	lsls	r2, r3
 80040ea:	68fb      	ldr	r3, [r7, #12]
 80040ec:	4013      	ands	r3, r2
 80040ee:	2b00      	cmp	r3, #0
 80040f0:	d01a      	beq.n	8004128 <HAL_DMA_IRQHandler+0x6c>
  {
    if(__HAL_DMA_GET_IT_SOURCE(hdma, DMA_IT_TE) != RESET)
 80040f2:	687b      	ldr	r3, [r7, #4]
 80040f4:	681b      	ldr	r3, [r3, #0]
 80040f6:	681b      	ldr	r3, [r3, #0]
 80040f8:	f003 0304 	and.w	r3, r3, #4
 80040fc:	2b00      	cmp	r3, #0
 80040fe:	d013      	beq.n	8004128 <HAL_DMA_IRQHandler+0x6c>
    {
      /* Disable the transfer error interrupt */
      hdma->Instance->CR  &= ~(DMA_IT_TE);
 8004100:	687b      	ldr	r3, [r7, #4]
 8004102:	681b      	ldr	r3, [r3, #0]
 8004104:	681a      	ldr	r2, [r3, #0]
 8004106:	687b      	ldr	r3, [r7, #4]
 8004108:	681b      	ldr	r3, [r3, #0]
 800410a:	f022 0204 	bic.w	r2, r2, #4
 800410e:	601a      	str	r2, [r3, #0]
      
      /* Clear the transfer error flag */
      regs->IFCR = DMA_FLAG_TEIF0_4 << hdma->StreamIndex;
 8004110:	687b      	ldr	r3, [r7, #4]
 8004112:	6ddb      	ldr	r3, [r3, #92]	@ 0x5c
 8004114:	2208      	movs	r2, #8
 8004116:	409a      	lsls	r2, r3
 8004118:	693b      	ldr	r3, [r7, #16]
 800411a:	609a      	str	r2, [r3, #8]
      
      /* Update error code */
      hdma->ErrorCode |= HAL_DMA_ERROR_TE;
 800411c:	687b      	ldr	r3, [r7, #4]
 800411e:	6d5b      	ldr	r3, [r3, #84]	@ 0x54
 8004120:	f043 0201 	orr.w	r2, r3, #1
 8004124:	687b      	ldr	r3, [r7, #4]
 8004126:	655a      	str	r2, [r3, #84]	@ 0x54
    }
  }
  /* FIFO Error Interrupt management ******************************************/
  if ((tmpisr & (DMA_FLAG_FEIF0_4 << hdma->StreamIndex)) != RESET)
 8004128:	687b      	ldr	r3, [r7, #4]
 800412a:	6ddb      	ldr	r3, [r3, #92]	@ 0x5c
 800412c:	2201      	movs	r2, #1
 800412e:	409a      	lsls	r2, r3
 8004130:	68fb      	ldr	r3, [r7, #12]
 8004132:	4013      	ands	r3, r2
 8004134:	2b00      	cmp	r3, #0
 8004136:	d012      	beq.n	800415e <HAL_DMA_IRQHandler+0xa2>
  {
    if(__HAL_DMA_GET_IT_SOURCE(hdma, DMA_IT_FE) != RESET)
 8004138:	687b      	ldr	r3, [r7, #4]
 800413a:	681b      	ldr	r3, [r3, #0]
 800413c:	695b      	ldr	r3, [r3, #20]
 800413e:	f003 0380 	and.w	r3, r3, #128	@ 0x80
 8004142:	2b00      	cmp	r3, #0
 8004144:	d00b      	beq.n	800415e <HAL_DMA_IRQHandler+0xa2>
    {
      /* Clear the FIFO error flag */
      regs->IFCR = DMA_FLAG_FEIF0_4 << hdma->StreamIndex;
 8004146:	687b      	ldr	r3, [r7, #4]
 8004148:	6ddb      	ldr	r3, [r3, #92]	@ 0x5c
 800414a:	2201      	movs	r2, #1
 800414c:	409a      	lsls	r2, r3
 800414e:	693b      	ldr	r3, [r7, #16]
 8004150:	609a      	str	r2, [r3, #8]

      /* Update error code */
      hdma->ErrorCode |= HAL_DMA_ERROR_FE;
 8004152:	687b      	ldr	r3, [r7, #4]
 8004154:	6d5b      	ldr	r3, [r3, #84]	@ 0x54
 8004156:	f043 0202 	orr.w	r2, r3, #2
 800415a:	687b      	ldr	r3, [r7, #4]
 800415c:	655a      	str	r2, [r3, #84]	@ 0x54
    }
  }
  /* Direct Mode Error Interrupt management ***********************************/
  if ((tmpisr & (DMA_FLAG_DMEIF0_4 << hdma->StreamIndex)) != RESET)
 800415e:	687b      	ldr	r3, [r7, #4]
 8004160:	6ddb      	ldr	r3, [r3, #92]	@ 0x5c
 8004162:	2204      	movs	r2, #4
 8004164:	409a      	lsls	r2, r3
 8004166:	68fb      	ldr	r3, [r7, #12]
 8004168:	4013      	ands	r3, r2
 800416a:	2b00      	cmp	r3, #0
 800416c:	d012      	beq.n	8004194 <HAL_DMA_IRQHandler+0xd8>
  {
    if(__HAL_DMA_GET_IT_SOURCE(hdma, DMA_IT_DME) != RESET)
 800416e:	687b      	ldr	r3, [r7, #4]
 8004170:	681b      	ldr	r3, [r3, #0]
 8004172:	681b      	ldr	r3, [r3, #0]
 8004174:	f003 0302 	and.w	r3, r3, #2
 8004178:	2b00      	cmp	r3, #0
 800417a:	d00b      	beq.n	8004194 <HAL_DMA_IRQHandler+0xd8>
    {
      /* Clear the direct mode error flag */
      regs->IFCR = DMA_FLAG_DMEIF0_4 << hdma->StreamIndex;
 800417c:	687b      	ldr	r3, [r7, #4]
 800417e:	6ddb      	ldr	r3, [r3, #92]	@ 0x5c
 8004180:	2204      	movs	r2, #4
 8004182:	409a      	lsls	r2, r3
 8004184:	693b      	ldr	r3, [r7, #16]
 8004186:	609a      	str	r2, [r3, #8]

      /* Update error code */
      hdma->ErrorCode |= HAL_DMA_ERROR_DME;
 8004188:	687b      	ldr	r3, [r7, #4]
 800418a:	6d5b      	ldr	r3, [r3, #84]	@ 0x54
 800418c:	f043 0204 	orr.w	r2, r3, #4
 8004190:	687b      	ldr	r3, [r7, #4]
 8004192:	655a      	str	r2, [r3, #84]	@ 0x54
    }
  }
  /* Half Transfer Complete Interrupt management ******************************/
  if ((tmpisr & (DMA_FLAG_HTIF0_4 << hdma->StreamIndex)) != RESET)
 8004194:	687b      	ldr	r3, [r7, #4]
 8004196:	6ddb      	ldr	r3, [r3, #92]	@ 0x5c
 8004198:	2210      	movs	r2, #16
 800419a:	409a      	lsls	r2, r3
 800419c:	68fb      	ldr	r3, [r7, #12]
 800419e:	4013      	ands	r3, r2
 80041a0:	2b00      	cmp	r3, #0
 80041a2:	d043      	beq.n	800422c <HAL_DMA_IRQHandler+0x170>
  {
    if(__HAL_DMA_GET_IT_SOURCE(hdma, DMA_IT_HT) != RESET)
 80041a4:	687b      	ldr	r3, [r7, #4]
 80041a6:	681b      	ldr	r3, [r3, #0]
 80041a8:	681b      	ldr	r3, [r3, #0]
 80041aa:	f003 0308 	and.w	r3, r3, #8
 80041ae:	2b00      	cmp	r3, #0
 80041b0:	d03c      	beq.n	800422c <HAL_DMA_IRQHandler+0x170>
    {
      /* Clear the half transfer complete flag */
      regs->IFCR = DMA_FLAG_HTIF0_4 << hdma->StreamIndex;
 80041b2:	687b      	ldr	r3, [r7, #4]
 80041b4:	6ddb      	ldr	r3, [r3, #92]	@ 0x5c
 80041b6:	2210      	movs	r2, #16
 80041b8:	409a      	lsls	r2, r3
 80041ba:	693b      	ldr	r3, [r7, #16]
 80041bc:	609a      	str	r2, [r3, #8]
      
      /* Multi_Buffering mode enabled */
      if(((hdma->Instance->CR) & (uint32_t)(DMA_SxCR_DBM)) != RESET)
 80041be:	687b      	ldr	r3, [r7, #4]
 80041c0:	681b      	ldr	r3, [r3, #0]
 80041c2:	681b      	ldr	r3, [r3, #0]
 80041c4:	f403 2380 	and.w	r3, r3, #262144	@ 0x40000
 80041c8:	2b00      	cmp	r3, #0
 80041ca:	d018      	beq.n	80041fe <HAL_DMA_IRQHandler+0x142>
      {
        /* Current memory buffer used is Memory 0 */
        if((hdma->Instance->CR & DMA_SxCR_CT) == RESET)
 80041cc:	687b      	ldr	r3, [r7, #4]
 80041ce:	681b      	ldr	r3, [r3, #0]
 80041d0:	681b      	ldr	r3, [r3, #0]
 80041d2:	f403 2300 	and.w	r3, r3, #524288	@ 0x80000
 80041d6:	2b00      	cmp	r3, #0
 80041d8:	d108      	bne.n	80041ec <HAL_DMA_IRQHandler+0x130>
        {
          if(hdma->XferHalfCpltCallback != NULL)
 80041da:	687b      	ldr	r3, [r7, #4]
 80041dc:	6c1b      	ldr	r3, [r3, #64]	@ 0x40
 80041de:	2b00      	cmp	r3, #0
 80041e0:	d024      	beq.n	800422c <HAL_DMA_IRQHandler+0x170>
          {
            /* Half transfer callback */
            hdma->XferHalfCpltCallback(hdma);
 80041e2:	687b      	ldr	r3, [r7, #4]
 80041e4:	6c1b      	ldr	r3, [r3, #64]	@ 0x40
 80041e6:	6878      	ldr	r0, [r7, #4]
 80041e8:	4798      	blx	r3
 80041ea:	e01f      	b.n	800422c <HAL_DMA_IRQHandler+0x170>
          }
        }
        /* Current memory buffer used is Memory 1 */
        else
        {
          if(hdma->XferM1HalfCpltCallback != NULL)
 80041ec:	687b      	ldr	r3, [r7, #4]
 80041ee:	6c9b      	ldr	r3, [r3, #72]	@ 0x48
 80041f0:	2b00      	cmp	r3, #0
 80041f2:	d01b      	beq.n	800422c <HAL_DMA_IRQHandler+0x170>
          {
            /* Half transfer callback */
            hdma->XferM1HalfCpltCallback(hdma);
 80041f4:	687b      	ldr	r3, [r7, #4]
 80041f6:	6c9b      	ldr	r3, [r3, #72]	@ 0x48
 80041f8:	6878      	ldr	r0, [r7, #4]
 80041fa:	4798      	blx	r3
 80041fc:	e016      	b.n	800422c <HAL_DMA_IRQHandler+0x170>
        }
      }
      else
      {
        /* Disable the half transfer interrupt if the DMA mode is not CIRCULAR */
        if((hdma->Instance->CR & DMA_SxCR_CIRC) == RESET)
 80041fe:	687b      	ldr	r3, [r7, #4]
 8004200:	681b      	ldr	r3, [r3, #0]
 8004202:	681b      	ldr	r3, [r3, #0]
 8004204:	f403 7380 	and.w	r3, r3, #256	@ 0x100
 8004208:	2b00      	cmp	r3, #0
 800420a:	d107      	bne.n	800421c <HAL_DMA_IRQHandler+0x160>
        {
          /* Disable the half transfer interrupt */
          hdma->Instance->CR  &= ~(DMA_IT_HT);
 800420c:	687b      	ldr	r3, [r7, #4]
 800420e:	681b      	ldr	r3, [r3, #0]
 8004210:	681a      	ldr	r2, [r3, #0]
 8004212:	687b      	ldr	r3, [r7, #4]
 8004214:	681b      	ldr	r3, [r3, #0]
 8004216:	f022 0208 	bic.w	r2, r2, #8
 800421a:	601a      	str	r2, [r3, #0]
        }
        
        if(hdma->XferHalfCpltCallback != NULL)
 800421c:	687b      	ldr	r3, [r7, #4]
 800421e:	6c1b      	ldr	r3, [r3, #64]	@ 0x40
 8004220:	2b00      	cmp	r3, #0
 8004222:	d003      	beq.n	800422c <HAL_DMA_IRQHandler+0x170>
        {
          /* Half transfer callback */
          hdma->XferHalfCpltCallback(hdma);
 8004224:	687b      	ldr	r3, [r7, #4]
 8004226:	6c1b      	ldr	r3, [r3, #64]	@ 0x40
 8004228:	6878      	ldr	r0, [r7, #4]
 800422a:	4798      	blx	r3
        }
      }
    }
  }
  /* Transfer Complete Interrupt management ***********************************/
  if ((tmpisr & (DMA_FLAG_TCIF0_4 << hdma->StreamIndex)) != RESET)
 800422c:	687b      	ldr	r3, [r7, #4]
 800422e:	6ddb      	ldr	r3, [r3, #92]	@ 0x5c
 8004230:	2220      	movs	r2, #32
 8004232:	409a      	lsls	r2, r3
 8004234:	68fb      	ldr	r3, [r7, #12]
 8004236:	4013      	ands	r3, r2
 8004238:	2b00      	cmp	r3, #0
 800423a:	f000 808f 	beq.w	800435c <HAL_DMA_IRQHandler+0x2a0>
  {
    if(__HAL_DMA_GET_IT_SOURCE(hdma, DMA_IT_TC) != RESET)
 800423e:	687b      	ldr	r3, [r7, #4]
 8004240:	681b      	ldr	r3, [r3, #0]
 8004242:	681b      	ldr	r3, [r3, #0]
 8004244:	f003 0310 	and.w	r3, r3, #16
 8004248:	2b00      	cmp	r3, #0
 800424a:	f000 8087 	beq.w	800435c <HAL_DMA_IRQHandler+0x2a0>
    {
      /* Clear the transfer complete flag */
      regs->IFCR = DMA_FLAG_TCIF0_4 << hdma->StreamIndex;
 800424e:	687b      	ldr	r3, [r7, #4]
 8004250:	6ddb      	ldr	r3, [r3, #92]	@ 0x5c
 8004252:	2220      	movs	r2, #32
 8004254:	409a      	lsls	r2, r3
 8004256:	693b      	ldr	r3, [r7, #16]
 8004258:	609a      	str	r2, [r3, #8]
      
      if(HAL_DMA_STATE_ABORT == hdma->State)
 800425a:	687b      	ldr	r3, [r7, #4]
 800425c:	f893 3035 	ldrb.w	r3, [r3, #53]	@ 0x35
 8004260:	b2db      	uxtb	r3, r3
 8004262:	2b05      	cmp	r3, #5
 8004264:	d136      	bne.n	80042d4 <HAL_DMA_IRQHandler+0x218>
      {
        /* Disable all the transfer interrupts */
        hdma->Instance->CR  &= ~(DMA_IT_TC | DMA_IT_TE | DMA_IT_DME);
 8004266:	687b      	ldr	r3, [r7, #4]
 8004268:	681b      	ldr	r3, [r3, #0]
 800426a:	681a      	ldr	r2, [r3, #0]
 800426c:	687b      	ldr	r3, [r7, #4]
 800426e:	681b      	ldr	r3, [r3, #0]
 8004270:	f022 0216 	bic.w	r2, r2, #22
 8004274:	601a      	str	r2, [r3, #0]
        hdma->Instance->FCR &= ~(DMA_IT_FE);
 8004276:	687b      	ldr	r3, [r7, #4]
 8004278:	681b      	ldr	r3, [r3, #0]
 800427a:	695a      	ldr	r2, [r3, #20]
 800427c:	687b      	ldr	r3, [r7, #4]
 800427e:	681b      	ldr	r3, [r3, #0]
 8004280:	f022 0280 	bic.w	r2, r2, #128	@ 0x80
 8004284:	615a      	str	r2, [r3, #20]
        
        if((hdma->XferHalfCpltCallback != NULL) || (hdma->XferM1HalfCpltCallback != NULL))
 8004286:	687b      	ldr	r3, [r7, #4]
 8004288:	6c1b      	ldr	r3, [r3, #64]	@ 0x40
 800428a:	2b00      	cmp	r3, #0
 800428c:	d103      	bne.n	8004296 <HAL_DMA_IRQHandler+0x1da>
 800428e:	687b      	ldr	r3, [r7, #4]
 8004290:	6c9b      	ldr	r3, [r3, #72]	@ 0x48
 8004292:	2b00      	cmp	r3, #0
 8004294:	d007      	beq.n	80042a6 <HAL_DMA_IRQHandler+0x1ea>
        {
          hdma->Instance->CR  &= ~(DMA_IT_HT);
 8004296:	687b      	ldr	r3, [r7, #4]
 8004298:	681b      	ldr	r3, [r3, #0]
 800429a:	681a      	ldr	r2, [r3, #0]
 800429c:	687b      	ldr	r3, [r7, #4]
 800429e:	681b      	ldr	r3, [r3, #0]
 80042a0:	f022 0208 	bic.w	r2, r2, #8
 80042a4:	601a      	str	r2, [r3, #0]
        }

        /* Clear all interrupt flags at correct offset within the register */
        regs->IFCR = 0x3FU << hdma->StreamIndex;
 80042a6:	687b      	ldr	r3, [r7, #4]
 80042a8:	6ddb      	ldr	r3, [r3, #92]	@ 0x5c
 80042aa:	223f      	movs	r2, #63	@ 0x3f
 80042ac:	409a      	lsls	r2, r3
 80042ae:	693b      	ldr	r3, [r7, #16]
 80042b0:	609a      	str	r2, [r3, #8]

        /* Change the DMA state */
        hdma->State = HAL_DMA_STATE_READY;
 80042b2:	687b      	ldr	r3, [r7, #4]
 80042b4:	2201      	movs	r2, #1
 80042b6:	f883 2035 	strb.w	r2, [r3, #53]	@ 0x35

        /* Process Unlocked */
        __HAL_UNLOCK(hdma);
 80042ba:	687b      	ldr	r3, [r7, #4]
 80042bc:	2200      	movs	r2, #0
 80042be:	f883 2034 	strb.w	r2, [r3, #52]	@ 0x34

        if(hdma->XferAbortCallback != NULL)
 80042c2:	687b      	ldr	r3, [r7, #4]
 80042c4:	6d1b      	ldr	r3, [r3, #80]	@ 0x50
 80042c6:	2b00      	cmp	r3, #0
 80042c8:	d07e      	beq.n	80043c8 <HAL_DMA_IRQHandler+0x30c>
        {
          hdma->XferAbortCallback(hdma);
 80042ca:	687b      	ldr	r3, [r7, #4]
 80042cc:	6d1b      	ldr	r3, [r3, #80]	@ 0x50
 80042ce:	6878      	ldr	r0, [r7, #4]
 80042d0:	4798      	blx	r3
        }
        return;
 80042d2:	e079      	b.n	80043c8 <HAL_DMA_IRQHandler+0x30c>
      }

      if(((hdma->Instance->CR) & (uint32_t)(DMA_SxCR_DBM)) != RESET)
 80042d4:	687b      	ldr	r3, [r7, #4]
 80042d6:	681b      	ldr	r3, [r3, #0]
 80042d8:	681b      	ldr	r3, [r3, #0]
 80042da:	f403 2380 	and.w	r3, r3, #262144	@ 0x40000
 80042de:	2b00      	cmp	r3, #0
 80042e0:	d01d      	beq.n	800431e <HAL_DMA_IRQHandler+0x262>
      {
        /* Current memory buffer used is Memory 0 */
        if((hdma->Instance->CR & DMA_SxCR_CT) == RESET)
 80042e2:	687b      	ldr	r3, [r7, #4]
 80042e4:	681b      	ldr	r3, [r3, #0]
 80042e6:	681b      	ldr	r3, [r3, #0]
 80042e8:	f403 2300 	and.w	r3, r3, #524288	@ 0x80000
 80042ec:	2b00      	cmp	r3, #0
 80042ee:	d10d      	bne.n	800430c <HAL_DMA_IRQHandler+0x250>
        {
          if(hdma->XferM1CpltCallback != NULL)
 80042f0:	687b      	ldr	r3, [r7, #4]
 80042f2:	6c5b      	ldr	r3, [r3, #68]	@ 0x44
 80042f4:	2b00      	cmp	r3, #0
 80042f6:	d031      	beq.n	800435c <HAL_DMA_IRQHandler+0x2a0>
          {
            /* Transfer complete Callback for memory1 */
            hdma->XferM1CpltCallback(hdma);
 80042f8:	687b      	ldr	r3, [r7, #4]
 80042fa:	6c5b      	ldr	r3, [r3, #68]	@ 0x44
 80042fc:	6878      	ldr	r0, [r7, #4]
 80042fe:	4798      	blx	r3
 8004300:	e02c      	b.n	800435c <HAL_DMA_IRQHandler+0x2a0>
 8004302:	bf00      	nop
 8004304:	20000000 	.word	0x20000000
 8004308:	1b4e81b5 	.word	0x1b4e81b5
          }
        }
        /* Current memory buffer used is Memory 1 */
        else
        {
          if(hdma->XferCpltCallback != NULL)
 800430c:	687b      	ldr	r3, [r7, #4]
 800430e:	6bdb      	ldr	r3, [r3, #60]	@ 0x3c
 8004310:	2b00      	cmp	r3, #0
 8004312:	d023      	beq.n	800435c <HAL_DMA_IRQHandler+0x2a0>
          {
            /* Transfer complete Callback for memory0 */
            hdma->XferCpltCallback(hdma);
 8004314:	687b      	ldr	r3, [r7, #4]
 8004316:	6bdb      	ldr	r3, [r3, #60]	@ 0x3c
 8004318:	6878      	ldr	r0, [r7, #4]
 800431a:	4798      	blx	r3
 800431c:	e01e      	b.n	800435c <HAL_DMA_IRQHandler+0x2a0>
        }
      }
      /* Disable the transfer complete interrupt if the DMA mode is not CIRCULAR */
      else
      {
        if((hdma->Instance->CR & DMA_SxCR_CIRC) == RESET)
 800431e:	687b      	ldr	r3, [r7, #4]
 8004320:	681b      	ldr	r3, [r3, #0]
 8004322:	681b      	ldr	r3, [r3, #0]
 8004324:	f403 7380 	and.w	r3, r3, #256	@ 0x100
 8004328:	2b00      	cmp	r3, #0
 800432a:	d10f      	bne.n	800434c <HAL_DMA_IRQHandler+0x290>
        {
          /* Disable the transfer complete interrupt */
          hdma->Instance->CR  &= ~(DMA_IT_TC);
 800432c:	687b      	ldr	r3, [r7, #4]
 800432e:	681b      	ldr	r3, [r3, #0]
 8004330:	681a      	ldr	r2, [r3, #0]
 8004332:	687b      	ldr	r3, [r7, #4]
 8004334:	681b      	ldr	r3, [r3, #0]
 8004336:	f022 0210 	bic.w	r2, r2, #16
 800433a:	601a      	str	r2, [r3, #0]

          /* Change the DMA state */
          hdma->State = HAL_DMA_STATE_READY;
 800433c:	687b      	ldr	r3, [r7, #4]
 800433e:	2201      	movs	r2, #1
 8004340:	f883 2035 	strb.w	r2, [r3, #53]	@ 0x35

          /* Process Unlocked */
          __HAL_UNLOCK(hdma);
 8004344:	687b      	ldr	r3, [r7, #4]
 8004346:	2200      	movs	r2, #0
 8004348:	f883 2034 	strb.w	r2, [r3, #52]	@ 0x34
        }

        if(hdma->XferCpltCallback != NULL)
 800434c:	687b      	ldr	r3, [r7, #4]
 800434e:	6bdb      	ldr	r3, [r3, #60]	@ 0x3c
 8004350:	2b00      	cmp	r3, #0
 8004352:	d003      	beq.n	800435c <HAL_DMA_IRQHandler+0x2a0>
        {
          /* Transfer complete callback */
          hdma->XferCpltCallback(hdma);
 8004354:	687b      	ldr	r3, [r7, #4]
 8004356:	6bdb      	ldr	r3, [r3, #60]	@ 0x3c
 8004358:	6878      	ldr	r0, [r7, #4]
 800435a:	4798      	blx	r3
      }
    }
  }
  
  /* manage error case */
  if(hdma->ErrorCode != HAL_DMA_ERROR_NONE)
 800435c:	687b      	ldr	r3, [r7, #4]
 800435e:	6d5b      	ldr	r3, [r3, #84]	@ 0x54
 8004360:	2b00      	cmp	r3, #0
 8004362:	d032      	beq.n	80043ca <HAL_DMA_IRQHandler+0x30e>
  {
    if((hdma->ErrorCode & HAL_DMA_ERROR_TE) != RESET)
 8004364:	687b      	ldr	r3, [r7, #4]
 8004366:	6d5b      	ldr	r3, [r3, #84]	@ 0x54
 8004368:	f003 0301 	and.w	r3, r3, #1
 800436c:	2b00      	cmp	r3, #0
 800436e:	d022      	beq.n	80043b6 <HAL_DMA_IRQHandler+0x2fa>
    {
      hdma->State = HAL_DMA_STATE_ABORT;
 8004370:	687b      	ldr	r3, [r7, #4]
 8004372:	2205      	movs	r2, #5
 8004374:	f883 2035 	strb.w	r2, [r3, #53]	@ 0x35

      /* Disable the stream */
      __HAL_DMA_DISABLE(hdma);
 8004378:	687b      	ldr	r3, [r7, #4]
 800437a:	681b      	ldr	r3, [r3, #0]
 800437c:	681a      	ldr	r2, [r3, #0]
 800437e:	687b      	ldr	r3, [r7, #4]
 8004380:	681b      	ldr	r3, [r3, #0]
 8004382:	f022 0201 	bic.w	r2, r2, #1
 8004386:	601a      	str	r2, [r3, #0]

      do
      {
        if (++count > timeout)
 8004388:	68bb      	ldr	r3, [r7, #8]
 800438a:	3301      	adds	r3, #1
 800438c:	60bb      	str	r3, [r7, #8]
 800438e:	697a      	ldr	r2, [r7, #20]
 8004390:	429a      	cmp	r2, r3
 8004392:	d307      	bcc.n	80043a4 <HAL_DMA_IRQHandler+0x2e8>
        {
          break;
        }
      }
      while((hdma->Instance->CR & DMA_SxCR_EN) != RESET);
 8004394:	687b      	ldr	r3, [r7, #4]
 8004396:	681b      	ldr	r3, [r3, #0]
 8004398:	681b      	ldr	r3, [r3, #0]
 800439a:	f003 0301 	and.w	r3, r3, #1
 800439e:	2b00      	cmp	r3, #0
 80043a0:	d1f2      	bne.n	8004388 <HAL_DMA_IRQHandler+0x2cc>
 80043a2:	e000      	b.n	80043a6 <HAL_DMA_IRQHandler+0x2ea>
          break;
 80043a4:	bf00      	nop

      /* Change the DMA state */
      hdma->State = HAL_DMA_STATE_READY;
 80043a6:	687b      	ldr	r3, [r7, #4]
 80043a8:	2201      	movs	r2, #1
 80043aa:	f883 2035 	strb.w	r2, [r3, #53]	@ 0x35

      /* Process Unlocked */
      __HAL_UNLOCK(hdma);
 80043ae:	687b      	ldr	r3, [r7, #4]
 80043b0:	2200      	movs	r2, #0
 80043b2:	f883 2034 	strb.w	r2, [r3, #52]	@ 0x34
    }

    if(hdma->XferErrorCallback != NULL)
 80043b6:	687b      	ldr	r3, [r7, #4]
 80043b8:	6cdb      	ldr	r3, [r3, #76]	@ 0x4c
 80043ba:	2b00      	cmp	r3, #0
 80043bc:	d005      	beq.n	80043ca <HAL_DMA_IRQHandler+0x30e>
    {
      /* Transfer error callback */
      hdma->XferErrorCallback(hdma);
 80043be:	687b      	ldr	r3, [r7, #4]
 80043c0:	6cdb      	ldr	r3, [r3, #76]	@ 0x4c
 80043c2:	6878      	ldr	r0, [r7, #4]
 80043c4:	4798      	blx	r3
 80043c6:	e000      	b.n	80043ca <HAL_DMA_IRQHandler+0x30e>
        return;
 80043c8:	bf00      	nop
    }
  }
}
 80043ca:	3718      	adds	r7, #24
 80043cc:	46bd      	mov	sp, r7
 80043ce:	bd80      	pop	{r7, pc}

080043d0 <HAL_GPIO_Init>:
  * @param  GPIO_Init pointer to a GPIO_InitTypeDef structure that contains
  *         the configuration information for the specified GPIO peripheral.
  * @retval None
  */
void HAL_GPIO_Init(GPIO_TypeDef  *GPIOx, GPIO_InitTypeDef *GPIO_Init)
{
 80043d0:	b480      	push	{r7}
 80043d2:	b089      	sub	sp, #36	@ 0x24
 80043d4:	af00      	add	r7, sp, #0
 80043d6:	6078      	str	r0, [r7, #4]
 80043d8:	6039      	str	r1, [r7, #0]
  uint32_t position;
  uint32_t ioposition = 0x00U;
 80043da:	2300      	movs	r3, #0
 80043dc:	617b      	str	r3, [r7, #20]
  uint32_t iocurrent = 0x00U;
 80043de:	2300      	movs	r3, #0
 80043e0:	613b      	str	r3, [r7, #16]
  uint32_t temp = 0x00U;
 80043e2:	2300      	movs	r3, #0
 80043e4:	61bb      	str	r3, [r7, #24]
  assert_param(IS_GPIO_ALL_INSTANCE(GPIOx));
  assert_param(IS_GPIO_PIN(GPIO_Init->Pin));
  assert_param(IS_GPIO_MODE(GPIO_Init->Mode));

  /* Configure the port pins */
  for(position = 0U; position < GPIO_NUMBER; position++)
 80043e6:	2300      	movs	r3, #0
 80043e8:	61fb      	str	r3, [r7, #28]
 80043ea:	e177      	b.n	80046dc <HAL_GPIO_Init+0x30c>
  {
    /* Get the IO position */
    ioposition = 0x01U << position;
 80043ec:	2201      	movs	r2, #1
 80043ee:	69fb      	ldr	r3, [r7, #28]
 80043f0:	fa02 f303 	lsl.w	r3, r2, r3
 80043f4:	617b      	str	r3, [r7, #20]
    /* Get the current IO position */
    iocurrent = (uint32_t)(GPIO_Init->Pin) & ioposition;
 80043f6:	683b      	ldr	r3, [r7, #0]
 80043f8:	681b      	ldr	r3, [r3, #0]
 80043fa:	697a      	ldr	r2, [r7, #20]
 80043fc:	4013      	ands	r3, r2
 80043fe:	613b      	str	r3, [r7, #16]

    if(iocurrent == ioposition)
 8004400:	693a      	ldr	r2, [r7, #16]
 8004402:	697b      	ldr	r3, [r7, #20]
 8004404:	429a      	cmp	r2, r3
 8004406:	f040 8166 	bne.w	80046d6 <HAL_GPIO_Init+0x306>
    {
      /*--------------------- GPIO Mode Configuration ------------------------*/
      /* In case of Output or Alternate function mode selection */
      if(((GPIO_Init->Mode & GPIO_MODE) == MODE_OUTPUT) || \
 800440a:	683b      	ldr	r3, [r7, #0]
 800440c:	685b      	ldr	r3, [r3, #4]
 800440e:	f003 0303 	and.w	r3, r3, #3
 8004412:	2b01      	cmp	r3, #1
 8004414:	d005      	beq.n	8004422 <HAL_GPIO_Init+0x52>
          (GPIO_Init->Mode & GPIO_MODE) == MODE_AF)
 8004416:	683b      	ldr	r3, [r7, #0]
 8004418:	685b      	ldr	r3, [r3, #4]
 800441a:	f003 0303 	and.w	r3, r3, #3
      if(((GPIO_Init->Mode & GPIO_MODE) == MODE_OUTPUT) || \
 800441e:	2b02      	cmp	r3, #2
 8004420:	d130      	bne.n	8004484 <HAL_GPIO_Init+0xb4>
      {
        /* Check the Speed parameter */
        assert_param(IS_GPIO_SPEED(GPIO_Init->Speed));
        /* Configure the IO Speed */
        temp = GPIOx->OSPEEDR; 
 8004422:	687b      	ldr	r3, [r7, #4]
 8004424:	689b      	ldr	r3, [r3, #8]
 8004426:	61bb      	str	r3, [r7, #24]
        temp &= ~(GPIO_OSPEEDER_OSPEEDR0 << (position * 2U));
 8004428:	69fb      	ldr	r3, [r7, #28]
 800442a:	005b      	lsls	r3, r3, #1
 800442c:	2203      	movs	r2, #3
 800442e:	fa02 f303 	lsl.w	r3, r2, r3
 8004432:	43db      	mvns	r3, r3
 8004434:	69ba      	ldr	r2, [r7, #24]
 8004436:	4013      	ands	r3, r2
 8004438:	61bb      	str	r3, [r7, #24]
        temp |= (GPIO_Init->Speed << (position * 2U));
 800443a:	683b      	ldr	r3, [r7, #0]
 800443c:	68da      	ldr	r2, [r3, #12]
 800443e:	69fb      	ldr	r3, [r7, #28]
 8004440:	005b      	lsls	r3, r3, #1
 8004442:	fa02 f303 	lsl.w	r3, r2, r3
 8004446:	69ba      	ldr	r2, [r7, #24]
 8004448:	4313      	orrs	r3, r2
 800444a:	61bb      	str	r3, [r7, #24]
        GPIOx->OSPEEDR = temp;
 800444c:	687b      	ldr	r3, [r7, #4]
 800444e:	69ba      	ldr	r2, [r7, #24]
 8004450:	609a      	str	r2, [r3, #8]

        /* Configure the IO Output Type */
        temp = GPIOx->OTYPER;
 8004452:	687b      	ldr	r3, [r7, #4]
 8004454:	685b      	ldr	r3, [r3, #4]
 8004456:	61bb      	str	r3, [r7, #24]
        temp &= ~(GPIO_OTYPER_OT_0 << position) ;
 8004458:	2201      	movs	r2, #1
 800445a:	69fb      	ldr	r3, [r7, #28]
 800445c:	fa02 f303 	lsl.w	r3, r2, r3
 8004460:	43db      	mvns	r3, r3
 8004462:	69ba      	ldr	r2, [r7, #24]
 8004464:	4013      	ands	r3, r2
 8004466:	61bb      	str	r3, [r7, #24]
        temp |= (((GPIO_Init->Mode & OUTPUT_TYPE) >> OUTPUT_TYPE_Pos) << position);
 8004468:	683b      	ldr	r3, [r7, #0]
 800446a:	685b      	ldr	r3, [r3, #4]
 800446c:	091b      	lsrs	r3, r3, #4
 800446e:	f003 0201 	and.w	r2, r3, #1
 8004472:	69fb      	ldr	r3, [r7, #28]
 8004474:	fa02 f303 	lsl.w	r3, r2, r3
 8004478:	69ba      	ldr	r2, [r7, #24]
 800447a:	4313      	orrs	r3, r2
 800447c:	61bb      	str	r3, [r7, #24]
        GPIOx->OTYPER = temp;
 800447e:	687b      	ldr	r3, [r7, #4]
 8004480:	69ba      	ldr	r2, [r7, #24]
 8004482:	605a      	str	r2, [r3, #4]
       }

      if((GPIO_Init->Mode & GPIO_MODE) != MODE_ANALOG)
 8004484:	683b      	ldr	r3, [r7, #0]
 8004486:	685b      	ldr	r3, [r3, #4]
 8004488:	f003 0303 	and.w	r3, r3, #3
 800448c:	2b03      	cmp	r3, #3
 800448e:	d017      	beq.n	80044c0 <HAL_GPIO_Init+0xf0>
      {
        /* Check the parameters */
        assert_param(IS_GPIO_PULL(GPIO_Init->Pull));
        
        /* Activate the Pull-up or Pull down resistor for the current IO */
        temp = GPIOx->PUPDR;
 8004490:	687b      	ldr	r3, [r7, #4]
 8004492:	68db      	ldr	r3, [r3, #12]
 8004494:	61bb      	str	r3, [r7, #24]
        temp &= ~(GPIO_PUPDR_PUPDR0 << (position * 2U));
 8004496:	69fb      	ldr	r3, [r7, #28]
 8004498:	005b      	lsls	r3, r3, #1
 800449a:	2203      	movs	r2, #3
 800449c:	fa02 f303 	lsl.w	r3, r2, r3
 80044a0:	43db      	mvns	r3, r3
 80044a2:	69ba      	ldr	r2, [r7, #24]
 80044a4:	4013      	ands	r3, r2
 80044a6:	61bb      	str	r3, [r7, #24]
        temp |= ((GPIO_Init->Pull) << (position * 2U));
 80044a8:	683b      	ldr	r3, [r7, #0]
 80044aa:	689a      	ldr	r2, [r3, #8]
 80044ac:	69fb      	ldr	r3, [r7, #28]
 80044ae:	005b      	lsls	r3, r3, #1
 80044b0:	fa02 f303 	lsl.w	r3, r2, r3
 80044b4:	69ba      	ldr	r2, [r7, #24]
 80044b6:	4313      	orrs	r3, r2
 80044b8:	61bb      	str	r3, [r7, #24]
        GPIOx->PUPDR = temp;
 80044ba:	687b      	ldr	r3, [r7, #4]
 80044bc:	69ba      	ldr	r2, [r7, #24]
 80044be:	60da      	str	r2, [r3, #12]
      }

      /* In case of Alternate function mode selection */
      if((GPIO_Init->Mode & GPIO_MODE) == MODE_AF)
 80044c0:	683b      	ldr	r3, [r7, #0]
 80044c2:	685b      	ldr	r3, [r3, #4]
 80044c4:	f003 0303 	and.w	r3, r3, #3
 80044c8:	2b02      	cmp	r3, #2
 80044ca:	d123      	bne.n	8004514 <HAL_GPIO_Init+0x144>
      {
        /* Check the Alternate function parameter */
        assert_param(IS_GPIO_AF(GPIO_Init->Alternate));
        /* Configure Alternate function mapped with the current IO */
        temp = GPIOx->AFR[position >> 3U];
 80044cc:	69fb      	ldr	r3, [r7, #28]
 80044ce:	08da      	lsrs	r2, r3, #3
 80044d0:	687b      	ldr	r3, [r7, #4]
 80044d2:	3208      	adds	r2, #8
 80044d4:	f853 3022 	ldr.w	r3, [r3, r2, lsl #2]
 80044d8:	61bb      	str	r3, [r7, #24]
        temp &= ~(0xFU << ((uint32_t)(position & 0x07U) * 4U)) ;
 80044da:	69fb      	ldr	r3, [r7, #28]
 80044dc:	f003 0307 	and.w	r3, r3, #7
 80044e0:	009b      	lsls	r3, r3, #2
 80044e2:	220f      	movs	r2, #15
 80044e4:	fa02 f303 	lsl.w	r3, r2, r3
 80044e8:	43db      	mvns	r3, r3
 80044ea:	69ba      	ldr	r2, [r7, #24]
 80044ec:	4013      	ands	r3, r2
 80044ee:	61bb      	str	r3, [r7, #24]
        temp |= ((uint32_t)(GPIO_Init->Alternate) << (((uint32_t)position & 0x07U) * 4U));
 80044f0:	683b      	ldr	r3, [r7, #0]
 80044f2:	691a      	ldr	r2, [r3, #16]
 80044f4:	69fb      	ldr	r3, [r7, #28]
 80044f6:	f003 0307 	and.w	r3, r3, #7
 80044fa:	009b      	lsls	r3, r3, #2
 80044fc:	fa02 f303 	lsl.w	r3, r2, r3
 8004500:	69ba      	ldr	r2, [r7, #24]
 8004502:	4313      	orrs	r3, r2
 8004504:	61bb      	str	r3, [r7, #24]
        GPIOx->AFR[position >> 3U] = temp;
 8004506:	69fb      	ldr	r3, [r7, #28]
 8004508:	08da      	lsrs	r2, r3, #3
 800450a:	687b      	ldr	r3, [r7, #4]
 800450c:	3208      	adds	r2, #8
 800450e:	69b9      	ldr	r1, [r7, #24]
 8004510:	f843 1022 	str.w	r1, [r3, r2, lsl #2]
      }

      /* Configure IO Direction mode (Input, Output, Alternate or Analog) */
      temp = GPIOx->MODER;
 8004514:	687b      	ldr	r3, [r7, #4]
 8004516:	681b      	ldr	r3, [r3, #0]
 8004518:	61bb      	str	r3, [r7, #24]
      temp &= ~(GPIO_MODER_MODER0 << (position * 2U));
 800451a:	69fb      	ldr	r3, [r7, #28]
 800451c:	005b      	lsls	r3, r3, #1
 800451e:	2203      	movs	r2, #3
 8004520:	fa02 f303 	lsl.w	r3, r2, r3
 8004524:	43db      	mvns	r3, r3
 8004526:	69ba      	ldr	r2, [r7, #24]
 8004528:	4013      	ands	r3, r2
 800452a:	61bb      	str	r3, [r7, #24]
      temp |= ((GPIO_Init->Mode & GPIO_MODE) << (position * 2U));
 800452c:	683b      	ldr	r3, [r7, #0]
 800452e:	685b      	ldr	r3, [r3, #4]
 8004530:	f003 0203 	and.w	r2, r3, #3
 8004534:	69fb      	ldr	r3, [r7, #28]
 8004536:	005b      	lsls	r3, r3, #1
 8004538:	fa02 f303 	lsl.w	r3, r2, r3
 800453c:	69ba      	ldr	r2, [r7, #24]
 800453e:	4313      	orrs	r3, r2
 8004540:	61bb      	str	r3, [r7, #24]
      GPIOx->MODER = temp;
 8004542:	687b      	ldr	r3, [r7, #4]
 8004544:	69ba      	ldr	r2, [r7, #24]
 8004546:	601a      	str	r2, [r3, #0]

      /*--------------------- EXTI Mode Configuration ------------------------*/
      /* Configure the External Interrupt or event for the current IO */
      if((GPIO_Init->Mode & EXTI_MODE) != 0x00U)
 8004548:	683b      	ldr	r3, [r7, #0]
 800454a:	685b      	ldr	r3, [r3, #4]
 800454c:	f403 3340 	and.w	r3, r3, #196608	@ 0x30000
 8004550:	2b00      	cmp	r3, #0
 8004552:	f000 80c0 	beq.w	80046d6 <HAL_GPIO_Init+0x306>
      {
        /* Enable SYSCFG Clock */
        __HAL_RCC_SYSCFG_CLK_ENABLE();
 8004556:	2300      	movs	r3, #0
 8004558:	60fb      	str	r3, [r7, #12]
 800455a:	4b66      	ldr	r3, [pc, #408]	@ (80046f4 <HAL_GPIO_Init+0x324>)
 800455c:	6c5b      	ldr	r3, [r3, #68]	@ 0x44
 800455e:	4a65      	ldr	r2, [pc, #404]	@ (80046f4 <HAL_GPIO_Init+0x324>)
 8004560:	f443 4380 	orr.w	r3, r3, #16384	@ 0x4000
 8004564:	6453      	str	r3, [r2, #68]	@ 0x44
 8004566:	4b63      	ldr	r3, [pc, #396]	@ (80046f4 <HAL_GPIO_Init+0x324>)
 8004568:	6c5b      	ldr	r3, [r3, #68]	@ 0x44
 800456a:	f403 4380 	and.w	r3, r3, #16384	@ 0x4000
 800456e:	60fb      	str	r3, [r7, #12]
 8004570:	68fb      	ldr	r3, [r7, #12]

        temp = SYSCFG->EXTICR[position >> 2U];
 8004572:	4a61      	ldr	r2, [pc, #388]	@ (80046f8 <HAL_GPIO_Init+0x328>)
 8004574:	69fb      	ldr	r3, [r7, #28]
 8004576:	089b      	lsrs	r3, r3, #2
 8004578:	3302      	adds	r3, #2
 800457a:	f852 3023 	ldr.w	r3, [r2, r3, lsl #2]
 800457e:	61bb      	str	r3, [r7, #24]
        temp &= ~(0x0FU << (4U * (position & 0x03U)));
 8004580:	69fb      	ldr	r3, [r7, #28]
 8004582:	f003 0303 	and.w	r3, r3, #3
 8004586:	009b      	lsls	r3, r3, #2
 8004588:	220f      	movs	r2, #15
 800458a:	fa02 f303 	lsl.w	r3, r2, r3
 800458e:	43db      	mvns	r3, r3
 8004590:	69ba      	ldr	r2, [r7, #24]
 8004592:	4013      	ands	r3, r2
 8004594:	61bb      	str	r3, [r7, #24]
        temp |= ((uint32_t)(GPIO_GET_INDEX(GPIOx)) << (4U * (position & 0x03U)));
 8004596:	687b      	ldr	r3, [r7, #4]
 8004598:	4a58      	ldr	r2, [pc, #352]	@ (80046fc <HAL_GPIO_Init+0x32c>)
 800459a:	4293      	cmp	r3, r2
 800459c:	d037      	beq.n	800460e <HAL_GPIO_Init+0x23e>
 800459e:	687b      	ldr	r3, [r7, #4]
 80045a0:	4a57      	ldr	r2, [pc, #348]	@ (8004700 <HAL_GPIO_Init+0x330>)
 80045a2:	4293      	cmp	r3, r2
 80045a4:	d031      	beq.n	800460a <HAL_GPIO_Init+0x23a>
 80045a6:	687b      	ldr	r3, [r7, #4]
 80045a8:	4a56      	ldr	r2, [pc, #344]	@ (8004704 <HAL_GPIO_Init+0x334>)
 80045aa:	4293      	cmp	r3, r2
 80045ac:	d02b      	beq.n	8004606 <HAL_GPIO_Init+0x236>
 80045ae:	687b      	ldr	r3, [r7, #4]
 80045b0:	4a55      	ldr	r2, [pc, #340]	@ (8004708 <HAL_GPIO_Init+0x338>)
 80045b2:	4293      	cmp	r3, r2
 80045b4:	d025      	beq.n	8004602 <HAL_GPIO_Init+0x232>
 80045b6:	687b      	ldr	r3, [r7, #4]
 80045b8:	4a54      	ldr	r2, [pc, #336]	@ (800470c <HAL_GPIO_Init+0x33c>)
 80045ba:	4293      	cmp	r3, r2
 80045bc:	d01f      	beq.n	80045fe <HAL_GPIO_Init+0x22e>
 80045be:	687b      	ldr	r3, [r7, #4]
 80045c0:	4a53      	ldr	r2, [pc, #332]	@ (8004710 <HAL_GPIO_Init+0x340>)
 80045c2:	4293      	cmp	r3, r2
 80045c4:	d019      	beq.n	80045fa <HAL_GPIO_Init+0x22a>
 80045c6:	687b      	ldr	r3, [r7, #4]
 80045c8:	4a52      	ldr	r2, [pc, #328]	@ (8004714 <HAL_GPIO_Init+0x344>)
 80045ca:	4293      	cmp	r3, r2
 80045cc:	d013      	beq.n	80045f6 <HAL_GPIO_Init+0x226>
 80045ce:	687b      	ldr	r3, [r7, #4]
 80045d0:	4a51      	ldr	r2, [pc, #324]	@ (8004718 <HAL_GPIO_Init+0x348>)
 80045d2:	4293      	cmp	r3, r2
 80045d4:	d00d      	beq.n	80045f2 <HAL_GPIO_Init+0x222>
 80045d6:	687b      	ldr	r3, [r7, #4]
 80045d8:	4a50      	ldr	r2, [pc, #320]	@ (800471c <HAL_GPIO_Init+0x34c>)
 80045da:	4293      	cmp	r3, r2
 80045dc:	d007      	beq.n	80045ee <HAL_GPIO_Init+0x21e>
 80045de:	687b      	ldr	r3, [r7, #4]
 80045e0:	4a4f      	ldr	r2, [pc, #316]	@ (8004720 <HAL_GPIO_Init+0x350>)
 80045e2:	4293      	cmp	r3, r2
 80045e4:	d101      	bne.n	80045ea <HAL_GPIO_Init+0x21a>
 80045e6:	2309      	movs	r3, #9
 80045e8:	e012      	b.n	8004610 <HAL_GPIO_Init+0x240>
 80045ea:	230a      	movs	r3, #10
 80045ec:	e010      	b.n	8004610 <HAL_GPIO_Init+0x240>
 80045ee:	2308      	movs	r3, #8
 80045f0:	e00e      	b.n	8004610 <HAL_GPIO_Init+0x240>
 80045f2:	2307      	movs	r3, #7
 80045f4:	e00c      	b.n	8004610 <HAL_GPIO_Init+0x240>
 80045f6:	2306      	movs	r3, #6
 80045f8:	e00a      	b.n	8004610 <HAL_GPIO_Init+0x240>
 80045fa:	2305      	movs	r3, #5
 80045fc:	e008      	b.n	8004610 <HAL_GPIO_Init+0x240>
 80045fe:	2304      	movs	r3, #4
 8004600:	e006      	b.n	8004610 <HAL_GPIO_Init+0x240>
 8004602:	2303      	movs	r3, #3
 8004604:	e004      	b.n	8004610 <HAL_GPIO_Init+0x240>
 8004606:	2302      	movs	r3, #2
 8004608:	e002      	b.n	8004610 <HAL_GPIO_Init+0x240>
 800460a:	2301      	movs	r3, #1
 800460c:	e000      	b.n	8004610 <HAL_GPIO_Init+0x240>
 800460e:	2300      	movs	r3, #0
 8004610:	69fa      	ldr	r2, [r7, #28]
 8004612:	f002 0203 	and.w	r2, r2, #3
 8004616:	0092      	lsls	r2, r2, #2
 8004618:	4093      	lsls	r3, r2
 800461a:	69ba      	ldr	r2, [r7, #24]
 800461c:	4313      	orrs	r3, r2
 800461e:	61bb      	str	r3, [r7, #24]
        SYSCFG->EXTICR[position >> 2U] = temp;
 8004620:	4935      	ldr	r1, [pc, #212]	@ (80046f8 <HAL_GPIO_Init+0x328>)
 8004622:	69fb      	ldr	r3, [r7, #28]
 8004624:	089b      	lsrs	r3, r3, #2
 8004626:	3302      	adds	r3, #2
 8004628:	69ba      	ldr	r2, [r7, #24]
 800462a:	f841 2023 	str.w	r2, [r1, r3, lsl #2]

        /* Clear Rising Falling edge configuration */
        temp = EXTI->RTSR;
 800462e:	4b3d      	ldr	r3, [pc, #244]	@ (8004724 <HAL_GPIO_Init+0x354>)
 8004630:	689b      	ldr	r3, [r3, #8]
 8004632:	61bb      	str	r3, [r7, #24]
        temp &= ~((uint32_t)iocurrent);
 8004634:	693b      	ldr	r3, [r7, #16]
 8004636:	43db      	mvns	r3, r3
 8004638:	69ba      	ldr	r2, [r7, #24]
 800463a:	4013      	ands	r3, r2
 800463c:	61bb      	str	r3, [r7, #24]
        if((GPIO_Init->Mode & TRIGGER_RISING) != 0x00U)
 800463e:	683b      	ldr	r3, [r7, #0]
 8004640:	685b      	ldr	r3, [r3, #4]
 8004642:	f403 1380 	and.w	r3, r3, #1048576	@ 0x100000
 8004646:	2b00      	cmp	r3, #0
 8004648:	d003      	beq.n	8004652 <HAL_GPIO_Init+0x282>
        {
          temp |= iocurrent;
 800464a:	69ba      	ldr	r2, [r7, #24]
 800464c:	693b      	ldr	r3, [r7, #16]
 800464e:	4313      	orrs	r3, r2
 8004650:	61bb      	str	r3, [r7, #24]
        }
        EXTI->RTSR = temp;
 8004652:	4a34      	ldr	r2, [pc, #208]	@ (8004724 <HAL_GPIO_Init+0x354>)
 8004654:	69bb      	ldr	r3, [r7, #24]
 8004656:	6093      	str	r3, [r2, #8]

        temp = EXTI->FTSR;
 8004658:	4b32      	ldr	r3, [pc, #200]	@ (8004724 <HAL_GPIO_Init+0x354>)
 800465a:	68db      	ldr	r3, [r3, #12]
 800465c:	61bb      	str	r3, [r7, #24]
        temp &= ~((uint32_t)iocurrent);
 800465e:	693b      	ldr	r3, [r7, #16]
 8004660:	43db      	mvns	r3, r3
 8004662:	69ba      	ldr	r2, [r7, #24]
 8004664:	4013      	ands	r3, r2
 8004666:	61bb      	str	r3, [r7, #24]
        if((GPIO_Init->Mode & TRIGGER_FALLING) != 0x00U)
 8004668:	683b      	ldr	r3, [r7, #0]
 800466a:	685b      	ldr	r3, [r3, #4]
 800466c:	f403 1300 	and.w	r3, r3, #2097152	@ 0x200000
 8004670:	2b00      	cmp	r3, #0
 8004672:	d003      	beq.n	800467c <HAL_GPIO_Init+0x2ac>
        {
          temp |= iocurrent;
 8004674:	69ba      	ldr	r2, [r7, #24]
 8004676:	693b      	ldr	r3, [r7, #16]
 8004678:	4313      	orrs	r3, r2
 800467a:	61bb      	str	r3, [r7, #24]
        }
        EXTI->FTSR = temp;
 800467c:	4a29      	ldr	r2, [pc, #164]	@ (8004724 <HAL_GPIO_Init+0x354>)
 800467e:	69bb      	ldr	r3, [r7, #24]
 8004680:	60d3      	str	r3, [r2, #12]

        temp = EXTI->EMR;
 8004682:	4b28      	ldr	r3, [pc, #160]	@ (8004724 <HAL_GPIO_Init+0x354>)
 8004684:	685b      	ldr	r3, [r3, #4]
 8004686:	61bb      	str	r3, [r7, #24]
        temp &= ~((uint32_t)iocurrent);
 8004688:	693b      	ldr	r3, [r7, #16]
 800468a:	43db      	mvns	r3, r3
 800468c:	69ba      	ldr	r2, [r7, #24]
 800468e:	4013      	ands	r3, r2
 8004690:	61bb      	str	r3, [r7, #24]
        if((GPIO_Init->Mode & EXTI_EVT) != 0x00U)
 8004692:	683b      	ldr	r3, [r7, #0]
 8004694:	685b      	ldr	r3, [r3, #4]
 8004696:	f403 3300 	and.w	r3, r3, #131072	@ 0x20000
 800469a:	2b00      	cmp	r3, #0
 800469c:	d003      	beq.n	80046a6 <HAL_GPIO_Init+0x2d6>
        {
          temp |= iocurrent;
 800469e:	69ba      	ldr	r2, [r7, #24]
 80046a0:	693b      	ldr	r3, [r7, #16]
 80046a2:	4313      	orrs	r3, r2
 80046a4:	61bb      	str	r3, [r7, #24]
        }
        EXTI->EMR = temp;
 80046a6:	4a1f      	ldr	r2, [pc, #124]	@ (8004724 <HAL_GPIO_Init+0x354>)
 80046a8:	69bb      	ldr	r3, [r7, #24]
 80046aa:	6053      	str	r3, [r2, #4]

        /* Clear EXTI line configuration */
        temp = EXTI->IMR;
 80046ac:	4b1d      	ldr	r3, [pc, #116]	@ (8004724 <HAL_GPIO_Init+0x354>)
 80046ae:	681b      	ldr	r3, [r3, #0]
 80046b0:	61bb      	str	r3, [r7, #24]
        temp &= ~((uint32_t)iocurrent);
 80046b2:	693b      	ldr	r3, [r7, #16]
 80046b4:	43db      	mvns	r3, r3
 80046b6:	69ba      	ldr	r2, [r7, #24]
 80046b8:	4013      	ands	r3, r2
 80046ba:	61bb      	str	r3, [r7, #24]
        if((GPIO_Init->Mode & EXTI_IT) != 0x00U)
 80046bc:	683b      	ldr	r3, [r7, #0]
 80046be:	685b      	ldr	r3, [r3, #4]
 80046c0:	f403 3380 	and.w	r3, r3, #65536	@ 0x10000
 80046c4:	2b00      	cmp	r3, #0
 80046c6:	d003      	beq.n	80046d0 <HAL_GPIO_Init+0x300>
        {
          temp |= iocurrent;
 80046c8:	69ba      	ldr	r2, [r7, #24]
 80046ca:	693b      	ldr	r3, [r7, #16]
 80046cc:	4313      	orrs	r3, r2
 80046ce:	61bb      	str	r3, [r7, #24]
        }
        EXTI->IMR = temp;
 80046d0:	4a14      	ldr	r2, [pc, #80]	@ (8004724 <HAL_GPIO_Init+0x354>)
 80046d2:	69bb      	ldr	r3, [r7, #24]
 80046d4:	6013      	str	r3, [r2, #0]
  for(position = 0U; position < GPIO_NUMBER; position++)
 80046d6:	69fb      	ldr	r3, [r7, #28]
 80046d8:	3301      	adds	r3, #1
 80046da:	61fb      	str	r3, [r7, #28]
 80046dc:	69fb      	ldr	r3, [r7, #28]
 80046de:	2b0f      	cmp	r3, #15
 80046e0:	f67f ae84 	bls.w	80043ec <HAL_GPIO_Init+0x1c>
      }
    }
  }
}
 80046e4:	bf00      	nop
 80046e6:	bf00      	nop
 80046e8:	3724      	adds	r7, #36	@ 0x24
 80046ea:	46bd      	mov	sp, r7
 80046ec:	f85d 7b04 	ldr.w	r7, [sp], #4
 80046f0:	4770      	bx	lr
 80046f2:	bf00      	nop
 80046f4:	40023800 	.word	0x40023800
 80046f8:	40013800 	.word	0x40013800
 80046fc:	40020000 	.word	0x40020000
 8004700:	40020400 	.word	0x40020400
 8004704:	40020800 	.word	0x40020800
 8004708:	40020c00 	.word	0x40020c00
 800470c:	40021000 	.word	0x40021000
 8004710:	40021400 	.word	0x40021400
 8004714:	40021800 	.word	0x40021800
 8004718:	40021c00 	.word	0x40021c00
 800471c:	40022000 	.word	0x40022000
 8004720:	40022400 	.word	0x40022400
 8004724:	40013c00 	.word	0x40013c00

08004728 <HAL_GPIO_ReadPin>:
  * @param  GPIO_Pin specifies the port bit to read.
  *         This parameter can be GPIO_PIN_x where x can be (0..15).
  * @retval The input port pin value.
  */
GPIO_PinState HAL_GPIO_ReadPin(GPIO_TypeDef* GPIOx, uint16_t GPIO_Pin)
{
 8004728:	b480      	push	{r7}
 800472a:	b085      	sub	sp, #20
 800472c:	af00      	add	r7, sp, #0
 800472e:	6078      	str	r0, [r7, #4]
 8004730:	460b      	mov	r3, r1
 8004732:	807b      	strh	r3, [r7, #2]
  GPIO_PinState bitstatus;

  /* Check the parameters */
  assert_param(IS_GPIO_PIN(GPIO_Pin));

  if((GPIOx->IDR & GPIO_Pin) != (uint32_t)GPIO_PIN_RESET)
 8004734:	687b      	ldr	r3, [r7, #4]
 8004736:	691a      	ldr	r2, [r3, #16]
 8004738:	887b      	ldrh	r3, [r7, #2]
 800473a:	4013      	ands	r3, r2
 800473c:	2b00      	cmp	r3, #0
 800473e:	d002      	beq.n	8004746 <HAL_GPIO_ReadPin+0x1e>
  {
    bitstatus = GPIO_PIN_SET;
 8004740:	2301      	movs	r3, #1
 8004742:	73fb      	strb	r3, [r7, #15]
 8004744:	e001      	b.n	800474a <HAL_GPIO_ReadPin+0x22>
  }
  else
  {
    bitstatus = GPIO_PIN_RESET;
 8004746:	2300      	movs	r3, #0
 8004748:	73fb      	strb	r3, [r7, #15]
  }
  return bitstatus;
 800474a:	7bfb      	ldrb	r3, [r7, #15]
}
 800474c:	4618      	mov	r0, r3
 800474e:	3714      	adds	r7, #20
 8004750:	46bd      	mov	sp, r7
 8004752:	f85d 7b04 	ldr.w	r7, [sp], #4
 8004756:	4770      	bx	lr

08004758 <HAL_GPIO_WritePin>:
  *            @arg GPIO_PIN_RESET: to clear the port pin
  *            @arg GPIO_PIN_SET: to set the port pin
  * @retval None
  */
void HAL_GPIO_WritePin(GPIO_TypeDef* GPIOx, uint16_t GPIO_Pin, GPIO_PinState PinState)
{
 8004758:	b480      	push	{r7}
 800475a:	b083      	sub	sp, #12
 800475c:	af00      	add	r7, sp, #0
 800475e:	6078      	str	r0, [r7, #4]
 8004760:	460b      	mov	r3, r1
 8004762:	807b      	strh	r3, [r7, #2]
 8004764:	4613      	mov	r3, r2
 8004766:	707b      	strb	r3, [r7, #1]
  /* Check the parameters */
  assert_param(IS_GPIO_PIN(GPIO_Pin));
  assert_param(IS_GPIO_PIN_ACTION(PinState));

  if(PinState != GPIO_PIN_RESET)
 8004768:	787b      	ldrb	r3, [r7, #1]
 800476a:	2b00      	cmp	r3, #0
 800476c:	d003      	beq.n	8004776 <HAL_GPIO_WritePin+0x1e>
  {
    GPIOx->BSRR = GPIO_Pin;
 800476e:	887a      	ldrh	r2, [r7, #2]
 8004770:	687b      	ldr	r3, [r7, #4]
 8004772:	619a      	str	r2, [r3, #24]
  }
  else
  {
    GPIOx->BSRR = (uint32_t)GPIO_Pin << 16U;
  }
}
 8004774:	e003      	b.n	800477e <HAL_GPIO_WritePin+0x26>
    GPIOx->BSRR = (uint32_t)GPIO_Pin << 16U;
 8004776:	887b      	ldrh	r3, [r7, #2]
 8004778:	041a      	lsls	r2, r3, #16
 800477a:	687b      	ldr	r3, [r7, #4]
 800477c:	619a      	str	r2, [r3, #24]
}
 800477e:	bf00      	nop
 8004780:	370c      	adds	r7, #12
 8004782:	46bd      	mov	sp, r7
 8004784:	f85d 7b04 	ldr.w	r7, [sp], #4
 8004788:	4770      	bx	lr

0800478a <HAL_PCD_Init>:
  *         parameters in the PCD_InitTypeDef and initialize the associated handle.
  * @param  hpcd PCD handle
  * @retval HAL status
  */
HAL_StatusTypeDef HAL_PCD_Init(PCD_HandleTypeDef *hpcd)
{
 800478a:	b580      	push	{r7, lr}
 800478c:	b086      	sub	sp, #24
 800478e:	af02      	add	r7, sp, #8
 8004790:	6078      	str	r0, [r7, #4]
  const USB_OTG_GlobalTypeDef *USBx;
#endif /* defined (USB_OTG_FS) */
  uint8_t i;

  /* Check the PCD handle allocation */
  if (hpcd == NULL)
 8004792:	687b      	ldr	r3, [r7, #4]
 8004794:	2b00      	cmp	r3, #0
 8004796:	d101      	bne.n	800479c <HAL_PCD_Init+0x12>
  {
    return HAL_ERROR;
 8004798:	2301      	movs	r3, #1
 800479a:	e101      	b.n	80049a0 <HAL_PCD_Init+0x216>

  /* Check the parameters */
  assert_param(IS_PCD_ALL_INSTANCE(hpcd->Instance));

#if defined (USB_OTG_FS)
  USBx = hpcd->Instance;
 800479c:	687b      	ldr	r3, [r7, #4]
 800479e:	681b      	ldr	r3, [r3, #0]
 80047a0:	60bb      	str	r3, [r7, #8]
#endif /* defined (USB_OTG_FS) */

  if (hpcd->State == HAL_PCD_STATE_RESET)
 80047a2:	687b      	ldr	r3, [r7, #4]
 80047a4:	f893 3495 	ldrb.w	r3, [r3, #1173]	@ 0x495
 80047a8:	b2db      	uxtb	r3, r3
 80047aa:	2b00      	cmp	r3, #0
 80047ac:	d106      	bne.n	80047bc <HAL_PCD_Init+0x32>
  {
    /* Allocate lock resource and initialize it */
    hpcd->Lock = HAL_UNLOCKED;
 80047ae:	687b      	ldr	r3, [r7, #4]
 80047b0:	2200      	movs	r2, #0
 80047b2:	f883 2494 	strb.w	r2, [r3, #1172]	@ 0x494

    /* Init the low level hardware */
    hpcd->MspInitCallback(hpcd);
#else
    /* Init the low level hardware : GPIO, CLOCK, NVIC... */
    HAL_PCD_MspInit(hpcd);
 80047b6:	6878      	ldr	r0, [r7, #4]
 80047b8:	f7fd fb5e 	bl	8001e78 <HAL_PCD_MspInit>
#endif /* (USE_HAL_PCD_REGISTER_CALLBACKS) */
  }

  hpcd->State = HAL_PCD_STATE_BUSY;
 80047bc:	687b      	ldr	r3, [r7, #4]
 80047be:	2203      	movs	r2, #3
 80047c0:	f883 2495 	strb.w	r2, [r3, #1173]	@ 0x495

#if defined (USB_OTG_FS)
  /* Disable DMA mode for FS instance */
  if (USBx == USB_OTG_FS)
 80047c4:	68bb      	ldr	r3, [r7, #8]
 80047c6:	f1b3 4fa0 	cmp.w	r3, #1342177280	@ 0x50000000
 80047ca:	d102      	bne.n	80047d2 <HAL_PCD_Init+0x48>
  {
    hpcd->Init.dma_enable = 0U;
 80047cc:	687b      	ldr	r3, [r7, #4]
 80047ce:	2200      	movs	r2, #0
 80047d0:	719a      	strb	r2, [r3, #6]
  }
#endif /* defined (USB_OTG_FS) */

  /* Disable the Interrupts */
  __HAL_PCD_DISABLE(hpcd);
 80047d2:	687b      	ldr	r3, [r7, #4]
 80047d4:	681b      	ldr	r3, [r3, #0]
 80047d6:	4618      	mov	r0, r3
 80047d8:	f002 fa89 	bl	8006cee <USB_DisableGlobalInt>

  /*Init the Core (common init.) */
  if (USB_CoreInit(hpcd->Instance, hpcd->Init) != HAL_OK)
 80047dc:	687b      	ldr	r3, [r7, #4]
 80047de:	6818      	ldr	r0, [r3, #0]
 80047e0:	687b      	ldr	r3, [r7, #4]
 80047e2:	7c1a      	ldrb	r2, [r3, #16]
 80047e4:	f88d 2000 	strb.w	r2, [sp]
 80047e8:	3304      	adds	r3, #4
 80047ea:	cb0e      	ldmia	r3, {r1, r2, r3}
 80047ec:	f002 f968 	bl	8006ac0 <USB_CoreInit>
 80047f0:	4603      	mov	r3, r0
 80047f2:	2b00      	cmp	r3, #0
 80047f4:	d005      	beq.n	8004802 <HAL_PCD_Init+0x78>
  {
    hpcd->State = HAL_PCD_STATE_ERROR;
 80047f6:	687b      	ldr	r3, [r7, #4]
 80047f8:	2202      	movs	r2, #2
 80047fa:	f883 2495 	strb.w	r2, [r3, #1173]	@ 0x495
    return HAL_ERROR;
 80047fe:	2301      	movs	r3, #1
 8004800:	e0ce      	b.n	80049a0 <HAL_PCD_Init+0x216>
  }

  /* Force Device Mode */
  if (USB_SetCurrentMode(hpcd->Instance, USB_DEVICE_MODE) != HAL_OK)
 8004802:	687b      	ldr	r3, [r7, #4]
 8004804:	681b      	ldr	r3, [r3, #0]
 8004806:	2100      	movs	r1, #0
 8004808:	4618      	mov	r0, r3
 800480a:	f002 fa81 	bl	8006d10 <USB_SetCurrentMode>
 800480e:	4603      	mov	r3, r0
 8004810:	2b00      	cmp	r3, #0
 8004812:	d005      	beq.n	8004820 <HAL_PCD_Init+0x96>
  {
    hpcd->State = HAL_PCD_STATE_ERROR;
 8004814:	687b      	ldr	r3, [r7, #4]
 8004816:	2202      	movs	r2, #2
 8004818:	f883 2495 	strb.w	r2, [r3, #1173]	@ 0x495
    return HAL_ERROR;
 800481c:	2301      	movs	r3, #1
 800481e:	e0bf      	b.n	80049a0 <HAL_PCD_Init+0x216>
  }

  /* Init endpoints structures */
  for (i = 0U; i < hpcd->Init.dev_endpoints; i++)
 8004820:	2300      	movs	r3, #0
 8004822:	73fb      	strb	r3, [r7, #15]
 8004824:	e04a      	b.n	80048bc <HAL_PCD_Init+0x132>
  {
    /* Init ep structure */
    hpcd->IN_ep[i].is_in = 1U;
 8004826:	7bfa      	ldrb	r2, [r7, #15]
 8004828:	6879      	ldr	r1, [r7, #4]
 800482a:	4613      	mov	r3, r2
 800482c:	00db      	lsls	r3, r3, #3
 800482e:	4413      	add	r3, r2
 8004830:	009b      	lsls	r3, r3, #2
 8004832:	440b      	add	r3, r1
 8004834:	3315      	adds	r3, #21
 8004836:	2201      	movs	r2, #1
 8004838:	701a      	strb	r2, [r3, #0]
    hpcd->IN_ep[i].num = i;
 800483a:	7bfa      	ldrb	r2, [r7, #15]
 800483c:	6879      	ldr	r1, [r7, #4]
 800483e:	4613      	mov	r3, r2
 8004840:	00db      	lsls	r3, r3, #3
 8004842:	4413      	add	r3, r2
 8004844:	009b      	lsls	r3, r3, #2
 8004846:	440b      	add	r3, r1
 8004848:	3314      	adds	r3, #20
 800484a:	7bfa      	ldrb	r2, [r7, #15]
 800484c:	701a      	strb	r2, [r3, #0]
    hpcd->IN_ep[i].tx_fifo_num = i;
 800484e:	7bfa      	ldrb	r2, [r7, #15]
 8004850:	7bfb      	ldrb	r3, [r7, #15]
 8004852:	b298      	uxth	r0, r3
 8004854:	6879      	ldr	r1, [r7, #4]
 8004856:	4613      	mov	r3, r2
 8004858:	00db      	lsls	r3, r3, #3
 800485a:	4413      	add	r3, r2
 800485c:	009b      	lsls	r3, r3, #2
 800485e:	440b      	add	r3, r1
 8004860:	332e      	adds	r3, #46	@ 0x2e
 8004862:	4602      	mov	r2, r0
 8004864:	801a      	strh	r2, [r3, #0]
    /* Control until ep is activated */
    hpcd->IN_ep[i].type = EP_TYPE_CTRL;
 8004866:	7bfa      	ldrb	r2, [r7, #15]
 8004868:	6879      	ldr	r1, [r7, #4]
 800486a:	4613      	mov	r3, r2
 800486c:	00db      	lsls	r3, r3, #3
 800486e:	4413      	add	r3, r2
 8004870:	009b      	lsls	r3, r3, #2
 8004872:	440b      	add	r3, r1
 8004874:	3318      	adds	r3, #24
 8004876:	2200      	movs	r2, #0
 8004878:	701a      	strb	r2, [r3, #0]
    hpcd->IN_ep[i].maxpacket = 0U;
 800487a:	7bfa      	ldrb	r2, [r7, #15]
 800487c:	6879      	ldr	r1, [r7, #4]
 800487e:	4613      	mov	r3, r2
 8004880:	00db      	lsls	r3, r3, #3
 8004882:	4413      	add	r3, r2
 8004884:	009b      	lsls	r3, r3, #2
 8004886:	440b      	add	r3, r1
 8004888:	331c      	adds	r3, #28
 800488a:	2200      	movs	r2, #0
 800488c:	601a      	str	r2, [r3, #0]
    hpcd->IN_ep[i].xfer_buff = 0U;
 800488e:	7bfa      	ldrb	r2, [r7, #15]
 8004890:	6879      	ldr	r1, [r7, #4]
 8004892:	4613      	mov	r3, r2
 8004894:	00db      	lsls	r3, r3, #3
 8004896:	4413      	add	r3, r2
 8004898:	009b      	lsls	r3, r3, #2
 800489a:	440b      	add	r3, r1
 800489c:	3320      	adds	r3, #32
 800489e:	2200      	movs	r2, #0
 80048a0:	601a      	str	r2, [r3, #0]
    hpcd->IN_ep[i].xfer_len = 0U;
 80048a2:	7bfa      	ldrb	r2, [r7, #15]
 80048a4:	6879      	ldr	r1, [r7, #4]
 80048a6:	4613      	mov	r3, r2
 80048a8:	00db      	lsls	r3, r3, #3
 80048aa:	4413      	add	r3, r2
 80048ac:	009b      	lsls	r3, r3, #2
 80048ae:	440b      	add	r3, r1
 80048b0:	3324      	adds	r3, #36	@ 0x24
 80048b2:	2200      	movs	r2, #0
 80048b4:	601a      	str	r2, [r3, #0]
  for (i = 0U; i < hpcd->Init.dev_endpoints; i++)
 80048b6:	7bfb      	ldrb	r3, [r7, #15]
 80048b8:	3301      	adds	r3, #1
 80048ba:	73fb      	strb	r3, [r7, #15]
 80048bc:	687b      	ldr	r3, [r7, #4]
 80048be:	791b      	ldrb	r3, [r3, #4]
 80048c0:	7bfa      	ldrb	r2, [r7, #15]
 80048c2:	429a      	cmp	r2, r3
 80048c4:	d3af      	bcc.n	8004826 <HAL_PCD_Init+0x9c>
  }

  for (i = 0U; i < hpcd->Init.dev_endpoints; i++)
 80048c6:	2300      	movs	r3, #0
 80048c8:	73fb      	strb	r3, [r7, #15]
 80048ca:	e044      	b.n	8004956 <HAL_PCD_Init+0x1cc>
  {
    hpcd->OUT_ep[i].is_in = 0U;
 80048cc:	7bfa      	ldrb	r2, [r7, #15]
 80048ce:	6879      	ldr	r1, [r7, #4]
 80048d0:	4613      	mov	r3, r2
 80048d2:	00db      	lsls	r3, r3, #3
 80048d4:	4413      	add	r3, r2
 80048d6:	009b      	lsls	r3, r3, #2
 80048d8:	440b      	add	r3, r1
 80048da:	f203 2355 	addw	r3, r3, #597	@ 0x255
 80048de:	2200      	movs	r2, #0
 80048e0:	701a      	strb	r2, [r3, #0]
    hpcd->OUT_ep[i].num = i;
 80048e2:	7bfa      	ldrb	r2, [r7, #15]
 80048e4:	6879      	ldr	r1, [r7, #4]
 80048e6:	4613      	mov	r3, r2
 80048e8:	00db      	lsls	r3, r3, #3
 80048ea:	4413      	add	r3, r2
 80048ec:	009b      	lsls	r3, r3, #2
 80048ee:	440b      	add	r3, r1
 80048f0:	f503 7315 	add.w	r3, r3, #596	@ 0x254
 80048f4:	7bfa      	ldrb	r2, [r7, #15]
 80048f6:	701a      	strb	r2, [r3, #0]
    /* Control until ep is activated */
    hpcd->OUT_ep[i].type = EP_TYPE_CTRL;
 80048f8:	7bfa      	ldrb	r2, [r7, #15]
 80048fa:	6879      	ldr	r1, [r7, #4]
 80048fc:	4613      	mov	r3, r2
 80048fe:	00db      	lsls	r3, r3, #3
 8004900:	4413      	add	r3, r2
 8004902:	009b      	lsls	r3, r3, #2
 8004904:	440b      	add	r3, r1
 8004906:	f503 7316 	add.w	r3, r3, #600	@ 0x258
 800490a:	2200      	movs	r2, #0
 800490c:	701a      	strb	r2, [r3, #0]
    hpcd->OUT_ep[i].maxpacket = 0U;
 800490e:	7bfa      	ldrb	r2, [r7, #15]
 8004910:	6879      	ldr	r1, [r7, #4]
 8004912:	4613      	mov	r3, r2
 8004914:	00db      	lsls	r3, r3, #3
 8004916:	4413      	add	r3, r2
 8004918:	009b      	lsls	r3, r3, #2
 800491a:	440b      	add	r3, r1
 800491c:	f503 7317 	add.w	r3, r3, #604	@ 0x25c
 8004920:	2200      	movs	r2, #0
 8004922:	601a      	str	r2, [r3, #0]
    hpcd->OUT_ep[i].xfer_buff = 0U;
 8004924:	7bfa      	ldrb	r2, [r7, #15]
 8004926:	6879      	ldr	r1, [r7, #4]
 8004928:	4613      	mov	r3, r2
 800492a:	00db      	lsls	r3, r3, #3
 800492c:	4413      	add	r3, r2
 800492e:	009b      	lsls	r3, r3, #2
 8004930:	440b      	add	r3, r1
 8004932:	f503 7318 	add.w	r3, r3, #608	@ 0x260
 8004936:	2200      	movs	r2, #0
 8004938:	601a      	str	r2, [r3, #0]
    hpcd->OUT_ep[i].xfer_len = 0U;
 800493a:	7bfa      	ldrb	r2, [r7, #15]
 800493c:	6879      	ldr	r1, [r7, #4]
 800493e:	4613      	mov	r3, r2
 8004940:	00db      	lsls	r3, r3, #3
 8004942:	4413      	add	r3, r2
 8004944:	009b      	lsls	r3, r3, #2
 8004946:	440b      	add	r3, r1
 8004948:	f503 7319 	add.w	r3, r3, #612	@ 0x264
 800494c:	2200      	movs	r2, #0
 800494e:	601a      	str	r2, [r3, #0]
  for (i = 0U; i < hpcd->Init.dev_endpoints; i++)
 8004950:	7bfb      	ldrb	r3, [r7, #15]
 8004952:	3301      	adds	r3, #1
 8004954:	73fb      	strb	r3, [r7, #15]
 8004956:	687b      	ldr	r3, [r7, #4]
 8004958:	791b      	ldrb	r3, [r3, #4]
 800495a:	7bfa      	ldrb	r2, [r7, #15]
 800495c:	429a      	cmp	r2, r3
 800495e:	d3b5      	bcc.n	80048cc <HAL_PCD_Init+0x142>
  }

  /* Init Device */
  if (USB_DevInit(hpcd->Instance, hpcd->Init) != HAL_OK)
 8004960:	687b      	ldr	r3, [r7, #4]
 8004962:	6818      	ldr	r0, [r3, #0]
 8004964:	687b      	ldr	r3, [r7, #4]
 8004966:	7c1a      	ldrb	r2, [r3, #16]
 8004968:	f88d 2000 	strb.w	r2, [sp]
 800496c:	3304      	adds	r3, #4
 800496e:	cb0e      	ldmia	r3, {r1, r2, r3}
 8004970:	f002 fa1a 	bl	8006da8 <USB_DevInit>
 8004974:	4603      	mov	r3, r0
 8004976:	2b00      	cmp	r3, #0
 8004978:	d005      	beq.n	8004986 <HAL_PCD_Init+0x1fc>
  {
    hpcd->State = HAL_PCD_STATE_ERROR;
 800497a:	687b      	ldr	r3, [r7, #4]
 800497c:	2202      	movs	r2, #2
 800497e:	f883 2495 	strb.w	r2, [r3, #1173]	@ 0x495
    return HAL_ERROR;
 8004982:	2301      	movs	r3, #1
 8004984:	e00c      	b.n	80049a0 <HAL_PCD_Init+0x216>
  }

  hpcd->USB_Address = 0U;
 8004986:	687b      	ldr	r3, [r7, #4]
 8004988:	2200      	movs	r2, #0
 800498a:	745a      	strb	r2, [r3, #17]
  hpcd->State = HAL_PCD_STATE_READY;
 800498c:	687b      	ldr	r3, [r7, #4]
 800498e:	2201      	movs	r2, #1
 8004990:	f883 2495 	strb.w	r2, [r3, #1173]	@ 0x495
    (void)HAL_PCDEx_ActivateLPM(hpcd);
  }
#endif /* defined(STM32F446xx) || defined(STM32F469xx) || defined(STM32F479xx) || defined(STM32F412Zx) ||
          defined(STM32F412Vx) || defined(STM32F412Rx) || defined(STM32F412Cx) || defined(STM32F413xx) ||
          defined(STM32F423xx) */
  (void)USB_DevDisconnect(hpcd->Instance);
 8004994:	687b      	ldr	r3, [r7, #4]
 8004996:	681b      	ldr	r3, [r3, #0]
 8004998:	4618      	mov	r0, r3
 800499a:	f003 f9fe 	bl	8007d9a <USB_DevDisconnect>

  return HAL_OK;
 800499e:	2300      	movs	r3, #0
}
 80049a0:	4618      	mov	r0, r3
 80049a2:	3710      	adds	r7, #16
 80049a4:	46bd      	mov	sp, r7
 80049a6:	bd80      	pop	{r7, pc}

080049a8 <HAL_PCD_Start>:
  * @brief  Start the USB device
  * @param  hpcd PCD handle
  * @retval HAL status
  */
HAL_StatusTypeDef HAL_PCD_Start(PCD_HandleTypeDef *hpcd)
{
 80049a8:	b580      	push	{r7, lr}
 80049aa:	b084      	sub	sp, #16
 80049ac:	af00      	add	r7, sp, #0
 80049ae:	6078      	str	r0, [r7, #4]
  USB_OTG_GlobalTypeDef *USBx = hpcd->Instance;
 80049b0:	687b      	ldr	r3, [r7, #4]
 80049b2:	681b      	ldr	r3, [r3, #0]
 80049b4:	60fb      	str	r3, [r7, #12]

  __HAL_LOCK(hpcd);
 80049b6:	687b      	ldr	r3, [r7, #4]
 80049b8:	f893 3494 	ldrb.w	r3, [r3, #1172]	@ 0x494
 80049bc:	2b01      	cmp	r3, #1
 80049be:	d101      	bne.n	80049c4 <HAL_PCD_Start+0x1c>
 80049c0:	2302      	movs	r3, #2
 80049c2:	e022      	b.n	8004a0a <HAL_PCD_Start+0x62>
 80049c4:	687b      	ldr	r3, [r7, #4]
 80049c6:	2201      	movs	r2, #1
 80049c8:	f883 2494 	strb.w	r2, [r3, #1172]	@ 0x494

  if (((USBx->GUSBCFG & USB_OTG_GUSBCFG_PHYSEL) != 0U) &&
 80049cc:	68fb      	ldr	r3, [r7, #12]
 80049ce:	68db      	ldr	r3, [r3, #12]
 80049d0:	f003 0340 	and.w	r3, r3, #64	@ 0x40
 80049d4:	2b00      	cmp	r3, #0
 80049d6:	d009      	beq.n	80049ec <HAL_PCD_Start+0x44>
      (hpcd->Init.battery_charging_enable == 1U))
 80049d8:	687b      	ldr	r3, [r7, #4]
 80049da:	7b5b      	ldrb	r3, [r3, #13]
  if (((USBx->GUSBCFG & USB_OTG_GUSBCFG_PHYSEL) != 0U) &&
 80049dc:	2b01      	cmp	r3, #1
 80049de:	d105      	bne.n	80049ec <HAL_PCD_Start+0x44>
  {
    /* Enable USB Transceiver */
    USBx->GCCFG |= USB_OTG_GCCFG_PWRDWN;
 80049e0:	68fb      	ldr	r3, [r7, #12]
 80049e2:	6b9b      	ldr	r3, [r3, #56]	@ 0x38
 80049e4:	f443 3280 	orr.w	r2, r3, #65536	@ 0x10000
 80049e8:	68fb      	ldr	r3, [r7, #12]
 80049ea:	639a      	str	r2, [r3, #56]	@ 0x38
  }

  __HAL_PCD_ENABLE(hpcd);
 80049ec:	687b      	ldr	r3, [r7, #4]
 80049ee:	681b      	ldr	r3, [r3, #0]
 80049f0:	4618      	mov	r0, r3
 80049f2:	f002 f96b 	bl	8006ccc <USB_EnableGlobalInt>
  (void)USB_DevConnect(hpcd->Instance);
 80049f6:	687b      	ldr	r3, [r7, #4]
 80049f8:	681b      	ldr	r3, [r3, #0]
 80049fa:	4618      	mov	r0, r3
 80049fc:	f003 f9ac 	bl	8007d58 <USB_DevConnect>
  __HAL_UNLOCK(hpcd);
 8004a00:	687b      	ldr	r3, [r7, #4]
 8004a02:	2200      	movs	r2, #0
 8004a04:	f883 2494 	strb.w	r2, [r3, #1172]	@ 0x494

  return HAL_OK;
 8004a08:	2300      	movs	r3, #0
}
 8004a0a:	4618      	mov	r0, r3
 8004a0c:	3710      	adds	r7, #16
 8004a0e:	46bd      	mov	sp, r7
 8004a10:	bd80      	pop	{r7, pc}

08004a12 <HAL_PCD_IRQHandler>:
  * @brief  Handles PCD interrupt request.
  * @param  hpcd PCD handle
  * @retval HAL status
  */
void HAL_PCD_IRQHandler(PCD_HandleTypeDef *hpcd)
{
 8004a12:	b590      	push	{r4, r7, lr}
 8004a14:	b08d      	sub	sp, #52	@ 0x34
 8004a16:	af00      	add	r7, sp, #0
 8004a18:	6078      	str	r0, [r7, #4]
  USB_OTG_GlobalTypeDef *USBx = hpcd->Instance;
 8004a1a:	687b      	ldr	r3, [r7, #4]
 8004a1c:	681b      	ldr	r3, [r3, #0]
 8004a1e:	623b      	str	r3, [r7, #32]
  uint32_t USBx_BASE = (uint32_t)USBx;
 8004a20:	6a3b      	ldr	r3, [r7, #32]
 8004a22:	61fb      	str	r3, [r7, #28]
  uint32_t epnum;
  uint32_t fifoemptymsk;
  uint32_t RegVal;

  /* ensure that we are in device mode */
  if (USB_GetMode(hpcd->Instance) == USB_OTG_MODE_DEVICE)
 8004a24:	687b      	ldr	r3, [r7, #4]
 8004a26:	681b      	ldr	r3, [r3, #0]
 8004a28:	4618      	mov	r0, r3
 8004a2a:	f003 fa6a 	bl	8007f02 <USB_GetMode>
 8004a2e:	4603      	mov	r3, r0
 8004a30:	2b00      	cmp	r3, #0
 8004a32:	f040 848c 	bne.w	800534e <HAL_PCD_IRQHandler+0x93c>
  {
    /* avoid spurious interrupt */
    if (__HAL_PCD_IS_INVALID_INTERRUPT(hpcd))
 8004a36:	687b      	ldr	r3, [r7, #4]
 8004a38:	681b      	ldr	r3, [r3, #0]
 8004a3a:	4618      	mov	r0, r3
 8004a3c:	f003 f9ce 	bl	8007ddc <USB_ReadInterrupts>
 8004a40:	4603      	mov	r3, r0
 8004a42:	2b00      	cmp	r3, #0
 8004a44:	f000 8482 	beq.w	800534c <HAL_PCD_IRQHandler+0x93a>
    {
      return;
    }

    /* store current frame number */
    hpcd->FrameNumber = (USBx_DEVICE->DSTS & USB_OTG_DSTS_FNSOF_Msk) >> USB_OTG_DSTS_FNSOF_Pos;
 8004a48:	69fb      	ldr	r3, [r7, #28]
 8004a4a:	f503 6300 	add.w	r3, r3, #2048	@ 0x800
 8004a4e:	689b      	ldr	r3, [r3, #8]
 8004a50:	0a1b      	lsrs	r3, r3, #8
 8004a52:	f3c3 020d 	ubfx	r2, r3, #0, #14
 8004a56:	687b      	ldr	r3, [r7, #4]
 8004a58:	f8c3 24d4 	str.w	r2, [r3, #1236]	@ 0x4d4

    if (__HAL_PCD_GET_FLAG(hpcd, USB_OTG_GINTSTS_MMIS))
 8004a5c:	687b      	ldr	r3, [r7, #4]
 8004a5e:	681b      	ldr	r3, [r3, #0]
 8004a60:	4618      	mov	r0, r3
 8004a62:	f003 f9bb 	bl	8007ddc <USB_ReadInterrupts>
 8004a66:	4603      	mov	r3, r0
 8004a68:	f003 0302 	and.w	r3, r3, #2
 8004a6c:	2b02      	cmp	r3, #2
 8004a6e:	d107      	bne.n	8004a80 <HAL_PCD_IRQHandler+0x6e>
    {
      /* incorrect mode, acknowledge the interrupt */
      __HAL_PCD_CLEAR_FLAG(hpcd, USB_OTG_GINTSTS_MMIS);
 8004a70:	687b      	ldr	r3, [r7, #4]
 8004a72:	681b      	ldr	r3, [r3, #0]
 8004a74:	695a      	ldr	r2, [r3, #20]
 8004a76:	687b      	ldr	r3, [r7, #4]
 8004a78:	681b      	ldr	r3, [r3, #0]
 8004a7a:	f002 0202 	and.w	r2, r2, #2
 8004a7e:	615a      	str	r2, [r3, #20]
    }

    /* Handle RxQLevel Interrupt */
    if (__HAL_PCD_GET_FLAG(hpcd, USB_OTG_GINTSTS_RXFLVL))
 8004a80:	687b      	ldr	r3, [r7, #4]
 8004a82:	681b      	ldr	r3, [r3, #0]
 8004a84:	4618      	mov	r0, r3
 8004a86:	f003 f9a9 	bl	8007ddc <USB_ReadInterrupts>
 8004a8a:	4603      	mov	r3, r0
 8004a8c:	f003 0310 	and.w	r3, r3, #16
 8004a90:	2b10      	cmp	r3, #16
 8004a92:	d161      	bne.n	8004b58 <HAL_PCD_IRQHandler+0x146>
    {
      USB_MASK_INTERRUPT(hpcd->Instance, USB_OTG_GINTSTS_RXFLVL);
 8004a94:	687b      	ldr	r3, [r7, #4]
 8004a96:	681b      	ldr	r3, [r3, #0]
 8004a98:	699a      	ldr	r2, [r3, #24]
 8004a9a:	687b      	ldr	r3, [r7, #4]
 8004a9c:	681b      	ldr	r3, [r3, #0]
 8004a9e:	f022 0210 	bic.w	r2, r2, #16
 8004aa2:	619a      	str	r2, [r3, #24]

      RegVal = USBx->GRXSTSP;
 8004aa4:	6a3b      	ldr	r3, [r7, #32]
 8004aa6:	6a1b      	ldr	r3, [r3, #32]
 8004aa8:	61bb      	str	r3, [r7, #24]

      ep = &hpcd->OUT_ep[RegVal & USB_OTG_GRXSTSP_EPNUM];
 8004aaa:	69bb      	ldr	r3, [r7, #24]
 8004aac:	f003 020f 	and.w	r2, r3, #15
 8004ab0:	4613      	mov	r3, r2
 8004ab2:	00db      	lsls	r3, r3, #3
 8004ab4:	4413      	add	r3, r2
 8004ab6:	009b      	lsls	r3, r3, #2
 8004ab8:	f503 7314 	add.w	r3, r3, #592	@ 0x250
 8004abc:	687a      	ldr	r2, [r7, #4]
 8004abe:	4413      	add	r3, r2
 8004ac0:	3304      	adds	r3, #4
 8004ac2:	617b      	str	r3, [r7, #20]

      if (((RegVal & USB_OTG_GRXSTSP_PKTSTS) >> 17) ==  STS_DATA_UPDT)
 8004ac4:	69bb      	ldr	r3, [r7, #24]
 8004ac6:	f403 13f0 	and.w	r3, r3, #1966080	@ 0x1e0000
 8004aca:	f5b3 2f80 	cmp.w	r3, #262144	@ 0x40000
 8004ace:	d124      	bne.n	8004b1a <HAL_PCD_IRQHandler+0x108>
      {
        if ((RegVal & USB_OTG_GRXSTSP_BCNT) != 0U)
 8004ad0:	69ba      	ldr	r2, [r7, #24]
 8004ad2:	f647 73f0 	movw	r3, #32752	@ 0x7ff0
 8004ad6:	4013      	ands	r3, r2
 8004ad8:	2b00      	cmp	r3, #0
 8004ada:	d035      	beq.n	8004b48 <HAL_PCD_IRQHandler+0x136>
        {
          (void)USB_ReadPacket(USBx, ep->xfer_buff,
 8004adc:	697b      	ldr	r3, [r7, #20]
 8004ade:	68d9      	ldr	r1, [r3, #12]
                               (uint16_t)((RegVal & USB_OTG_GRXSTSP_BCNT) >> 4));
 8004ae0:	69bb      	ldr	r3, [r7, #24]
 8004ae2:	091b      	lsrs	r3, r3, #4
 8004ae4:	b29b      	uxth	r3, r3
          (void)USB_ReadPacket(USBx, ep->xfer_buff,
 8004ae6:	f3c3 030a 	ubfx	r3, r3, #0, #11
 8004aea:	b29b      	uxth	r3, r3
 8004aec:	461a      	mov	r2, r3
 8004aee:	6a38      	ldr	r0, [r7, #32]
 8004af0:	f003 f846 	bl	8007b80 <USB_ReadPacket>

          ep->xfer_buff += (RegVal & USB_OTG_GRXSTSP_BCNT) >> 4;
 8004af4:	697b      	ldr	r3, [r7, #20]
 8004af6:	68da      	ldr	r2, [r3, #12]
 8004af8:	69bb      	ldr	r3, [r7, #24]
 8004afa:	091b      	lsrs	r3, r3, #4
 8004afc:	f3c3 030a 	ubfx	r3, r3, #0, #11
 8004b00:	441a      	add	r2, r3
 8004b02:	697b      	ldr	r3, [r7, #20]
 8004b04:	60da      	str	r2, [r3, #12]
          ep->xfer_count += (RegVal & USB_OTG_GRXSTSP_BCNT) >> 4;
 8004b06:	697b      	ldr	r3, [r7, #20]
 8004b08:	695a      	ldr	r2, [r3, #20]
 8004b0a:	69bb      	ldr	r3, [r7, #24]
 8004b0c:	091b      	lsrs	r3, r3, #4
 8004b0e:	f3c3 030a 	ubfx	r3, r3, #0, #11
 8004b12:	441a      	add	r2, r3
 8004b14:	697b      	ldr	r3, [r7, #20]
 8004b16:	615a      	str	r2, [r3, #20]
 8004b18:	e016      	b.n	8004b48 <HAL_PCD_IRQHandler+0x136>
        }
      }
      else if (((RegVal & USB_OTG_GRXSTSP_PKTSTS) >> 17) == STS_SETUP_UPDT)
 8004b1a:	69bb      	ldr	r3, [r7, #24]
 8004b1c:	f403 13f0 	and.w	r3, r3, #1966080	@ 0x1e0000
 8004b20:	f5b3 2f40 	cmp.w	r3, #786432	@ 0xc0000
 8004b24:	d110      	bne.n	8004b48 <HAL_PCD_IRQHandler+0x136>
      {
        (void)USB_ReadPacket(USBx, (uint8_t *)hpcd->Setup, 8U);
 8004b26:	687b      	ldr	r3, [r7, #4]
 8004b28:	f203 439c 	addw	r3, r3, #1180	@ 0x49c
 8004b2c:	2208      	movs	r2, #8
 8004b2e:	4619      	mov	r1, r3
 8004b30:	6a38      	ldr	r0, [r7, #32]
 8004b32:	f003 f825 	bl	8007b80 <USB_ReadPacket>
        ep->xfer_count += (RegVal & USB_OTG_GRXSTSP_BCNT) >> 4;
 8004b36:	697b      	ldr	r3, [r7, #20]
 8004b38:	695a      	ldr	r2, [r3, #20]
 8004b3a:	69bb      	ldr	r3, [r7, #24]
 8004b3c:	091b      	lsrs	r3, r3, #4
 8004b3e:	f3c3 030a 	ubfx	r3, r3, #0, #11
 8004b42:	441a      	add	r2, r3
 8004b44:	697b      	ldr	r3, [r7, #20]
 8004b46:	615a      	str	r2, [r3, #20]
      else
      {
        /* ... */
      }

      USB_UNMASK_INTERRUPT(hpcd->Instance, USB_OTG_GINTSTS_RXFLVL);
 8004b48:	687b      	ldr	r3, [r7, #4]
 8004b4a:	681b      	ldr	r3, [r3, #0]
 8004b4c:	699a      	ldr	r2, [r3, #24]
 8004b4e:	687b      	ldr	r3, [r7, #4]
 8004b50:	681b      	ldr	r3, [r3, #0]
 8004b52:	f042 0210 	orr.w	r2, r2, #16
 8004b56:	619a      	str	r2, [r3, #24]
    }

    if (__HAL_PCD_GET_FLAG(hpcd, USB_OTG_GINTSTS_OEPINT))
 8004b58:	687b      	ldr	r3, [r7, #4]
 8004b5a:	681b      	ldr	r3, [r3, #0]
 8004b5c:	4618      	mov	r0, r3
 8004b5e:	f003 f93d 	bl	8007ddc <USB_ReadInterrupts>
 8004b62:	4603      	mov	r3, r0
 8004b64:	f403 2300 	and.w	r3, r3, #524288	@ 0x80000
 8004b68:	f5b3 2f00 	cmp.w	r3, #524288	@ 0x80000
 8004b6c:	f040 80a7 	bne.w	8004cbe <HAL_PCD_IRQHandler+0x2ac>
    {
      epnum = 0U;
 8004b70:	2300      	movs	r3, #0
 8004b72:	627b      	str	r3, [r7, #36]	@ 0x24

      /* Read in the device interrupt bits */
      ep_intr = USB_ReadDevAllOutEpInterrupt(hpcd->Instance);
 8004b74:	687b      	ldr	r3, [r7, #4]
 8004b76:	681b      	ldr	r3, [r3, #0]
 8004b78:	4618      	mov	r0, r3
 8004b7a:	f003 f942 	bl	8007e02 <USB_ReadDevAllOutEpInterrupt>
 8004b7e:	62b8      	str	r0, [r7, #40]	@ 0x28

      while (ep_intr != 0U)
 8004b80:	e099      	b.n	8004cb6 <HAL_PCD_IRQHandler+0x2a4>
      {
        if ((ep_intr & 0x1U) != 0U)
 8004b82:	6abb      	ldr	r3, [r7, #40]	@ 0x28
 8004b84:	f003 0301 	and.w	r3, r3, #1
 8004b88:	2b00      	cmp	r3, #0
 8004b8a:	f000 808e 	beq.w	8004caa <HAL_PCD_IRQHandler+0x298>
        {
          epint = USB_ReadDevOutEPInterrupt(hpcd->Instance, (uint8_t)epnum);
 8004b8e:	687b      	ldr	r3, [r7, #4]
 8004b90:	681b      	ldr	r3, [r3, #0]
 8004b92:	6a7a      	ldr	r2, [r7, #36]	@ 0x24
 8004b94:	b2d2      	uxtb	r2, r2
 8004b96:	4611      	mov	r1, r2
 8004b98:	4618      	mov	r0, r3
 8004b9a:	f003 f966 	bl	8007e6a <USB_ReadDevOutEPInterrupt>
 8004b9e:	6138      	str	r0, [r7, #16]

          if ((epint & USB_OTG_DOEPINT_XFRC) == USB_OTG_DOEPINT_XFRC)
 8004ba0:	693b      	ldr	r3, [r7, #16]
 8004ba2:	f003 0301 	and.w	r3, r3, #1
 8004ba6:	2b00      	cmp	r3, #0
 8004ba8:	d00c      	beq.n	8004bc4 <HAL_PCD_IRQHandler+0x1b2>
          {
            CLEAR_OUT_EP_INTR(epnum, USB_OTG_DOEPINT_XFRC);
 8004baa:	6a7b      	ldr	r3, [r7, #36]	@ 0x24
 8004bac:	015a      	lsls	r2, r3, #5
 8004bae:	69fb      	ldr	r3, [r7, #28]
 8004bb0:	4413      	add	r3, r2
 8004bb2:	f503 6330 	add.w	r3, r3, #2816	@ 0xb00
 8004bb6:	461a      	mov	r2, r3
 8004bb8:	2301      	movs	r3, #1
 8004bba:	6093      	str	r3, [r2, #8]
            (void)PCD_EP_OutXfrComplete_int(hpcd, epnum);
 8004bbc:	6a79      	ldr	r1, [r7, #36]	@ 0x24
 8004bbe:	6878      	ldr	r0, [r7, #4]
 8004bc0:	f000 fea0 	bl	8005904 <PCD_EP_OutXfrComplete_int>
          }

          if ((epint & USB_OTG_DOEPINT_STUP) == USB_OTG_DOEPINT_STUP)
 8004bc4:	693b      	ldr	r3, [r7, #16]
 8004bc6:	f003 0308 	and.w	r3, r3, #8
 8004bca:	2b00      	cmp	r3, #0
 8004bcc:	d00c      	beq.n	8004be8 <HAL_PCD_IRQHandler+0x1d6>
          {
            CLEAR_OUT_EP_INTR(epnum, USB_OTG_DOEPINT_STUP);
 8004bce:	6a7b      	ldr	r3, [r7, #36]	@ 0x24
 8004bd0:	015a      	lsls	r2, r3, #5
 8004bd2:	69fb      	ldr	r3, [r7, #28]
 8004bd4:	4413      	add	r3, r2
 8004bd6:	f503 6330 	add.w	r3, r3, #2816	@ 0xb00
 8004bda:	461a      	mov	r2, r3
 8004bdc:	2308      	movs	r3, #8
 8004bde:	6093      	str	r3, [r2, #8]
            /* Class B setup phase done for previous decoded setup */
            (void)PCD_EP_OutSetupPacket_int(hpcd, epnum);
 8004be0:	6a79      	ldr	r1, [r7, #36]	@ 0x24
 8004be2:	6878      	ldr	r0, [r7, #4]
 8004be4:	f000 ff76 	bl	8005ad4 <PCD_EP_OutSetupPacket_int>
          }

          if ((epint & USB_OTG_DOEPINT_OTEPDIS) == USB_OTG_DOEPINT_OTEPDIS)
 8004be8:	693b      	ldr	r3, [r7, #16]
 8004bea:	f003 0310 	and.w	r3, r3, #16
 8004bee:	2b00      	cmp	r3, #0
 8004bf0:	d008      	beq.n	8004c04 <HAL_PCD_IRQHandler+0x1f2>
          {
            CLEAR_OUT_EP_INTR(epnum, USB_OTG_DOEPINT_OTEPDIS);
 8004bf2:	6a7b      	ldr	r3, [r7, #36]	@ 0x24
 8004bf4:	015a      	lsls	r2, r3, #5
 8004bf6:	69fb      	ldr	r3, [r7, #28]
 8004bf8:	4413      	add	r3, r2
 8004bfa:	f503 6330 	add.w	r3, r3, #2816	@ 0xb00
 8004bfe:	461a      	mov	r2, r3
 8004c00:	2310      	movs	r3, #16
 8004c02:	6093      	str	r3, [r2, #8]
          }

          /* Clear OUT Endpoint disable interrupt */
          if ((epint & USB_OTG_DOEPINT_EPDISD) == USB_OTG_DOEPINT_EPDISD)
 8004c04:	693b      	ldr	r3, [r7, #16]
 8004c06:	f003 0302 	and.w	r3, r3, #2
 8004c0a:	2b00      	cmp	r3, #0
 8004c0c:	d030      	beq.n	8004c70 <HAL_PCD_IRQHandler+0x25e>
          {
            if ((USBx->GINTSTS & USB_OTG_GINTSTS_BOUTNAKEFF) == USB_OTG_GINTSTS_BOUTNAKEFF)
 8004c0e:	6a3b      	ldr	r3, [r7, #32]
 8004c10:	695b      	ldr	r3, [r3, #20]
 8004c12:	f003 0380 	and.w	r3, r3, #128	@ 0x80
 8004c16:	2b80      	cmp	r3, #128	@ 0x80
 8004c18:	d109      	bne.n	8004c2e <HAL_PCD_IRQHandler+0x21c>
            {
              USBx_DEVICE->DCTL |= USB_OTG_DCTL_CGONAK;
 8004c1a:	69fb      	ldr	r3, [r7, #28]
 8004c1c:	f503 6300 	add.w	r3, r3, #2048	@ 0x800
 8004c20:	685b      	ldr	r3, [r3, #4]
 8004c22:	69fa      	ldr	r2, [r7, #28]
 8004c24:	f502 6200 	add.w	r2, r2, #2048	@ 0x800
 8004c28:	f443 6380 	orr.w	r3, r3, #1024	@ 0x400
 8004c2c:	6053      	str	r3, [r2, #4]
            }

            ep = &hpcd->OUT_ep[epnum];
 8004c2e:	6a7a      	ldr	r2, [r7, #36]	@ 0x24
 8004c30:	4613      	mov	r3, r2
 8004c32:	00db      	lsls	r3, r3, #3
 8004c34:	4413      	add	r3, r2
 8004c36:	009b      	lsls	r3, r3, #2
 8004c38:	f503 7314 	add.w	r3, r3, #592	@ 0x250
 8004c3c:	687a      	ldr	r2, [r7, #4]
 8004c3e:	4413      	add	r3, r2
 8004c40:	3304      	adds	r3, #4
 8004c42:	617b      	str	r3, [r7, #20]

            if (ep->is_iso_incomplete == 1U)
 8004c44:	697b      	ldr	r3, [r7, #20]
 8004c46:	78db      	ldrb	r3, [r3, #3]
 8004c48:	2b01      	cmp	r3, #1
 8004c4a:	d108      	bne.n	8004c5e <HAL_PCD_IRQHandler+0x24c>
            {
              ep->is_iso_incomplete = 0U;
 8004c4c:	697b      	ldr	r3, [r7, #20]
 8004c4e:	2200      	movs	r2, #0
 8004c50:	70da      	strb	r2, [r3, #3]

#if (USE_HAL_PCD_REGISTER_CALLBACKS == 1U)
              hpcd->ISOOUTIncompleteCallback(hpcd, (uint8_t)epnum);
#else
              HAL_PCD_ISOOUTIncompleteCallback(hpcd, (uint8_t)epnum);
 8004c52:	6a7b      	ldr	r3, [r7, #36]	@ 0x24
 8004c54:	b2db      	uxtb	r3, r3
 8004c56:	4619      	mov	r1, r3
 8004c58:	6878      	ldr	r0, [r7, #4]
 8004c5a:	f000 fb85 	bl	8005368 <HAL_PCD_ISOOUTIncompleteCallback>
#endif /* USE_HAL_PCD_REGISTER_CALLBACKS */
            }

            CLEAR_OUT_EP_INTR(epnum, USB_OTG_DOEPINT_EPDISD);
 8004c5e:	6a7b      	ldr	r3, [r7, #36]	@ 0x24
 8004c60:	015a      	lsls	r2, r3, #5
 8004c62:	69fb      	ldr	r3, [r7, #28]
 8004c64:	4413      	add	r3, r2
 8004c66:	f503 6330 	add.w	r3, r3, #2816	@ 0xb00
 8004c6a:	461a      	mov	r2, r3
 8004c6c:	2302      	movs	r3, #2
 8004c6e:	6093      	str	r3, [r2, #8]
          }

          /* Clear Status Phase Received interrupt */
          if ((epint & USB_OTG_DOEPINT_OTEPSPR) == USB_OTG_DOEPINT_OTEPSPR)
 8004c70:	693b      	ldr	r3, [r7, #16]
 8004c72:	f003 0320 	and.w	r3, r3, #32
 8004c76:	2b00      	cmp	r3, #0
 8004c78:	d008      	beq.n	8004c8c <HAL_PCD_IRQHandler+0x27a>
          {
            CLEAR_OUT_EP_INTR(epnum, USB_OTG_DOEPINT_OTEPSPR);
 8004c7a:	6a7b      	ldr	r3, [r7, #36]	@ 0x24
 8004c7c:	015a      	lsls	r2, r3, #5
 8004c7e:	69fb      	ldr	r3, [r7, #28]
 8004c80:	4413      	add	r3, r2
 8004c82:	f503 6330 	add.w	r3, r3, #2816	@ 0xb00
 8004c86:	461a      	mov	r2, r3
 8004c88:	2320      	movs	r3, #32
 8004c8a:	6093      	str	r3, [r2, #8]
          }

          /* Clear OUT NAK interrupt */
          if ((epint & USB_OTG_DOEPINT_NAK) == USB_OTG_DOEPINT_NAK)
 8004c8c:	693b      	ldr	r3, [r7, #16]
 8004c8e:	f403 5300 	and.w	r3, r3, #8192	@ 0x2000
 8004c92:	2b00      	cmp	r3, #0
 8004c94:	d009      	beq.n	8004caa <HAL_PCD_IRQHandler+0x298>
          {
            CLEAR_OUT_EP_INTR(epnum, USB_OTG_DOEPINT_NAK);
 8004c96:	6a7b      	ldr	r3, [r7, #36]	@ 0x24
 8004c98:	015a      	lsls	r2, r3, #5
 8004c9a:	69fb      	ldr	r3, [r7, #28]
 8004c9c:	4413      	add	r3, r2
 8004c9e:	f503 6330 	add.w	r3, r3, #2816	@ 0xb00
 8004ca2:	461a      	mov	r2, r3
 8004ca4:	f44f 5300 	mov.w	r3, #8192	@ 0x2000
 8004ca8:	6093      	str	r3, [r2, #8]
          }
        }
        epnum++;
 8004caa:	6a7b      	ldr	r3, [r7, #36]	@ 0x24
 8004cac:	3301      	adds	r3, #1
 8004cae:	627b      	str	r3, [r7, #36]	@ 0x24
        ep_intr >>= 1U;
 8004cb0:	6abb      	ldr	r3, [r7, #40]	@ 0x28
 8004cb2:	085b      	lsrs	r3, r3, #1
 8004cb4:	62bb      	str	r3, [r7, #40]	@ 0x28
      while (ep_intr != 0U)
 8004cb6:	6abb      	ldr	r3, [r7, #40]	@ 0x28
 8004cb8:	2b00      	cmp	r3, #0
 8004cba:	f47f af62 	bne.w	8004b82 <HAL_PCD_IRQHandler+0x170>
      }
    }

    if (__HAL_PCD_GET_FLAG(hpcd, USB_OTG_GINTSTS_IEPINT))
 8004cbe:	687b      	ldr	r3, [r7, #4]
 8004cc0:	681b      	ldr	r3, [r3, #0]
 8004cc2:	4618      	mov	r0, r3
 8004cc4:	f003 f88a 	bl	8007ddc <USB_ReadInterrupts>
 8004cc8:	4603      	mov	r3, r0
 8004cca:	f403 2380 	and.w	r3, r3, #262144	@ 0x40000
 8004cce:	f5b3 2f80 	cmp.w	r3, #262144	@ 0x40000
 8004cd2:	f040 80db 	bne.w	8004e8c <HAL_PCD_IRQHandler+0x47a>
    {
      /* Read in the device interrupt bits */
      ep_intr = USB_ReadDevAllInEpInterrupt(hpcd->Instance);
 8004cd6:	687b      	ldr	r3, [r7, #4]
 8004cd8:	681b      	ldr	r3, [r3, #0]
 8004cda:	4618      	mov	r0, r3
 8004cdc:	f003 f8ab 	bl	8007e36 <USB_ReadDevAllInEpInterrupt>
 8004ce0:	62b8      	str	r0, [r7, #40]	@ 0x28

      epnum = 0U;
 8004ce2:	2300      	movs	r3, #0
 8004ce4:	627b      	str	r3, [r7, #36]	@ 0x24

      while (ep_intr != 0U)
 8004ce6:	e0cd      	b.n	8004e84 <HAL_PCD_IRQHandler+0x472>
      {
        if ((ep_intr & 0x1U) != 0U) /* In ITR */
 8004ce8:	6abb      	ldr	r3, [r7, #40]	@ 0x28
 8004cea:	f003 0301 	and.w	r3, r3, #1
 8004cee:	2b00      	cmp	r3, #0
 8004cf0:	f000 80c2 	beq.w	8004e78 <HAL_PCD_IRQHandler+0x466>
        {
          epint = USB_ReadDevInEPInterrupt(hpcd->Instance, (uint8_t)epnum);
 8004cf4:	687b      	ldr	r3, [r7, #4]
 8004cf6:	681b      	ldr	r3, [r3, #0]
 8004cf8:	6a7a      	ldr	r2, [r7, #36]	@ 0x24
 8004cfa:	b2d2      	uxtb	r2, r2
 8004cfc:	4611      	mov	r1, r2
 8004cfe:	4618      	mov	r0, r3
 8004d00:	f003 f8d1 	bl	8007ea6 <USB_ReadDevInEPInterrupt>
 8004d04:	6138      	str	r0, [r7, #16]

          if ((epint & USB_OTG_DIEPINT_XFRC) == USB_OTG_DIEPINT_XFRC)
 8004d06:	693b      	ldr	r3, [r7, #16]
 8004d08:	f003 0301 	and.w	r3, r3, #1
 8004d0c:	2b00      	cmp	r3, #0
 8004d0e:	d057      	beq.n	8004dc0 <HAL_PCD_IRQHandler+0x3ae>
          {
            fifoemptymsk = (uint32_t)(0x1UL << (epnum & EP_ADDR_MSK));
 8004d10:	6a7b      	ldr	r3, [r7, #36]	@ 0x24
 8004d12:	f003 030f 	and.w	r3, r3, #15
 8004d16:	2201      	movs	r2, #1
 8004d18:	fa02 f303 	lsl.w	r3, r2, r3
 8004d1c:	60fb      	str	r3, [r7, #12]
            USBx_DEVICE->DIEPEMPMSK &= ~fifoemptymsk;
 8004d1e:	69fb      	ldr	r3, [r7, #28]
 8004d20:	f503 6300 	add.w	r3, r3, #2048	@ 0x800
 8004d24:	6b5a      	ldr	r2, [r3, #52]	@ 0x34
 8004d26:	68fb      	ldr	r3, [r7, #12]
 8004d28:	43db      	mvns	r3, r3
 8004d2a:	69f9      	ldr	r1, [r7, #28]
 8004d2c:	f501 6100 	add.w	r1, r1, #2048	@ 0x800
 8004d30:	4013      	ands	r3, r2
 8004d32:	634b      	str	r3, [r1, #52]	@ 0x34

            CLEAR_IN_EP_INTR(epnum, USB_OTG_DIEPINT_XFRC);
 8004d34:	6a7b      	ldr	r3, [r7, #36]	@ 0x24
 8004d36:	015a      	lsls	r2, r3, #5
 8004d38:	69fb      	ldr	r3, [r7, #28]
 8004d3a:	4413      	add	r3, r2
 8004d3c:	f503 6310 	add.w	r3, r3, #2304	@ 0x900
 8004d40:	461a      	mov	r2, r3
 8004d42:	2301      	movs	r3, #1
 8004d44:	6093      	str	r3, [r2, #8]

            if (hpcd->Init.dma_enable == 1U)
 8004d46:	687b      	ldr	r3, [r7, #4]
 8004d48:	799b      	ldrb	r3, [r3, #6]
 8004d4a:	2b01      	cmp	r3, #1
 8004d4c:	d132      	bne.n	8004db4 <HAL_PCD_IRQHandler+0x3a2>
            {
              hpcd->IN_ep[epnum].xfer_buff += hpcd->IN_ep[epnum].maxpacket;
 8004d4e:	6879      	ldr	r1, [r7, #4]
 8004d50:	6a7a      	ldr	r2, [r7, #36]	@ 0x24
 8004d52:	4613      	mov	r3, r2
 8004d54:	00db      	lsls	r3, r3, #3
 8004d56:	4413      	add	r3, r2
 8004d58:	009b      	lsls	r3, r3, #2
 8004d5a:	440b      	add	r3, r1
 8004d5c:	3320      	adds	r3, #32
 8004d5e:	6819      	ldr	r1, [r3, #0]
 8004d60:	6878      	ldr	r0, [r7, #4]
 8004d62:	6a7a      	ldr	r2, [r7, #36]	@ 0x24
 8004d64:	4613      	mov	r3, r2
 8004d66:	00db      	lsls	r3, r3, #3
 8004d68:	4413      	add	r3, r2
 8004d6a:	009b      	lsls	r3, r3, #2
 8004d6c:	4403      	add	r3, r0
 8004d6e:	331c      	adds	r3, #28
 8004d70:	681b      	ldr	r3, [r3, #0]
 8004d72:	4419      	add	r1, r3
 8004d74:	6878      	ldr	r0, [r7, #4]
 8004d76:	6a7a      	ldr	r2, [r7, #36]	@ 0x24
 8004d78:	4613      	mov	r3, r2
 8004d7a:	00db      	lsls	r3, r3, #3
 8004d7c:	4413      	add	r3, r2
 8004d7e:	009b      	lsls	r3, r3, #2
 8004d80:	4403      	add	r3, r0
 8004d82:	3320      	adds	r3, #32
 8004d84:	6019      	str	r1, [r3, #0]

              /* this is ZLP, so prepare EP0 for next setup */
              if ((epnum == 0U) && (hpcd->IN_ep[epnum].xfer_len == 0U))
 8004d86:	6a7b      	ldr	r3, [r7, #36]	@ 0x24
 8004d88:	2b00      	cmp	r3, #0
 8004d8a:	d113      	bne.n	8004db4 <HAL_PCD_IRQHandler+0x3a2>
 8004d8c:	6879      	ldr	r1, [r7, #4]
 8004d8e:	6a7a      	ldr	r2, [r7, #36]	@ 0x24
 8004d90:	4613      	mov	r3, r2
 8004d92:	00db      	lsls	r3, r3, #3
 8004d94:	4413      	add	r3, r2
 8004d96:	009b      	lsls	r3, r3, #2
 8004d98:	440b      	add	r3, r1
 8004d9a:	3324      	adds	r3, #36	@ 0x24
 8004d9c:	681b      	ldr	r3, [r3, #0]
 8004d9e:	2b00      	cmp	r3, #0
 8004da0:	d108      	bne.n	8004db4 <HAL_PCD_IRQHandler+0x3a2>
              {
                /* prepare to rx more setup packets */
                (void)USB_EP0_OutStart(hpcd->Instance, 1U, (uint8_t *)hpcd->Setup);
 8004da2:	687b      	ldr	r3, [r7, #4]
 8004da4:	6818      	ldr	r0, [r3, #0]
 8004da6:	687b      	ldr	r3, [r7, #4]
 8004da8:	f203 439c 	addw	r3, r3, #1180	@ 0x49c
 8004dac:	461a      	mov	r2, r3
 8004dae:	2101      	movs	r1, #1
 8004db0:	f003 f8d8 	bl	8007f64 <USB_EP0_OutStart>
            }

#if (USE_HAL_PCD_REGISTER_CALLBACKS == 1U)
            hpcd->DataInStageCallback(hpcd, (uint8_t)epnum);
#else
            HAL_PCD_DataInStageCallback(hpcd, (uint8_t)epnum);
 8004db4:	6a7b      	ldr	r3, [r7, #36]	@ 0x24
 8004db6:	b2db      	uxtb	r3, r3
 8004db8:	4619      	mov	r1, r3
 8004dba:	6878      	ldr	r0, [r7, #4]
 8004dbc:	f7fe fe72 	bl	8003aa4 <HAL_PCD_DataInStageCallback>
#endif /* USE_HAL_PCD_REGISTER_CALLBACKS */
          }
          if ((epint & USB_OTG_DIEPINT_TOC) == USB_OTG_DIEPINT_TOC)
 8004dc0:	693b      	ldr	r3, [r7, #16]
 8004dc2:	f003 0308 	and.w	r3, r3, #8
 8004dc6:	2b00      	cmp	r3, #0
 8004dc8:	d008      	beq.n	8004ddc <HAL_PCD_IRQHandler+0x3ca>
          {
            CLEAR_IN_EP_INTR(epnum, USB_OTG_DIEPINT_TOC);
 8004dca:	6a7b      	ldr	r3, [r7, #36]	@ 0x24
 8004dcc:	015a      	lsls	r2, r3, #5
 8004dce:	69fb      	ldr	r3, [r7, #28]
 8004dd0:	4413      	add	r3, r2
 8004dd2:	f503 6310 	add.w	r3, r3, #2304	@ 0x900
 8004dd6:	461a      	mov	r2, r3
 8004dd8:	2308      	movs	r3, #8
 8004dda:	6093      	str	r3, [r2, #8]
          }
          if ((epint & USB_OTG_DIEPINT_ITTXFE) == USB_OTG_DIEPINT_ITTXFE)
 8004ddc:	693b      	ldr	r3, [r7, #16]
 8004dde:	f003 0310 	and.w	r3, r3, #16
 8004de2:	2b00      	cmp	r3, #0
 8004de4:	d008      	beq.n	8004df8 <HAL_PCD_IRQHandler+0x3e6>
          {
            CLEAR_IN_EP_INTR(epnum, USB_OTG_DIEPINT_ITTXFE);
 8004de6:	6a7b      	ldr	r3, [r7, #36]	@ 0x24
 8004de8:	015a      	lsls	r2, r3, #5
 8004dea:	69fb      	ldr	r3, [r7, #28]
 8004dec:	4413      	add	r3, r2
 8004dee:	f503 6310 	add.w	r3, r3, #2304	@ 0x900
 8004df2:	461a      	mov	r2, r3
 8004df4:	2310      	movs	r3, #16
 8004df6:	6093      	str	r3, [r2, #8]
          }
          if ((epint & USB_OTG_DIEPINT_INEPNE) == USB_OTG_DIEPINT_INEPNE)
 8004df8:	693b      	ldr	r3, [r7, #16]
 8004dfa:	f003 0340 	and.w	r3, r3, #64	@ 0x40
 8004dfe:	2b00      	cmp	r3, #0
 8004e00:	d008      	beq.n	8004e14 <HAL_PCD_IRQHandler+0x402>
          {
            CLEAR_IN_EP_INTR(epnum, USB_OTG_DIEPINT_INEPNE);
 8004e02:	6a7b      	ldr	r3, [r7, #36]	@ 0x24
 8004e04:	015a      	lsls	r2, r3, #5
 8004e06:	69fb      	ldr	r3, [r7, #28]
 8004e08:	4413      	add	r3, r2
 8004e0a:	f503 6310 	add.w	r3, r3, #2304	@ 0x900
 8004e0e:	461a      	mov	r2, r3
 8004e10:	2340      	movs	r3, #64	@ 0x40
 8004e12:	6093      	str	r3, [r2, #8]
          }
          if ((epint & USB_OTG_DIEPINT_EPDISD) == USB_OTG_DIEPINT_EPDISD)
 8004e14:	693b      	ldr	r3, [r7, #16]
 8004e16:	f003 0302 	and.w	r3, r3, #2
 8004e1a:	2b00      	cmp	r3, #0
 8004e1c:	d023      	beq.n	8004e66 <HAL_PCD_IRQHandler+0x454>
          {
            (void)USB_FlushTxFifo(USBx, epnum);
 8004e1e:	6a79      	ldr	r1, [r7, #36]	@ 0x24
 8004e20:	6a38      	ldr	r0, [r7, #32]
 8004e22:	f002 f925 	bl	8007070 <USB_FlushTxFifo>

            ep = &hpcd->IN_ep[epnum];
 8004e26:	6a7a      	ldr	r2, [r7, #36]	@ 0x24
 8004e28:	4613      	mov	r3, r2
 8004e2a:	00db      	lsls	r3, r3, #3
 8004e2c:	4413      	add	r3, r2
 8004e2e:	009b      	lsls	r3, r3, #2
 8004e30:	3310      	adds	r3, #16
 8004e32:	687a      	ldr	r2, [r7, #4]
 8004e34:	4413      	add	r3, r2
 8004e36:	3304      	adds	r3, #4
 8004e38:	617b      	str	r3, [r7, #20]

            if (ep->is_iso_incomplete == 1U)
 8004e3a:	697b      	ldr	r3, [r7, #20]
 8004e3c:	78db      	ldrb	r3, [r3, #3]
 8004e3e:	2b01      	cmp	r3, #1
 8004e40:	d108      	bne.n	8004e54 <HAL_PCD_IRQHandler+0x442>
            {
              ep->is_iso_incomplete = 0U;
 8004e42:	697b      	ldr	r3, [r7, #20]
 8004e44:	2200      	movs	r2, #0
 8004e46:	70da      	strb	r2, [r3, #3]

#if (USE_HAL_PCD_REGISTER_CALLBACKS == 1U)
              hpcd->ISOINIncompleteCallback(hpcd, (uint8_t)epnum);
#else
              HAL_PCD_ISOINIncompleteCallback(hpcd, (uint8_t)epnum);
 8004e48:	6a7b      	ldr	r3, [r7, #36]	@ 0x24
 8004e4a:	b2db      	uxtb	r3, r3
 8004e4c:	4619      	mov	r1, r3
 8004e4e:	6878      	ldr	r0, [r7, #4]
 8004e50:	f000 fa96 	bl	8005380 <HAL_PCD_ISOINIncompleteCallback>
#endif /* USE_HAL_PCD_REGISTER_CALLBACKS */
            }

            CLEAR_IN_EP_INTR(epnum, USB_OTG_DIEPINT_EPDISD);
 8004e54:	6a7b      	ldr	r3, [r7, #36]	@ 0x24
 8004e56:	015a      	lsls	r2, r3, #5
 8004e58:	69fb      	ldr	r3, [r7, #28]
 8004e5a:	4413      	add	r3, r2
 8004e5c:	f503 6310 	add.w	r3, r3, #2304	@ 0x900
 8004e60:	461a      	mov	r2, r3
 8004e62:	2302      	movs	r3, #2
 8004e64:	6093      	str	r3, [r2, #8]
          }
          if ((epint & USB_OTG_DIEPINT_TXFE) == USB_OTG_DIEPINT_TXFE)
 8004e66:	693b      	ldr	r3, [r7, #16]
 8004e68:	f003 0380 	and.w	r3, r3, #128	@ 0x80
 8004e6c:	2b00      	cmp	r3, #0
 8004e6e:	d003      	beq.n	8004e78 <HAL_PCD_IRQHandler+0x466>
          {
            (void)PCD_WriteEmptyTxFifo(hpcd, epnum);
 8004e70:	6a79      	ldr	r1, [r7, #36]	@ 0x24
 8004e72:	6878      	ldr	r0, [r7, #4]
 8004e74:	f000 fcb9 	bl	80057ea <PCD_WriteEmptyTxFifo>
          }
        }
        epnum++;
 8004e78:	6a7b      	ldr	r3, [r7, #36]	@ 0x24
 8004e7a:	3301      	adds	r3, #1
 8004e7c:	627b      	str	r3, [r7, #36]	@ 0x24
        ep_intr >>= 1U;
 8004e7e:	6abb      	ldr	r3, [r7, #40]	@ 0x28
 8004e80:	085b      	lsrs	r3, r3, #1
 8004e82:	62bb      	str	r3, [r7, #40]	@ 0x28
      while (ep_intr != 0U)
 8004e84:	6abb      	ldr	r3, [r7, #40]	@ 0x28
 8004e86:	2b00      	cmp	r3, #0
 8004e88:	f47f af2e 	bne.w	8004ce8 <HAL_PCD_IRQHandler+0x2d6>
      }
    }

    /* Handle Resume Interrupt */
    if (__HAL_PCD_GET_FLAG(hpcd, USB_OTG_GINTSTS_WKUINT))
 8004e8c:	687b      	ldr	r3, [r7, #4]
 8004e8e:	681b      	ldr	r3, [r3, #0]
 8004e90:	4618      	mov	r0, r3
 8004e92:	f002 ffa3 	bl	8007ddc <USB_ReadInterrupts>
 8004e96:	4603      	mov	r3, r0
 8004e98:	f003 4300 	and.w	r3, r3, #2147483648	@ 0x80000000
 8004e9c:	f1b3 4f00 	cmp.w	r3, #2147483648	@ 0x80000000
 8004ea0:	d122      	bne.n	8004ee8 <HAL_PCD_IRQHandler+0x4d6>
    {
      /* Clear the Remote Wake-up Signaling */
      USBx_DEVICE->DCTL &= ~USB_OTG_DCTL_RWUSIG;
 8004ea2:	69fb      	ldr	r3, [r7, #28]
 8004ea4:	f503 6300 	add.w	r3, r3, #2048	@ 0x800
 8004ea8:	685b      	ldr	r3, [r3, #4]
 8004eaa:	69fa      	ldr	r2, [r7, #28]
 8004eac:	f502 6200 	add.w	r2, r2, #2048	@ 0x800
 8004eb0:	f023 0301 	bic.w	r3, r3, #1
 8004eb4:	6053      	str	r3, [r2, #4]

      if (hpcd->LPM_State == LPM_L1)
 8004eb6:	687b      	ldr	r3, [r7, #4]
 8004eb8:	f893 34cc 	ldrb.w	r3, [r3, #1228]	@ 0x4cc
 8004ebc:	2b01      	cmp	r3, #1
 8004ebe:	d108      	bne.n	8004ed2 <HAL_PCD_IRQHandler+0x4c0>
      {
        hpcd->LPM_State = LPM_L0;
 8004ec0:	687b      	ldr	r3, [r7, #4]
 8004ec2:	2200      	movs	r2, #0
 8004ec4:	f883 24cc 	strb.w	r2, [r3, #1228]	@ 0x4cc

#if (USE_HAL_PCD_REGISTER_CALLBACKS == 1U)
        hpcd->LPMCallback(hpcd, PCD_LPM_L0_ACTIVE);
#else
        HAL_PCDEx_LPM_Callback(hpcd, PCD_LPM_L0_ACTIVE);
 8004ec8:	2100      	movs	r1, #0
 8004eca:	6878      	ldr	r0, [r7, #4]
 8004ecc:	f000 fea0 	bl	8005c10 <HAL_PCDEx_LPM_Callback>
 8004ed0:	e002      	b.n	8004ed8 <HAL_PCD_IRQHandler+0x4c6>
      else
      {
#if (USE_HAL_PCD_REGISTER_CALLBACKS == 1U)
        hpcd->ResumeCallback(hpcd);
#else
        HAL_PCD_ResumeCallback(hpcd);
 8004ed2:	6878      	ldr	r0, [r7, #4]
 8004ed4:	f7fe ff0c 	bl	8003cf0 <HAL_PCD_ResumeCallback>
#endif /* USE_HAL_PCD_REGISTER_CALLBACKS */
      }

      __HAL_PCD_CLEAR_FLAG(hpcd, USB_OTG_GINTSTS_WKUINT);
 8004ed8:	687b      	ldr	r3, [r7, #4]
 8004eda:	681b      	ldr	r3, [r3, #0]
 8004edc:	695a      	ldr	r2, [r3, #20]
 8004ede:	687b      	ldr	r3, [r7, #4]
 8004ee0:	681b      	ldr	r3, [r3, #0]
 8004ee2:	f002 4200 	and.w	r2, r2, #2147483648	@ 0x80000000
 8004ee6:	615a      	str	r2, [r3, #20]
    }

    /* Handle Suspend Interrupt */
    if (__HAL_PCD_GET_FLAG(hpcd, USB_OTG_GINTSTS_USBSUSP))
 8004ee8:	687b      	ldr	r3, [r7, #4]
 8004eea:	681b      	ldr	r3, [r3, #0]
 8004eec:	4618      	mov	r0, r3
 8004eee:	f002 ff75 	bl	8007ddc <USB_ReadInterrupts>
 8004ef2:	4603      	mov	r3, r0
 8004ef4:	f403 6300 	and.w	r3, r3, #2048	@ 0x800
 8004ef8:	f5b3 6f00 	cmp.w	r3, #2048	@ 0x800
 8004efc:	d112      	bne.n	8004f24 <HAL_PCD_IRQHandler+0x512>
    {
      if ((USBx_DEVICE->DSTS & USB_OTG_DSTS_SUSPSTS) == USB_OTG_DSTS_SUSPSTS)
 8004efe:	69fb      	ldr	r3, [r7, #28]
 8004f00:	f503 6300 	add.w	r3, r3, #2048	@ 0x800
 8004f04:	689b      	ldr	r3, [r3, #8]
 8004f06:	f003 0301 	and.w	r3, r3, #1
 8004f0a:	2b01      	cmp	r3, #1
 8004f0c:	d102      	bne.n	8004f14 <HAL_PCD_IRQHandler+0x502>
      {
#if (USE_HAL_PCD_REGISTER_CALLBACKS == 1U)
        hpcd->SuspendCallback(hpcd);
#else
        HAL_PCD_SuspendCallback(hpcd);
 8004f0e:	6878      	ldr	r0, [r7, #4]
 8004f10:	f7fe feda 	bl	8003cc8 <HAL_PCD_SuspendCallback>
#endif /* USE_HAL_PCD_REGISTER_CALLBACKS */
      }
      __HAL_PCD_CLEAR_FLAG(hpcd, USB_OTG_GINTSTS_USBSUSP);
 8004f14:	687b      	ldr	r3, [r7, #4]
 8004f16:	681b      	ldr	r3, [r3, #0]
 8004f18:	695a      	ldr	r2, [r3, #20]
 8004f1a:	687b      	ldr	r3, [r7, #4]
 8004f1c:	681b      	ldr	r3, [r3, #0]
 8004f1e:	f402 6200 	and.w	r2, r2, #2048	@ 0x800
 8004f22:	615a      	str	r2, [r3, #20]
    }
#endif /* defined(STM32F446xx) || defined(STM32F469xx) || defined(STM32F479xx) || defined(STM32F412Zx) ||
          defined(STM32F412Vx) || defined(STM32F412Rx) || defined(STM32F412Cx) || defined(STM32F413xx) ||
          defined(STM32F423xx) */
    /* Handle Reset Interrupt */
    if (__HAL_PCD_GET_FLAG(hpcd, USB_OTG_GINTSTS_USBRST))
 8004f24:	687b      	ldr	r3, [r7, #4]
 8004f26:	681b      	ldr	r3, [r3, #0]
 8004f28:	4618      	mov	r0, r3
 8004f2a:	f002 ff57 	bl	8007ddc <USB_ReadInterrupts>
 8004f2e:	4603      	mov	r3, r0
 8004f30:	f403 5380 	and.w	r3, r3, #4096	@ 0x1000
 8004f34:	f5b3 5f80 	cmp.w	r3, #4096	@ 0x1000
 8004f38:	f040 80b7 	bne.w	80050aa <HAL_PCD_IRQHandler+0x698>
    {
      USBx_DEVICE->DCTL &= ~USB_OTG_DCTL_RWUSIG;
 8004f3c:	69fb      	ldr	r3, [r7, #28]
 8004f3e:	f503 6300 	add.w	r3, r3, #2048	@ 0x800
 8004f42:	685b      	ldr	r3, [r3, #4]
 8004f44:	69fa      	ldr	r2, [r7, #28]
 8004f46:	f502 6200 	add.w	r2, r2, #2048	@ 0x800
 8004f4a:	f023 0301 	bic.w	r3, r3, #1
 8004f4e:	6053      	str	r3, [r2, #4]
      (void)USB_FlushTxFifo(hpcd->Instance, 0x10U);
 8004f50:	687b      	ldr	r3, [r7, #4]
 8004f52:	681b      	ldr	r3, [r3, #0]
 8004f54:	2110      	movs	r1, #16
 8004f56:	4618      	mov	r0, r3
 8004f58:	f002 f88a 	bl	8007070 <USB_FlushTxFifo>

      for (i = 0U; i < hpcd->Init.dev_endpoints; i++)
 8004f5c:	2300      	movs	r3, #0
 8004f5e:	62fb      	str	r3, [r7, #44]	@ 0x2c
 8004f60:	e046      	b.n	8004ff0 <HAL_PCD_IRQHandler+0x5de>
      {
        USBx_INEP(i)->DIEPINT = 0xFB7FU;
 8004f62:	6afb      	ldr	r3, [r7, #44]	@ 0x2c
 8004f64:	015a      	lsls	r2, r3, #5
 8004f66:	69fb      	ldr	r3, [r7, #28]
 8004f68:	4413      	add	r3, r2
 8004f6a:	f503 6310 	add.w	r3, r3, #2304	@ 0x900
 8004f6e:	461a      	mov	r2, r3
 8004f70:	f64f 337f 	movw	r3, #64383	@ 0xfb7f
 8004f74:	6093      	str	r3, [r2, #8]
        USBx_INEP(i)->DIEPCTL &= ~USB_OTG_DIEPCTL_STALL;
 8004f76:	6afb      	ldr	r3, [r7, #44]	@ 0x2c
 8004f78:	015a      	lsls	r2, r3, #5
 8004f7a:	69fb      	ldr	r3, [r7, #28]
 8004f7c:	4413      	add	r3, r2
 8004f7e:	f503 6310 	add.w	r3, r3, #2304	@ 0x900
 8004f82:	681b      	ldr	r3, [r3, #0]
 8004f84:	6afa      	ldr	r2, [r7, #44]	@ 0x2c
 8004f86:	0151      	lsls	r1, r2, #5
 8004f88:	69fa      	ldr	r2, [r7, #28]
 8004f8a:	440a      	add	r2, r1
 8004f8c:	f502 6210 	add.w	r2, r2, #2304	@ 0x900
 8004f90:	f423 1300 	bic.w	r3, r3, #2097152	@ 0x200000
 8004f94:	6013      	str	r3, [r2, #0]
        USBx_OUTEP(i)->DOEPINT = 0xFB7FU;
 8004f96:	6afb      	ldr	r3, [r7, #44]	@ 0x2c
 8004f98:	015a      	lsls	r2, r3, #5
 8004f9a:	69fb      	ldr	r3, [r7, #28]
 8004f9c:	4413      	add	r3, r2
 8004f9e:	f503 6330 	add.w	r3, r3, #2816	@ 0xb00
 8004fa2:	461a      	mov	r2, r3
 8004fa4:	f64f 337f 	movw	r3, #64383	@ 0xfb7f
 8004fa8:	6093      	str	r3, [r2, #8]
        USBx_OUTEP(i)->DOEPCTL &= ~USB_OTG_DOEPCTL_STALL;
 8004faa:	6afb      	ldr	r3, [r7, #44]	@ 0x2c
 8004fac:	015a      	lsls	r2, r3, #5
 8004fae:	69fb      	ldr	r3, [r7, #28]
 8004fb0:	4413      	add	r3, r2
 8004fb2:	f503 6330 	add.w	r3, r3, #2816	@ 0xb00
 8004fb6:	681b      	ldr	r3, [r3, #0]
 8004fb8:	6afa      	ldr	r2, [r7, #44]	@ 0x2c
 8004fba:	0151      	lsls	r1, r2, #5
 8004fbc:	69fa      	ldr	r2, [r7, #28]
 8004fbe:	440a      	add	r2, r1
 8004fc0:	f502 6230 	add.w	r2, r2, #2816	@ 0xb00
 8004fc4:	f423 1300 	bic.w	r3, r3, #2097152	@ 0x200000
 8004fc8:	6013      	str	r3, [r2, #0]
        USBx_OUTEP(i)->DOEPCTL |= USB_OTG_DOEPCTL_SNAK;
 8004fca:	6afb      	ldr	r3, [r7, #44]	@ 0x2c
 8004fcc:	015a      	lsls	r2, r3, #5
 8004fce:	69fb      	ldr	r3, [r7, #28]
 8004fd0:	4413      	add	r3, r2
 8004fd2:	f503 6330 	add.w	r3, r3, #2816	@ 0xb00
 8004fd6:	681b      	ldr	r3, [r3, #0]
 8004fd8:	6afa      	ldr	r2, [r7, #44]	@ 0x2c
 8004fda:	0151      	lsls	r1, r2, #5
 8004fdc:	69fa      	ldr	r2, [r7, #28]
 8004fde:	440a      	add	r2, r1
 8004fe0:	f502 6230 	add.w	r2, r2, #2816	@ 0xb00
 8004fe4:	f043 6300 	orr.w	r3, r3, #134217728	@ 0x8000000
 8004fe8:	6013      	str	r3, [r2, #0]
      for (i = 0U; i < hpcd->Init.dev_endpoints; i++)
 8004fea:	6afb      	ldr	r3, [r7, #44]	@ 0x2c
 8004fec:	3301      	adds	r3, #1
 8004fee:	62fb      	str	r3, [r7, #44]	@ 0x2c
 8004ff0:	687b      	ldr	r3, [r7, #4]
 8004ff2:	791b      	ldrb	r3, [r3, #4]
 8004ff4:	461a      	mov	r2, r3
 8004ff6:	6afb      	ldr	r3, [r7, #44]	@ 0x2c
 8004ff8:	4293      	cmp	r3, r2
 8004ffa:	d3b2      	bcc.n	8004f62 <HAL_PCD_IRQHandler+0x550>
      }
      USBx_DEVICE->DAINTMSK |= 0x10001U;
 8004ffc:	69fb      	ldr	r3, [r7, #28]
 8004ffe:	f503 6300 	add.w	r3, r3, #2048	@ 0x800
 8005002:	69db      	ldr	r3, [r3, #28]
 8005004:	69fa      	ldr	r2, [r7, #28]
 8005006:	f502 6200 	add.w	r2, r2, #2048	@ 0x800
 800500a:	f043 1301 	orr.w	r3, r3, #65537	@ 0x10001
 800500e:	61d3      	str	r3, [r2, #28]

      if (hpcd->Init.use_dedicated_ep1 != 0U)
 8005010:	687b      	ldr	r3, [r7, #4]
 8005012:	7bdb      	ldrb	r3, [r3, #15]
 8005014:	2b00      	cmp	r3, #0
 8005016:	d016      	beq.n	8005046 <HAL_PCD_IRQHandler+0x634>
      {
        USBx_DEVICE->DOUTEP1MSK |= USB_OTG_DOEPMSK_STUPM |
 8005018:	69fb      	ldr	r3, [r7, #28]
 800501a:	f503 6300 	add.w	r3, r3, #2048	@ 0x800
 800501e:	f8d3 3084 	ldr.w	r3, [r3, #132]	@ 0x84
 8005022:	69fa      	ldr	r2, [r7, #28]
 8005024:	f502 6200 	add.w	r2, r2, #2048	@ 0x800
 8005028:	f043 030b 	orr.w	r3, r3, #11
 800502c:	f8c2 3084 	str.w	r3, [r2, #132]	@ 0x84
                                   USB_OTG_DOEPMSK_XFRCM |
                                   USB_OTG_DOEPMSK_EPDM;

        USBx_DEVICE->DINEP1MSK |= USB_OTG_DIEPMSK_TOM |
 8005030:	69fb      	ldr	r3, [r7, #28]
 8005032:	f503 6300 	add.w	r3, r3, #2048	@ 0x800
 8005036:	6c5b      	ldr	r3, [r3, #68]	@ 0x44
 8005038:	69fa      	ldr	r2, [r7, #28]
 800503a:	f502 6200 	add.w	r2, r2, #2048	@ 0x800
 800503e:	f043 030b 	orr.w	r3, r3, #11
 8005042:	6453      	str	r3, [r2, #68]	@ 0x44
 8005044:	e015      	b.n	8005072 <HAL_PCD_IRQHandler+0x660>
                                  USB_OTG_DIEPMSK_XFRCM |
                                  USB_OTG_DIEPMSK_EPDM;
      }
      else
      {
        USBx_DEVICE->DOEPMSK |= USB_OTG_DOEPMSK_STUPM |
 8005046:	69fb      	ldr	r3, [r7, #28]
 8005048:	f503 6300 	add.w	r3, r3, #2048	@ 0x800
 800504c:	695b      	ldr	r3, [r3, #20]
 800504e:	69fa      	ldr	r2, [r7, #28]
 8005050:	f502 6200 	add.w	r2, r2, #2048	@ 0x800
 8005054:	f443 5300 	orr.w	r3, r3, #8192	@ 0x2000
 8005058:	f043 032b 	orr.w	r3, r3, #43	@ 0x2b
 800505c:	6153      	str	r3, [r2, #20]
                                USB_OTG_DOEPMSK_XFRCM |
                                USB_OTG_DOEPMSK_EPDM |
                                USB_OTG_DOEPMSK_OTEPSPRM |
                                USB_OTG_DOEPMSK_NAKM;

        USBx_DEVICE->DIEPMSK |= USB_OTG_DIEPMSK_TOM |
 800505e:	69fb      	ldr	r3, [r7, #28]
 8005060:	f503 6300 	add.w	r3, r3, #2048	@ 0x800
 8005064:	691b      	ldr	r3, [r3, #16]
 8005066:	69fa      	ldr	r2, [r7, #28]
 8005068:	f502 6200 	add.w	r2, r2, #2048	@ 0x800
 800506c:	f043 030b 	orr.w	r3, r3, #11
 8005070:	6113      	str	r3, [r2, #16]
                                USB_OTG_DIEPMSK_XFRCM |
                                USB_OTG_DIEPMSK_EPDM;
      }

      /* Set Default Address to 0 */
      USBx_DEVICE->DCFG &= ~USB_OTG_DCFG_DAD;
 8005072:	69fb      	ldr	r3, [r7, #28]
 8005074:	f503 6300 	add.w	r3, r3, #2048	@ 0x800
 8005078:	681b      	ldr	r3, [r3, #0]
 800507a:	69fa      	ldr	r2, [r7, #28]
 800507c:	f502 6200 	add.w	r2, r2, #2048	@ 0x800
 8005080:	f423 63fe 	bic.w	r3, r3, #2032	@ 0x7f0
 8005084:	6013      	str	r3, [r2, #0]

      /* setup EP0 to receive SETUP packets */
      (void)USB_EP0_OutStart(hpcd->Instance, (uint8_t)hpcd->Init.dma_enable,
 8005086:	687b      	ldr	r3, [r7, #4]
 8005088:	6818      	ldr	r0, [r3, #0]
 800508a:	687b      	ldr	r3, [r7, #4]
 800508c:	7999      	ldrb	r1, [r3, #6]
                             (uint8_t *)hpcd->Setup);
 800508e:	687b      	ldr	r3, [r7, #4]
 8005090:	f203 439c 	addw	r3, r3, #1180	@ 0x49c
      (void)USB_EP0_OutStart(hpcd->Instance, (uint8_t)hpcd->Init.dma_enable,
 8005094:	461a      	mov	r2, r3
 8005096:	f002 ff65 	bl	8007f64 <USB_EP0_OutStart>

      __HAL_PCD_CLEAR_FLAG(hpcd, USB_OTG_GINTSTS_USBRST);
 800509a:	687b      	ldr	r3, [r7, #4]
 800509c:	681b      	ldr	r3, [r3, #0]
 800509e:	695a      	ldr	r2, [r3, #20]
 80050a0:	687b      	ldr	r3, [r7, #4]
 80050a2:	681b      	ldr	r3, [r3, #0]
 80050a4:	f402 5280 	and.w	r2, r2, #4096	@ 0x1000
 80050a8:	615a      	str	r2, [r3, #20]
    }

    /* Handle Enumeration done Interrupt */
    if (__HAL_PCD_GET_FLAG(hpcd, USB_OTG_GINTSTS_ENUMDNE))
 80050aa:	687b      	ldr	r3, [r7, #4]
 80050ac:	681b      	ldr	r3, [r3, #0]
 80050ae:	4618      	mov	r0, r3
 80050b0:	f002 fe94 	bl	8007ddc <USB_ReadInterrupts>
 80050b4:	4603      	mov	r3, r0
 80050b6:	f403 5300 	and.w	r3, r3, #8192	@ 0x2000
 80050ba:	f5b3 5f00 	cmp.w	r3, #8192	@ 0x2000
 80050be:	d123      	bne.n	8005108 <HAL_PCD_IRQHandler+0x6f6>
    {
      (void)USB_ActivateSetup(hpcd->Instance);
 80050c0:	687b      	ldr	r3, [r7, #4]
 80050c2:	681b      	ldr	r3, [r3, #0]
 80050c4:	4618      	mov	r0, r3
 80050c6:	f002 ff2a 	bl	8007f1e <USB_ActivateSetup>
      hpcd->Init.speed = USB_GetDevSpeed(hpcd->Instance);
 80050ca:	687b      	ldr	r3, [r7, #4]
 80050cc:	681b      	ldr	r3, [r3, #0]
 80050ce:	4618      	mov	r0, r3
 80050d0:	f002 f847 	bl	8007162 <USB_GetDevSpeed>
 80050d4:	4603      	mov	r3, r0
 80050d6:	461a      	mov	r2, r3
 80050d8:	687b      	ldr	r3, [r7, #4]
 80050da:	71da      	strb	r2, [r3, #7]

      /* Set USB Turnaround time */
      (void)USB_SetTurnaroundTime(hpcd->Instance,
 80050dc:	687b      	ldr	r3, [r7, #4]
 80050de:	681c      	ldr	r4, [r3, #0]
 80050e0:	f001 fa2e 	bl	8006540 <HAL_RCC_GetHCLKFreq>
 80050e4:	4601      	mov	r1, r0
                                  HAL_RCC_GetHCLKFreq(),
                                  (uint8_t)hpcd->Init.speed);
 80050e6:	687b      	ldr	r3, [r7, #4]
 80050e8:	79db      	ldrb	r3, [r3, #7]
      (void)USB_SetTurnaroundTime(hpcd->Instance,
 80050ea:	461a      	mov	r2, r3
 80050ec:	4620      	mov	r0, r4
 80050ee:	f001 fd4b 	bl	8006b88 <USB_SetTurnaroundTime>

#if (USE_HAL_PCD_REGISTER_CALLBACKS == 1U)
      hpcd->ResetCallback(hpcd);
#else
      HAL_PCD_ResetCallback(hpcd);
 80050f2:	6878      	ldr	r0, [r7, #4]
 80050f4:	f7fe fc78 	bl	80039e8 <HAL_PCD_ResetCallback>
#endif /* USE_HAL_PCD_REGISTER_CALLBACKS */

      __HAL_PCD_CLEAR_FLAG(hpcd, USB_OTG_GINTSTS_ENUMDNE);
 80050f8:	687b      	ldr	r3, [r7, #4]
 80050fa:	681b      	ldr	r3, [r3, #0]
 80050fc:	695a      	ldr	r2, [r3, #20]
 80050fe:	687b      	ldr	r3, [r7, #4]
 8005100:	681b      	ldr	r3, [r3, #0]
 8005102:	f402 5200 	and.w	r2, r2, #8192	@ 0x2000
 8005106:	615a      	str	r2, [r3, #20]
    }

    /* Handle SOF Interrupt */
    if (__HAL_PCD_GET_FLAG(hpcd, USB_OTG_GINTSTS_SOF))
 8005108:	687b      	ldr	r3, [r7, #4]
 800510a:	681b      	ldr	r3, [r3, #0]
 800510c:	4618      	mov	r0, r3
 800510e:	f002 fe65 	bl	8007ddc <USB_ReadInterrupts>
 8005112:	4603      	mov	r3, r0
 8005114:	f003 0308 	and.w	r3, r3, #8
 8005118:	2b08      	cmp	r3, #8
 800511a:	d10a      	bne.n	8005132 <HAL_PCD_IRQHandler+0x720>
    {
#if (USE_HAL_PCD_REGISTER_CALLBACKS == 1U)
      hpcd->SOFCallback(hpcd);
#else
      HAL_PCD_SOFCallback(hpcd);
 800511c:	6878      	ldr	r0, [r7, #4]
 800511e:	f000 f919 	bl	8005354 <HAL_PCD_SOFCallback>
#endif /* USE_HAL_PCD_REGISTER_CALLBACKS */

      __HAL_PCD_CLEAR_FLAG(hpcd, USB_OTG_GINTSTS_SOF);
 8005122:	687b      	ldr	r3, [r7, #4]
 8005124:	681b      	ldr	r3, [r3, #0]
 8005126:	695a      	ldr	r2, [r3, #20]
 8005128:	687b      	ldr	r3, [r7, #4]
 800512a:	681b      	ldr	r3, [r3, #0]
 800512c:	f002 0208 	and.w	r2, r2, #8
 8005130:	615a      	str	r2, [r3, #20]
    }

    /* Handle Global OUT NAK effective Interrupt */
    if (__HAL_PCD_GET_FLAG(hpcd, USB_OTG_GINTSTS_BOUTNAKEFF))
 8005132:	687b      	ldr	r3, [r7, #4]
 8005134:	681b      	ldr	r3, [r3, #0]
 8005136:	4618      	mov	r0, r3
 8005138:	f002 fe50 	bl	8007ddc <USB_ReadInterrupts>
 800513c:	4603      	mov	r3, r0
 800513e:	f003 0380 	and.w	r3, r3, #128	@ 0x80
 8005142:	2b80      	cmp	r3, #128	@ 0x80
 8005144:	d123      	bne.n	800518e <HAL_PCD_IRQHandler+0x77c>
    {
      USBx->GINTMSK &= ~USB_OTG_GINTMSK_GONAKEFFM;
 8005146:	6a3b      	ldr	r3, [r7, #32]
 8005148:	699b      	ldr	r3, [r3, #24]
 800514a:	f023 0280 	bic.w	r2, r3, #128	@ 0x80
 800514e:	6a3b      	ldr	r3, [r7, #32]
 8005150:	619a      	str	r2, [r3, #24]

      for (epnum = 1U; epnum < hpcd->Init.dev_endpoints; epnum++)
 8005152:	2301      	movs	r3, #1
 8005154:	627b      	str	r3, [r7, #36]	@ 0x24
 8005156:	e014      	b.n	8005182 <HAL_PCD_IRQHandler+0x770>
      {
        if (hpcd->OUT_ep[epnum].is_iso_incomplete == 1U)
 8005158:	6879      	ldr	r1, [r7, #4]
 800515a:	6a7a      	ldr	r2, [r7, #36]	@ 0x24
 800515c:	4613      	mov	r3, r2
 800515e:	00db      	lsls	r3, r3, #3
 8005160:	4413      	add	r3, r2
 8005162:	009b      	lsls	r3, r3, #2
 8005164:	440b      	add	r3, r1
 8005166:	f203 2357 	addw	r3, r3, #599	@ 0x257
 800516a:	781b      	ldrb	r3, [r3, #0]
 800516c:	2b01      	cmp	r3, #1
 800516e:	d105      	bne.n	800517c <HAL_PCD_IRQHandler+0x76a>
        {
          /* Abort current transaction and disable the EP */
          (void)HAL_PCD_EP_Abort(hpcd, (uint8_t)epnum);
 8005170:	6a7b      	ldr	r3, [r7, #36]	@ 0x24
 8005172:	b2db      	uxtb	r3, r3
 8005174:	4619      	mov	r1, r3
 8005176:	6878      	ldr	r0, [r7, #4]
 8005178:	f000 fb06 	bl	8005788 <HAL_PCD_EP_Abort>
      for (epnum = 1U; epnum < hpcd->Init.dev_endpoints; epnum++)
 800517c:	6a7b      	ldr	r3, [r7, #36]	@ 0x24
 800517e:	3301      	adds	r3, #1
 8005180:	627b      	str	r3, [r7, #36]	@ 0x24
 8005182:	687b      	ldr	r3, [r7, #4]
 8005184:	791b      	ldrb	r3, [r3, #4]
 8005186:	461a      	mov	r2, r3
 8005188:	6a7b      	ldr	r3, [r7, #36]	@ 0x24
 800518a:	4293      	cmp	r3, r2
 800518c:	d3e4      	bcc.n	8005158 <HAL_PCD_IRQHandler+0x746>
        }
      }
    }

    /* Handle Incomplete ISO IN Interrupt */
    if (__HAL_PCD_GET_FLAG(hpcd, USB_OTG_GINTSTS_IISOIXFR))
 800518e:	687b      	ldr	r3, [r7, #4]
 8005190:	681b      	ldr	r3, [r3, #0]
 8005192:	4618      	mov	r0, r3
 8005194:	f002 fe22 	bl	8007ddc <USB_ReadInterrupts>
 8005198:	4603      	mov	r3, r0
 800519a:	f403 1380 	and.w	r3, r3, #1048576	@ 0x100000
 800519e:	f5b3 1f80 	cmp.w	r3, #1048576	@ 0x100000
 80051a2:	d13c      	bne.n	800521e <HAL_PCD_IRQHandler+0x80c>
    {
      for (epnum = 1U; epnum < hpcd->Init.dev_endpoints; epnum++)
 80051a4:	2301      	movs	r3, #1
 80051a6:	627b      	str	r3, [r7, #36]	@ 0x24
 80051a8:	e02b      	b.n	8005202 <HAL_PCD_IRQHandler+0x7f0>
      {
        RegVal = USBx_INEP(epnum)->DIEPCTL;
 80051aa:	6a7b      	ldr	r3, [r7, #36]	@ 0x24
 80051ac:	015a      	lsls	r2, r3, #5
 80051ae:	69fb      	ldr	r3, [r7, #28]
 80051b0:	4413      	add	r3, r2
 80051b2:	f503 6310 	add.w	r3, r3, #2304	@ 0x900
 80051b6:	681b      	ldr	r3, [r3, #0]
 80051b8:	61bb      	str	r3, [r7, #24]

        if ((hpcd->IN_ep[epnum].type == EP_TYPE_ISOC) &&
 80051ba:	6879      	ldr	r1, [r7, #4]
 80051bc:	6a7a      	ldr	r2, [r7, #36]	@ 0x24
 80051be:	4613      	mov	r3, r2
 80051c0:	00db      	lsls	r3, r3, #3
 80051c2:	4413      	add	r3, r2
 80051c4:	009b      	lsls	r3, r3, #2
 80051c6:	440b      	add	r3, r1
 80051c8:	3318      	adds	r3, #24
 80051ca:	781b      	ldrb	r3, [r3, #0]
 80051cc:	2b01      	cmp	r3, #1
 80051ce:	d115      	bne.n	80051fc <HAL_PCD_IRQHandler+0x7ea>
            ((RegVal & USB_OTG_DIEPCTL_EPENA) == USB_OTG_DIEPCTL_EPENA))
 80051d0:	69bb      	ldr	r3, [r7, #24]
        if ((hpcd->IN_ep[epnum].type == EP_TYPE_ISOC) &&
 80051d2:	2b00      	cmp	r3, #0
 80051d4:	da12      	bge.n	80051fc <HAL_PCD_IRQHandler+0x7ea>
        {
          hpcd->IN_ep[epnum].is_iso_incomplete = 1U;
 80051d6:	6879      	ldr	r1, [r7, #4]
 80051d8:	6a7a      	ldr	r2, [r7, #36]	@ 0x24
 80051da:	4613      	mov	r3, r2
 80051dc:	00db      	lsls	r3, r3, #3
 80051de:	4413      	add	r3, r2
 80051e0:	009b      	lsls	r3, r3, #2
 80051e2:	440b      	add	r3, r1
 80051e4:	3317      	adds	r3, #23
 80051e6:	2201      	movs	r2, #1
 80051e8:	701a      	strb	r2, [r3, #0]

          /* Abort current transaction and disable the EP */
          (void)HAL_PCD_EP_Abort(hpcd, (uint8_t)(epnum | 0x80U));
 80051ea:	6a7b      	ldr	r3, [r7, #36]	@ 0x24
 80051ec:	b2db      	uxtb	r3, r3
 80051ee:	f063 037f 	orn	r3, r3, #127	@ 0x7f
 80051f2:	b2db      	uxtb	r3, r3
 80051f4:	4619      	mov	r1, r3
 80051f6:	6878      	ldr	r0, [r7, #4]
 80051f8:	f000 fac6 	bl	8005788 <HAL_PCD_EP_Abort>
      for (epnum = 1U; epnum < hpcd->Init.dev_endpoints; epnum++)
 80051fc:	6a7b      	ldr	r3, [r7, #36]	@ 0x24
 80051fe:	3301      	adds	r3, #1
 8005200:	627b      	str	r3, [r7, #36]	@ 0x24
 8005202:	687b      	ldr	r3, [r7, #4]
 8005204:	791b      	ldrb	r3, [r3, #4]
 8005206:	461a      	mov	r2, r3
 8005208:	6a7b      	ldr	r3, [r7, #36]	@ 0x24
 800520a:	4293      	cmp	r3, r2
 800520c:	d3cd      	bcc.n	80051aa <HAL_PCD_IRQHandler+0x798>
        }
      }

      __HAL_PCD_CLEAR_FLAG(hpcd, USB_OTG_GINTSTS_IISOIXFR);
 800520e:	687b      	ldr	r3, [r7, #4]
 8005210:	681b      	ldr	r3, [r3, #0]
 8005212:	695a      	ldr	r2, [r3, #20]
 8005214:	687b      	ldr	r3, [r7, #4]
 8005216:	681b      	ldr	r3, [r3, #0]
 8005218:	f402 1280 	and.w	r2, r2, #1048576	@ 0x100000
 800521c:	615a      	str	r2, [r3, #20]
    }

    /* Handle Incomplete ISO OUT Interrupt */
    if (__HAL_PCD_GET_FLAG(hpcd, USB_OTG_GINTSTS_PXFR_INCOMPISOOUT))
 800521e:	687b      	ldr	r3, [r7, #4]
 8005220:	681b      	ldr	r3, [r3, #0]
 8005222:	4618      	mov	r0, r3
 8005224:	f002 fdda 	bl	8007ddc <USB_ReadInterrupts>
 8005228:	4603      	mov	r3, r0
 800522a:	f403 1300 	and.w	r3, r3, #2097152	@ 0x200000
 800522e:	f5b3 1f00 	cmp.w	r3, #2097152	@ 0x200000
 8005232:	d156      	bne.n	80052e2 <HAL_PCD_IRQHandler+0x8d0>
    {
      for (epnum = 1U; epnum < hpcd->Init.dev_endpoints; epnum++)
 8005234:	2301      	movs	r3, #1
 8005236:	627b      	str	r3, [r7, #36]	@ 0x24
 8005238:	e045      	b.n	80052c6 <HAL_PCD_IRQHandler+0x8b4>
      {
        RegVal = USBx_OUTEP(epnum)->DOEPCTL;
 800523a:	6a7b      	ldr	r3, [r7, #36]	@ 0x24
 800523c:	015a      	lsls	r2, r3, #5
 800523e:	69fb      	ldr	r3, [r7, #28]
 8005240:	4413      	add	r3, r2
 8005242:	f503 6330 	add.w	r3, r3, #2816	@ 0xb00
 8005246:	681b      	ldr	r3, [r3, #0]
 8005248:	61bb      	str	r3, [r7, #24]

        if ((hpcd->OUT_ep[epnum].type == EP_TYPE_ISOC) &&
 800524a:	6879      	ldr	r1, [r7, #4]
 800524c:	6a7a      	ldr	r2, [r7, #36]	@ 0x24
 800524e:	4613      	mov	r3, r2
 8005250:	00db      	lsls	r3, r3, #3
 8005252:	4413      	add	r3, r2
 8005254:	009b      	lsls	r3, r3, #2
 8005256:	440b      	add	r3, r1
 8005258:	f503 7316 	add.w	r3, r3, #600	@ 0x258
 800525c:	781b      	ldrb	r3, [r3, #0]
 800525e:	2b01      	cmp	r3, #1
 8005260:	d12e      	bne.n	80052c0 <HAL_PCD_IRQHandler+0x8ae>
            ((RegVal & USB_OTG_DOEPCTL_EPENA) == USB_OTG_DOEPCTL_EPENA) &&
 8005262:	69bb      	ldr	r3, [r7, #24]
        if ((hpcd->OUT_ep[epnum].type == EP_TYPE_ISOC) &&
 8005264:	2b00      	cmp	r3, #0
 8005266:	da2b      	bge.n	80052c0 <HAL_PCD_IRQHandler+0x8ae>
            (((RegVal & (0x1U << 16)) >> 16U) == (hpcd->FrameNumber & 0x1U)))
 8005268:	69bb      	ldr	r3, [r7, #24]
 800526a:	0c1a      	lsrs	r2, r3, #16
 800526c:	687b      	ldr	r3, [r7, #4]
 800526e:	f8d3 34d4 	ldr.w	r3, [r3, #1236]	@ 0x4d4
 8005272:	4053      	eors	r3, r2
 8005274:	f003 0301 	and.w	r3, r3, #1
            ((RegVal & USB_OTG_DOEPCTL_EPENA) == USB_OTG_DOEPCTL_EPENA) &&
 8005278:	2b00      	cmp	r3, #0
 800527a:	d121      	bne.n	80052c0 <HAL_PCD_IRQHandler+0x8ae>
        {
          hpcd->OUT_ep[epnum].is_iso_incomplete = 1U;
 800527c:	6879      	ldr	r1, [r7, #4]
 800527e:	6a7a      	ldr	r2, [r7, #36]	@ 0x24
 8005280:	4613      	mov	r3, r2
 8005282:	00db      	lsls	r3, r3, #3
 8005284:	4413      	add	r3, r2
 8005286:	009b      	lsls	r3, r3, #2
 8005288:	440b      	add	r3, r1
 800528a:	f203 2357 	addw	r3, r3, #599	@ 0x257
 800528e:	2201      	movs	r2, #1
 8005290:	701a      	strb	r2, [r3, #0]

          USBx->GINTMSK |= USB_OTG_GINTMSK_GONAKEFFM;
 8005292:	6a3b      	ldr	r3, [r7, #32]
 8005294:	699b      	ldr	r3, [r3, #24]
 8005296:	f043 0280 	orr.w	r2, r3, #128	@ 0x80
 800529a:	6a3b      	ldr	r3, [r7, #32]
 800529c:	619a      	str	r2, [r3, #24]

          if ((USBx->GINTSTS & USB_OTG_GINTSTS_BOUTNAKEFF) == 0U)
 800529e:	6a3b      	ldr	r3, [r7, #32]
 80052a0:	695b      	ldr	r3, [r3, #20]
 80052a2:	f003 0380 	and.w	r3, r3, #128	@ 0x80
 80052a6:	2b00      	cmp	r3, #0
 80052a8:	d10a      	bne.n	80052c0 <HAL_PCD_IRQHandler+0x8ae>
          {
            USBx_DEVICE->DCTL |= USB_OTG_DCTL_SGONAK;
 80052aa:	69fb      	ldr	r3, [r7, #28]
 80052ac:	f503 6300 	add.w	r3, r3, #2048	@ 0x800
 80052b0:	685b      	ldr	r3, [r3, #4]
 80052b2:	69fa      	ldr	r2, [r7, #28]
 80052b4:	f502 6200 	add.w	r2, r2, #2048	@ 0x800
 80052b8:	f443 7300 	orr.w	r3, r3, #512	@ 0x200
 80052bc:	6053      	str	r3, [r2, #4]
            break;
 80052be:	e008      	b.n	80052d2 <HAL_PCD_IRQHandler+0x8c0>
      for (epnum = 1U; epnum < hpcd->Init.dev_endpoints; epnum++)
 80052c0:	6a7b      	ldr	r3, [r7, #36]	@ 0x24
 80052c2:	3301      	adds	r3, #1
 80052c4:	627b      	str	r3, [r7, #36]	@ 0x24
 80052c6:	687b      	ldr	r3, [r7, #4]
 80052c8:	791b      	ldrb	r3, [r3, #4]
 80052ca:	461a      	mov	r2, r3
 80052cc:	6a7b      	ldr	r3, [r7, #36]	@ 0x24
 80052ce:	4293      	cmp	r3, r2
 80052d0:	d3b3      	bcc.n	800523a <HAL_PCD_IRQHandler+0x828>
          }
        }
      }

      __HAL_PCD_CLEAR_FLAG(hpcd, USB_OTG_GINTSTS_PXFR_INCOMPISOOUT);
 80052d2:	687b      	ldr	r3, [r7, #4]
 80052d4:	681b      	ldr	r3, [r3, #0]
 80052d6:	695a      	ldr	r2, [r3, #20]
 80052d8:	687b      	ldr	r3, [r7, #4]
 80052da:	681b      	ldr	r3, [r3, #0]
 80052dc:	f402 1200 	and.w	r2, r2, #2097152	@ 0x200000
 80052e0:	615a      	str	r2, [r3, #20]
    }

    /* Handle Connection event Interrupt */
    if (__HAL_PCD_GET_FLAG(hpcd, USB_OTG_GINTSTS_SRQINT))
 80052e2:	687b      	ldr	r3, [r7, #4]
 80052e4:	681b      	ldr	r3, [r3, #0]
 80052e6:	4618      	mov	r0, r3
 80052e8:	f002 fd78 	bl	8007ddc <USB_ReadInterrupts>
 80052ec:	4603      	mov	r3, r0
 80052ee:	f003 4380 	and.w	r3, r3, #1073741824	@ 0x40000000
 80052f2:	f1b3 4f80 	cmp.w	r3, #1073741824	@ 0x40000000
 80052f6:	d10a      	bne.n	800530e <HAL_PCD_IRQHandler+0x8fc>
    {
#if (USE_HAL_PCD_REGISTER_CALLBACKS == 1U)
      hpcd->ConnectCallback(hpcd);
#else
      HAL_PCD_ConnectCallback(hpcd);
 80052f8:	6878      	ldr	r0, [r7, #4]
 80052fa:	f7fe fc99 	bl	8003c30 <HAL_PCD_ConnectCallback>
#endif /* USE_HAL_PCD_REGISTER_CALLBACKS */

      __HAL_PCD_CLEAR_FLAG(hpcd, USB_OTG_GINTSTS_SRQINT);
 80052fe:	687b      	ldr	r3, [r7, #4]
 8005300:	681b      	ldr	r3, [r3, #0]
 8005302:	695a      	ldr	r2, [r3, #20]
 8005304:	687b      	ldr	r3, [r7, #4]
 8005306:	681b      	ldr	r3, [r3, #0]
 8005308:	f002 4280 	and.w	r2, r2, #1073741824	@ 0x40000000
 800530c:	615a      	str	r2, [r3, #20]
    }

    /* Handle Disconnection event Interrupt */
    if (__HAL_PCD_GET_FLAG(hpcd, USB_OTG_GINTSTS_OTGINT))
 800530e:	687b      	ldr	r3, [r7, #4]
 8005310:	681b      	ldr	r3, [r3, #0]
 8005312:	4618      	mov	r0, r3
 8005314:	f002 fd62 	bl	8007ddc <USB_ReadInterrupts>
 8005318:	4603      	mov	r3, r0
 800531a:	f003 0304 	and.w	r3, r3, #4
 800531e:	2b04      	cmp	r3, #4
 8005320:	d115      	bne.n	800534e <HAL_PCD_IRQHandler+0x93c>
    {
      RegVal = hpcd->Instance->GOTGINT;
 8005322:	687b      	ldr	r3, [r7, #4]
 8005324:	681b      	ldr	r3, [r3, #0]
 8005326:	685b      	ldr	r3, [r3, #4]
 8005328:	61bb      	str	r3, [r7, #24]

      if ((RegVal & USB_OTG_GOTGINT_SEDET) == USB_OTG_GOTGINT_SEDET)
 800532a:	69bb      	ldr	r3, [r7, #24]
 800532c:	f003 0304 	and.w	r3, r3, #4
 8005330:	2b00      	cmp	r3, #0
 8005332:	d002      	beq.n	800533a <HAL_PCD_IRQHandler+0x928>
      {
#if (USE_HAL_PCD_REGISTER_CALLBACKS == 1U)
        hpcd->DisconnectCallback(hpcd);
#else
        HAL_PCD_DisconnectCallback(hpcd);
 8005334:	6878      	ldr	r0, [r7, #4]
 8005336:	f7fe fc8f 	bl	8003c58 <HAL_PCD_DisconnectCallback>
#endif /* USE_HAL_PCD_REGISTER_CALLBACKS */
      }
      hpcd->Instance->GOTGINT |= RegVal;
 800533a:	687b      	ldr	r3, [r7, #4]
 800533c:	681b      	ldr	r3, [r3, #0]
 800533e:	6859      	ldr	r1, [r3, #4]
 8005340:	687b      	ldr	r3, [r7, #4]
 8005342:	681b      	ldr	r3, [r3, #0]
 8005344:	69ba      	ldr	r2, [r7, #24]
 8005346:	430a      	orrs	r2, r1
 8005348:	605a      	str	r2, [r3, #4]
 800534a:	e000      	b.n	800534e <HAL_PCD_IRQHandler+0x93c>
      return;
 800534c:	bf00      	nop
    }
  }
}
 800534e:	3734      	adds	r7, #52	@ 0x34
 8005350:	46bd      	mov	sp, r7
 8005352:	bd90      	pop	{r4, r7, pc}

08005354 <HAL_PCD_SOFCallback>:
  * @brief  USB Start Of Frame callback.
  * @param  hpcd PCD handle
  * @retval None
  */
__weak void HAL_PCD_SOFCallback(PCD_HandleTypeDef *hpcd)
{
 8005354:	b480      	push	{r7}
 8005356:	b083      	sub	sp, #12
 8005358:	af00      	add	r7, sp, #0
 800535a:	6078      	str	r0, [r7, #4]
  UNUSED(hpcd);

  /* NOTE : This function should not be modified, when the callback is needed,
            the HAL_PCD_SOFCallback could be implemented in the user file
   */
}
 800535c:	bf00      	nop
 800535e:	370c      	adds	r7, #12
 8005360:	46bd      	mov	sp, r7
 8005362:	f85d 7b04 	ldr.w	r7, [sp], #4
 8005366:	4770      	bx	lr

08005368 <HAL_PCD_ISOOUTIncompleteCallback>:
  * @param  hpcd PCD handle
  * @param  epnum endpoint number
  * @retval None
  */
__weak void HAL_PCD_ISOOUTIncompleteCallback(PCD_HandleTypeDef *hpcd, uint8_t epnum)
{
 8005368:	b480      	push	{r7}
 800536a:	b083      	sub	sp, #12
 800536c:	af00      	add	r7, sp, #0
 800536e:	6078      	str	r0, [r7, #4]
 8005370:	460b      	mov	r3, r1
 8005372:	70fb      	strb	r3, [r7, #3]
  UNUSED(epnum);

  /* NOTE : This function should not be modified, when the callback is needed,
            the HAL_PCD_ISOOUTIncompleteCallback could be implemented in the user file
   */
}
 8005374:	bf00      	nop
 8005376:	370c      	adds	r7, #12
 8005378:	46bd      	mov	sp, r7
 800537a:	f85d 7b04 	ldr.w	r7, [sp], #4
 800537e:	4770      	bx	lr

08005380 <HAL_PCD_ISOINIncompleteCallback>:
  * @param  hpcd PCD handle
  * @param  epnum endpoint number
  * @retval None
  */
__weak void HAL_PCD_ISOINIncompleteCallback(PCD_HandleTypeDef *hpcd, uint8_t epnum)
{
 8005380:	b480      	push	{r7}
 8005382:	b083      	sub	sp, #12
 8005384:	af00      	add	r7, sp, #0
 8005386:	6078      	str	r0, [r7, #4]
 8005388:	460b      	mov	r3, r1
 800538a:	70fb      	strb	r3, [r7, #3]
  UNUSED(epnum);

  /* NOTE : This function should not be modified, when the callback is needed,
            the HAL_PCD_ISOINIncompleteCallback could be implemented in the user file
   */
}
 800538c:	bf00      	nop
 800538e:	370c      	adds	r7, #12
 8005390:	46bd      	mov	sp, r7
 8005392:	f85d 7b04 	ldr.w	r7, [sp], #4
 8005396:	4770      	bx	lr

08005398 <HAL_PCD_DevDisconnect>:
  * @brief  Disconnect the USB device.
  * @param  hpcd PCD handle
  * @retval HAL status
  */
HAL_StatusTypeDef HAL_PCD_DevDisconnect(PCD_HandleTypeDef *hpcd)
{
 8005398:	b580      	push	{r7, lr}
 800539a:	b084      	sub	sp, #16
 800539c:	af00      	add	r7, sp, #0
 800539e:	6078      	str	r0, [r7, #4]
  USB_OTG_GlobalTypeDef *USBx = hpcd->Instance;
 80053a0:	687b      	ldr	r3, [r7, #4]
 80053a2:	681b      	ldr	r3, [r3, #0]
 80053a4:	60fb      	str	r3, [r7, #12]

  __HAL_LOCK(hpcd);
 80053a6:	687b      	ldr	r3, [r7, #4]
 80053a8:	f893 3494 	ldrb.w	r3, [r3, #1172]	@ 0x494
 80053ac:	2b01      	cmp	r3, #1
 80053ae:	d101      	bne.n	80053b4 <HAL_PCD_DevDisconnect+0x1c>
 80053b0:	2302      	movs	r3, #2
 80053b2:	e01d      	b.n	80053f0 <HAL_PCD_DevDisconnect+0x58>
 80053b4:	687b      	ldr	r3, [r7, #4]
 80053b6:	2201      	movs	r2, #1
 80053b8:	f883 2494 	strb.w	r2, [r3, #1172]	@ 0x494
  (void)USB_DevDisconnect(hpcd->Instance);
 80053bc:	687b      	ldr	r3, [r7, #4]
 80053be:	681b      	ldr	r3, [r3, #0]
 80053c0:	4618      	mov	r0, r3
 80053c2:	f002 fcea 	bl	8007d9a <USB_DevDisconnect>

  if (((USBx->GUSBCFG & USB_OTG_GUSBCFG_PHYSEL) != 0U) &&
 80053c6:	68fb      	ldr	r3, [r7, #12]
 80053c8:	68db      	ldr	r3, [r3, #12]
 80053ca:	f003 0340 	and.w	r3, r3, #64	@ 0x40
 80053ce:	2b00      	cmp	r3, #0
 80053d0:	d009      	beq.n	80053e6 <HAL_PCD_DevDisconnect+0x4e>
      (hpcd->Init.battery_charging_enable == 1U))
 80053d2:	687b      	ldr	r3, [r7, #4]
 80053d4:	7b5b      	ldrb	r3, [r3, #13]
  if (((USBx->GUSBCFG & USB_OTG_GUSBCFG_PHYSEL) != 0U) &&
 80053d6:	2b01      	cmp	r3, #1
 80053d8:	d105      	bne.n	80053e6 <HAL_PCD_DevDisconnect+0x4e>
  {
    /* Disable USB Transceiver */
    USBx->GCCFG &= ~(USB_OTG_GCCFG_PWRDWN);
 80053da:	68fb      	ldr	r3, [r7, #12]
 80053dc:	6b9b      	ldr	r3, [r3, #56]	@ 0x38
 80053de:	f423 3280 	bic.w	r2, r3, #65536	@ 0x10000
 80053e2:	68fb      	ldr	r3, [r7, #12]
 80053e4:	639a      	str	r2, [r3, #56]	@ 0x38
  }

  __HAL_UNLOCK(hpcd);
 80053e6:	687b      	ldr	r3, [r7, #4]
 80053e8:	2200      	movs	r2, #0
 80053ea:	f883 2494 	strb.w	r2, [r3, #1172]	@ 0x494

  return HAL_OK;
 80053ee:	2300      	movs	r3, #0
}
 80053f0:	4618      	mov	r0, r3
 80053f2:	3710      	adds	r7, #16
 80053f4:	46bd      	mov	sp, r7
 80053f6:	bd80      	pop	{r7, pc}

080053f8 <HAL_PCD_SetAddress>:
  * @param  hpcd PCD handle
  * @param  address new device address
  * @retval HAL status
  */
HAL_StatusTypeDef HAL_PCD_SetAddress(PCD_HandleTypeDef *hpcd, uint8_t address)
{
 80053f8:	b580      	push	{r7, lr}
 80053fa:	b082      	sub	sp, #8
 80053fc:	af00      	add	r7, sp, #0
 80053fe:	6078      	str	r0, [r7, #4]
 8005400:	460b      	mov	r3, r1
 8005402:	70fb      	strb	r3, [r7, #3]
  __HAL_LOCK(hpcd);
 8005404:	687b      	ldr	r3, [r7, #4]
 8005406:	f893 3494 	ldrb.w	r3, [r3, #1172]	@ 0x494
 800540a:	2b01      	cmp	r3, #1
 800540c:	d101      	bne.n	8005412 <HAL_PCD_SetAddress+0x1a>
 800540e:	2302      	movs	r3, #2
 8005410:	e012      	b.n	8005438 <HAL_PCD_SetAddress+0x40>
 8005412:	687b      	ldr	r3, [r7, #4]
 8005414:	2201      	movs	r2, #1
 8005416:	f883 2494 	strb.w	r2, [r3, #1172]	@ 0x494
  hpcd->USB_Address = address;
 800541a:	687b      	ldr	r3, [r7, #4]
 800541c:	78fa      	ldrb	r2, [r7, #3]
 800541e:	745a      	strb	r2, [r3, #17]
  (void)USB_SetDevAddress(hpcd->Instance, address);
 8005420:	687b      	ldr	r3, [r7, #4]
 8005422:	681b      	ldr	r3, [r3, #0]
 8005424:	78fa      	ldrb	r2, [r7, #3]
 8005426:	4611      	mov	r1, r2
 8005428:	4618      	mov	r0, r3
 800542a:	f002 fc6f 	bl	8007d0c <USB_SetDevAddress>
  __HAL_UNLOCK(hpcd);
 800542e:	687b      	ldr	r3, [r7, #4]
 8005430:	2200      	movs	r2, #0
 8005432:	f883 2494 	strb.w	r2, [r3, #1172]	@ 0x494

  return HAL_OK;
 8005436:	2300      	movs	r3, #0
}
 8005438:	4618      	mov	r0, r3
 800543a:	3708      	adds	r7, #8
 800543c:	46bd      	mov	sp, r7
 800543e:	bd80      	pop	{r7, pc}

08005440 <HAL_PCD_EP_Open>:
  * @param  ep_type endpoint type
  * @retval HAL status
  */
HAL_StatusTypeDef HAL_PCD_EP_Open(PCD_HandleTypeDef *hpcd, uint8_t ep_addr,
                                  uint16_t ep_mps, uint8_t ep_type)
{
 8005440:	b580      	push	{r7, lr}
 8005442:	b084      	sub	sp, #16
 8005444:	af00      	add	r7, sp, #0
 8005446:	6078      	str	r0, [r7, #4]
 8005448:	4608      	mov	r0, r1
 800544a:	4611      	mov	r1, r2
 800544c:	461a      	mov	r2, r3
 800544e:	4603      	mov	r3, r0
 8005450:	70fb      	strb	r3, [r7, #3]
 8005452:	460b      	mov	r3, r1
 8005454:	803b      	strh	r3, [r7, #0]
 8005456:	4613      	mov	r3, r2
 8005458:	70bb      	strb	r3, [r7, #2]
  HAL_StatusTypeDef ret = HAL_OK;
 800545a:	2300      	movs	r3, #0
 800545c:	72fb      	strb	r3, [r7, #11]
  PCD_EPTypeDef *ep;

  if ((ep_addr & 0x80U) == 0x80U)
 800545e:	f997 3003 	ldrsb.w	r3, [r7, #3]
 8005462:	2b00      	cmp	r3, #0
 8005464:	da0f      	bge.n	8005486 <HAL_PCD_EP_Open+0x46>
  {
    ep = &hpcd->IN_ep[ep_addr & EP_ADDR_MSK];
 8005466:	78fb      	ldrb	r3, [r7, #3]
 8005468:	f003 020f 	and.w	r2, r3, #15
 800546c:	4613      	mov	r3, r2
 800546e:	00db      	lsls	r3, r3, #3
 8005470:	4413      	add	r3, r2
 8005472:	009b      	lsls	r3, r3, #2
 8005474:	3310      	adds	r3, #16
 8005476:	687a      	ldr	r2, [r7, #4]
 8005478:	4413      	add	r3, r2
 800547a:	3304      	adds	r3, #4
 800547c:	60fb      	str	r3, [r7, #12]
    ep->is_in = 1U;
 800547e:	68fb      	ldr	r3, [r7, #12]
 8005480:	2201      	movs	r2, #1
 8005482:	705a      	strb	r2, [r3, #1]
 8005484:	e00f      	b.n	80054a6 <HAL_PCD_EP_Open+0x66>
  }
  else
  {
    ep = &hpcd->OUT_ep[ep_addr & EP_ADDR_MSK];
 8005486:	78fb      	ldrb	r3, [r7, #3]
 8005488:	f003 020f 	and.w	r2, r3, #15
 800548c:	4613      	mov	r3, r2
 800548e:	00db      	lsls	r3, r3, #3
 8005490:	4413      	add	r3, r2
 8005492:	009b      	lsls	r3, r3, #2
 8005494:	f503 7314 	add.w	r3, r3, #592	@ 0x250
 8005498:	687a      	ldr	r2, [r7, #4]
 800549a:	4413      	add	r3, r2
 800549c:	3304      	adds	r3, #4
 800549e:	60fb      	str	r3, [r7, #12]
    ep->is_in = 0U;
 80054a0:	68fb      	ldr	r3, [r7, #12]
 80054a2:	2200      	movs	r2, #0
 80054a4:	705a      	strb	r2, [r3, #1]
  }

  ep->num = ep_addr & EP_ADDR_MSK;
 80054a6:	78fb      	ldrb	r3, [r7, #3]
 80054a8:	f003 030f 	and.w	r3, r3, #15
 80054ac:	b2da      	uxtb	r2, r3
 80054ae:	68fb      	ldr	r3, [r7, #12]
 80054b0:	701a      	strb	r2, [r3, #0]
  ep->maxpacket = (uint32_t)ep_mps & 0x7FFU;
 80054b2:	883b      	ldrh	r3, [r7, #0]
 80054b4:	f3c3 020a 	ubfx	r2, r3, #0, #11
 80054b8:	68fb      	ldr	r3, [r7, #12]
 80054ba:	609a      	str	r2, [r3, #8]
  ep->type = ep_type;
 80054bc:	68fb      	ldr	r3, [r7, #12]
 80054be:	78ba      	ldrb	r2, [r7, #2]
 80054c0:	711a      	strb	r2, [r3, #4]

  if (ep->is_in != 0U)
 80054c2:	68fb      	ldr	r3, [r7, #12]
 80054c4:	785b      	ldrb	r3, [r3, #1]
 80054c6:	2b00      	cmp	r3, #0
 80054c8:	d004      	beq.n	80054d4 <HAL_PCD_EP_Open+0x94>
  {
    /* Assign a Tx FIFO */
    ep->tx_fifo_num = ep->num;
 80054ca:	68fb      	ldr	r3, [r7, #12]
 80054cc:	781b      	ldrb	r3, [r3, #0]
 80054ce:	461a      	mov	r2, r3
 80054d0:	68fb      	ldr	r3, [r7, #12]
 80054d2:	835a      	strh	r2, [r3, #26]
  }

  /* Set initial data PID. */
  if (ep_type == EP_TYPE_BULK)
 80054d4:	78bb      	ldrb	r3, [r7, #2]
 80054d6:	2b02      	cmp	r3, #2
 80054d8:	d102      	bne.n	80054e0 <HAL_PCD_EP_Open+0xa0>
  {
    ep->data_pid_start = 0U;
 80054da:	68fb      	ldr	r3, [r7, #12]
 80054dc:	2200      	movs	r2, #0
 80054de:	715a      	strb	r2, [r3, #5]
  }

  __HAL_LOCK(hpcd);
 80054e0:	687b      	ldr	r3, [r7, #4]
 80054e2:	f893 3494 	ldrb.w	r3, [r3, #1172]	@ 0x494
 80054e6:	2b01      	cmp	r3, #1
 80054e8:	d101      	bne.n	80054ee <HAL_PCD_EP_Open+0xae>
 80054ea:	2302      	movs	r3, #2
 80054ec:	e00e      	b.n	800550c <HAL_PCD_EP_Open+0xcc>
 80054ee:	687b      	ldr	r3, [r7, #4]
 80054f0:	2201      	movs	r2, #1
 80054f2:	f883 2494 	strb.w	r2, [r3, #1172]	@ 0x494
  (void)USB_ActivateEndpoint(hpcd->Instance, ep);
 80054f6:	687b      	ldr	r3, [r7, #4]
 80054f8:	681b      	ldr	r3, [r3, #0]
 80054fa:	68f9      	ldr	r1, [r7, #12]
 80054fc:	4618      	mov	r0, r3
 80054fe:	f001 fe55 	bl	80071ac <USB_ActivateEndpoint>
  __HAL_UNLOCK(hpcd);
 8005502:	687b      	ldr	r3, [r7, #4]
 8005504:	2200      	movs	r2, #0
 8005506:	f883 2494 	strb.w	r2, [r3, #1172]	@ 0x494

  return ret;
 800550a:	7afb      	ldrb	r3, [r7, #11]
}
 800550c:	4618      	mov	r0, r3
 800550e:	3710      	adds	r7, #16
 8005510:	46bd      	mov	sp, r7
 8005512:	bd80      	pop	{r7, pc}

08005514 <HAL_PCD_EP_Close>:
  * @param  hpcd PCD handle
  * @param  ep_addr endpoint address
  * @retval HAL status
  */
HAL_StatusTypeDef HAL_PCD_EP_Close(PCD_HandleTypeDef *hpcd, uint8_t ep_addr)
{
 8005514:	b580      	push	{r7, lr}
 8005516:	b084      	sub	sp, #16
 8005518:	af00      	add	r7, sp, #0
 800551a:	6078      	str	r0, [r7, #4]
 800551c:	460b      	mov	r3, r1
 800551e:	70fb      	strb	r3, [r7, #3]
  PCD_EPTypeDef *ep;

  if ((ep_addr & 0x80U) == 0x80U)
 8005520:	f997 3003 	ldrsb.w	r3, [r7, #3]
 8005524:	2b00      	cmp	r3, #0
 8005526:	da0f      	bge.n	8005548 <HAL_PCD_EP_Close+0x34>
  {
    ep = &hpcd->IN_ep[ep_addr & EP_ADDR_MSK];
 8005528:	78fb      	ldrb	r3, [r7, #3]
 800552a:	f003 020f 	and.w	r2, r3, #15
 800552e:	4613      	mov	r3, r2
 8005530:	00db      	lsls	r3, r3, #3
 8005532:	4413      	add	r3, r2
 8005534:	009b      	lsls	r3, r3, #2
 8005536:	3310      	adds	r3, #16
 8005538:	687a      	ldr	r2, [r7, #4]
 800553a:	4413      	add	r3, r2
 800553c:	3304      	adds	r3, #4
 800553e:	60fb      	str	r3, [r7, #12]
    ep->is_in = 1U;
 8005540:	68fb      	ldr	r3, [r7, #12]
 8005542:	2201      	movs	r2, #1
 8005544:	705a      	strb	r2, [r3, #1]
 8005546:	e00f      	b.n	8005568 <HAL_PCD_EP_Close+0x54>
  }
  else
  {
    ep = &hpcd->OUT_ep[ep_addr & EP_ADDR_MSK];
 8005548:	78fb      	ldrb	r3, [r7, #3]
 800554a:	f003 020f 	and.w	r2, r3, #15
 800554e:	4613      	mov	r3, r2
 8005550:	00db      	lsls	r3, r3, #3
 8005552:	4413      	add	r3, r2
 8005554:	009b      	lsls	r3, r3, #2
 8005556:	f503 7314 	add.w	r3, r3, #592	@ 0x250
 800555a:	687a      	ldr	r2, [r7, #4]
 800555c:	4413      	add	r3, r2
 800555e:	3304      	adds	r3, #4
 8005560:	60fb      	str	r3, [r7, #12]
    ep->is_in = 0U;
 8005562:	68fb      	ldr	r3, [r7, #12]
 8005564:	2200      	movs	r2, #0
 8005566:	705a      	strb	r2, [r3, #1]
  }
  ep->num = ep_addr & EP_ADDR_MSK;
 8005568:	78fb      	ldrb	r3, [r7, #3]
 800556a:	f003 030f 	and.w	r3, r3, #15
 800556e:	b2da      	uxtb	r2, r3
 8005570:	68fb      	ldr	r3, [r7, #12]
 8005572:	701a      	strb	r2, [r3, #0]

  __HAL_LOCK(hpcd);
 8005574:	687b      	ldr	r3, [r7, #4]
 8005576:	f893 3494 	ldrb.w	r3, [r3, #1172]	@ 0x494
 800557a:	2b01      	cmp	r3, #1
 800557c:	d101      	bne.n	8005582 <HAL_PCD_EP_Close+0x6e>
 800557e:	2302      	movs	r3, #2
 8005580:	e00e      	b.n	80055a0 <HAL_PCD_EP_Close+0x8c>
 8005582:	687b      	ldr	r3, [r7, #4]
 8005584:	2201      	movs	r2, #1
 8005586:	f883 2494 	strb.w	r2, [r3, #1172]	@ 0x494
  (void)USB_DeactivateEndpoint(hpcd->Instance, ep);
 800558a:	687b      	ldr	r3, [r7, #4]
 800558c:	681b      	ldr	r3, [r3, #0]
 800558e:	68f9      	ldr	r1, [r7, #12]
 8005590:	4618      	mov	r0, r3
 8005592:	f001 fe93 	bl	80072bc <USB_DeactivateEndpoint>
  __HAL_UNLOCK(hpcd);
 8005596:	687b      	ldr	r3, [r7, #4]
 8005598:	2200      	movs	r2, #0
 800559a:	f883 2494 	strb.w	r2, [r3, #1172]	@ 0x494
  return HAL_OK;
 800559e:	2300      	movs	r3, #0
}
 80055a0:	4618      	mov	r0, r3
 80055a2:	3710      	adds	r7, #16
 80055a4:	46bd      	mov	sp, r7
 80055a6:	bd80      	pop	{r7, pc}

080055a8 <HAL_PCD_EP_Receive>:
  * @param  pBuf pointer to the reception buffer
  * @param  len amount of data to be received
  * @retval HAL status
  */
HAL_StatusTypeDef HAL_PCD_EP_Receive(PCD_HandleTypeDef *hpcd, uint8_t ep_addr, uint8_t *pBuf, uint32_t len)
{
 80055a8:	b580      	push	{r7, lr}
 80055aa:	b086      	sub	sp, #24
 80055ac:	af00      	add	r7, sp, #0
 80055ae:	60f8      	str	r0, [r7, #12]
 80055b0:	607a      	str	r2, [r7, #4]
 80055b2:	603b      	str	r3, [r7, #0]
 80055b4:	460b      	mov	r3, r1
 80055b6:	72fb      	strb	r3, [r7, #11]
  PCD_EPTypeDef *ep;

  ep = &hpcd->OUT_ep[ep_addr & EP_ADDR_MSK];
 80055b8:	7afb      	ldrb	r3, [r7, #11]
 80055ba:	f003 020f 	and.w	r2, r3, #15
 80055be:	4613      	mov	r3, r2
 80055c0:	00db      	lsls	r3, r3, #3
 80055c2:	4413      	add	r3, r2
 80055c4:	009b      	lsls	r3, r3, #2
 80055c6:	f503 7314 	add.w	r3, r3, #592	@ 0x250
 80055ca:	68fa      	ldr	r2, [r7, #12]
 80055cc:	4413      	add	r3, r2
 80055ce:	3304      	adds	r3, #4
 80055d0:	617b      	str	r3, [r7, #20]

  /*setup and start the Xfer */
  ep->xfer_buff = pBuf;
 80055d2:	697b      	ldr	r3, [r7, #20]
 80055d4:	687a      	ldr	r2, [r7, #4]
 80055d6:	60da      	str	r2, [r3, #12]
  ep->xfer_len = len;
 80055d8:	697b      	ldr	r3, [r7, #20]
 80055da:	683a      	ldr	r2, [r7, #0]
 80055dc:	611a      	str	r2, [r3, #16]
  ep->xfer_count = 0U;
 80055de:	697b      	ldr	r3, [r7, #20]
 80055e0:	2200      	movs	r2, #0
 80055e2:	615a      	str	r2, [r3, #20]
  ep->is_in = 0U;
 80055e4:	697b      	ldr	r3, [r7, #20]
 80055e6:	2200      	movs	r2, #0
 80055e8:	705a      	strb	r2, [r3, #1]
  ep->num = ep_addr & EP_ADDR_MSK;
 80055ea:	7afb      	ldrb	r3, [r7, #11]
 80055ec:	f003 030f 	and.w	r3, r3, #15
 80055f0:	b2da      	uxtb	r2, r3
 80055f2:	697b      	ldr	r3, [r7, #20]
 80055f4:	701a      	strb	r2, [r3, #0]

  if (hpcd->Init.dma_enable == 1U)
 80055f6:	68fb      	ldr	r3, [r7, #12]
 80055f8:	799b      	ldrb	r3, [r3, #6]
 80055fa:	2b01      	cmp	r3, #1
 80055fc:	d102      	bne.n	8005604 <HAL_PCD_EP_Receive+0x5c>
  {
    ep->dma_addr = (uint32_t)pBuf;
 80055fe:	687a      	ldr	r2, [r7, #4]
 8005600:	697b      	ldr	r3, [r7, #20]
 8005602:	61da      	str	r2, [r3, #28]
  }

  (void)USB_EPStartXfer(hpcd->Instance, ep, (uint8_t)hpcd->Init.dma_enable);
 8005604:	68fb      	ldr	r3, [r7, #12]
 8005606:	6818      	ldr	r0, [r3, #0]
 8005608:	68fb      	ldr	r3, [r7, #12]
 800560a:	799b      	ldrb	r3, [r3, #6]
 800560c:	461a      	mov	r2, r3
 800560e:	6979      	ldr	r1, [r7, #20]
 8005610:	f001 ff30 	bl	8007474 <USB_EPStartXfer>

  return HAL_OK;
 8005614:	2300      	movs	r3, #0
}
 8005616:	4618      	mov	r0, r3
 8005618:	3718      	adds	r7, #24
 800561a:	46bd      	mov	sp, r7
 800561c:	bd80      	pop	{r7, pc}

0800561e <HAL_PCD_EP_GetRxCount>:
  * @param  hpcd PCD handle
  * @param  ep_addr endpoint address
  * @retval Data Size
  */
uint32_t HAL_PCD_EP_GetRxCount(PCD_HandleTypeDef const *hpcd, uint8_t ep_addr)
{
 800561e:	b480      	push	{r7}
 8005620:	b083      	sub	sp, #12
 8005622:	af00      	add	r7, sp, #0
 8005624:	6078      	str	r0, [r7, #4]
 8005626:	460b      	mov	r3, r1
 8005628:	70fb      	strb	r3, [r7, #3]
  return hpcd->OUT_ep[ep_addr & EP_ADDR_MSK].xfer_count;
 800562a:	78fb      	ldrb	r3, [r7, #3]
 800562c:	f003 020f 	and.w	r2, r3, #15
 8005630:	6879      	ldr	r1, [r7, #4]
 8005632:	4613      	mov	r3, r2
 8005634:	00db      	lsls	r3, r3, #3
 8005636:	4413      	add	r3, r2
 8005638:	009b      	lsls	r3, r3, #2
 800563a:	440b      	add	r3, r1
 800563c:	f503 731a 	add.w	r3, r3, #616	@ 0x268
 8005640:	681b      	ldr	r3, [r3, #0]
}
 8005642:	4618      	mov	r0, r3
 8005644:	370c      	adds	r7, #12
 8005646:	46bd      	mov	sp, r7
 8005648:	f85d 7b04 	ldr.w	r7, [sp], #4
 800564c:	4770      	bx	lr

0800564e <HAL_PCD_EP_Transmit>:
  * @param  pBuf pointer to the transmission buffer
  * @param  len amount of data to be sent
  * @retval HAL status
  */
HAL_StatusTypeDef HAL_PCD_EP_Transmit(PCD_HandleTypeDef *hpcd, uint8_t ep_addr, uint8_t *pBuf, uint32_t len)
{
 800564e:	b580      	push	{r7, lr}
 8005650:	b086      	sub	sp, #24
 8005652:	af00      	add	r7, sp, #0
 8005654:	60f8      	str	r0, [r7, #12]
 8005656:	607a      	str	r2, [r7, #4]
 8005658:	603b      	str	r3, [r7, #0]
 800565a:	460b      	mov	r3, r1
 800565c:	72fb      	strb	r3, [r7, #11]
  PCD_EPTypeDef *ep;

  ep = &hpcd->IN_ep[ep_addr & EP_ADDR_MSK];
 800565e:	7afb      	ldrb	r3, [r7, #11]
 8005660:	f003 020f 	and.w	r2, r3, #15
 8005664:	4613      	mov	r3, r2
 8005666:	00db      	lsls	r3, r3, #3
 8005668:	4413      	add	r3, r2
 800566a:	009b      	lsls	r3, r3, #2
 800566c:	3310      	adds	r3, #16
 800566e:	68fa      	ldr	r2, [r7, #12]
 8005670:	4413      	add	r3, r2
 8005672:	3304      	adds	r3, #4
 8005674:	617b      	str	r3, [r7, #20]

  /*setup and start the Xfer */
  ep->xfer_buff = pBuf;
 8005676:	697b      	ldr	r3, [r7, #20]
 8005678:	687a      	ldr	r2, [r7, #4]
 800567a:	60da      	str	r2, [r3, #12]
  ep->xfer_len = len;
 800567c:	697b      	ldr	r3, [r7, #20]
 800567e:	683a      	ldr	r2, [r7, #0]
 8005680:	611a      	str	r2, [r3, #16]
  ep->xfer_count = 0U;
 8005682:	697b      	ldr	r3, [r7, #20]
 8005684:	2200      	movs	r2, #0
 8005686:	615a      	str	r2, [r3, #20]
  ep->is_in = 1U;
 8005688:	697b      	ldr	r3, [r7, #20]
 800568a:	2201      	movs	r2, #1
 800568c:	705a      	strb	r2, [r3, #1]
  ep->num = ep_addr & EP_ADDR_MSK;
 800568e:	7afb      	ldrb	r3, [r7, #11]
 8005690:	f003 030f 	and.w	r3, r3, #15
 8005694:	b2da      	uxtb	r2, r3
 8005696:	697b      	ldr	r3, [r7, #20]
 8005698:	701a      	strb	r2, [r3, #0]

  if (hpcd->Init.dma_enable == 1U)
 800569a:	68fb      	ldr	r3, [r7, #12]
 800569c:	799b      	ldrb	r3, [r3, #6]
 800569e:	2b01      	cmp	r3, #1
 80056a0:	d102      	bne.n	80056a8 <HAL_PCD_EP_Transmit+0x5a>
  {
    ep->dma_addr = (uint32_t)pBuf;
 80056a2:	687a      	ldr	r2, [r7, #4]
 80056a4:	697b      	ldr	r3, [r7, #20]
 80056a6:	61da      	str	r2, [r3, #28]
  }

  (void)USB_EPStartXfer(hpcd->Instance, ep, (uint8_t)hpcd->Init.dma_enable);
 80056a8:	68fb      	ldr	r3, [r7, #12]
 80056aa:	6818      	ldr	r0, [r3, #0]
 80056ac:	68fb      	ldr	r3, [r7, #12]
 80056ae:	799b      	ldrb	r3, [r3, #6]
 80056b0:	461a      	mov	r2, r3
 80056b2:	6979      	ldr	r1, [r7, #20]
 80056b4:	f001 fede 	bl	8007474 <USB_EPStartXfer>

  return HAL_OK;
 80056b8:	2300      	movs	r3, #0
}
 80056ba:	4618      	mov	r0, r3
 80056bc:	3718      	adds	r7, #24
 80056be:	46bd      	mov	sp, r7
 80056c0:	bd80      	pop	{r7, pc}

080056c2 <HAL_PCD_EP_SetStall>:
  * @param  hpcd PCD handle
  * @param  ep_addr endpoint address
  * @retval HAL status
  */
HAL_StatusTypeDef HAL_PCD_EP_SetStall(PCD_HandleTypeDef *hpcd, uint8_t ep_addr)
{
 80056c2:	b580      	push	{r7, lr}
 80056c4:	b084      	sub	sp, #16
 80056c6:	af00      	add	r7, sp, #0
 80056c8:	6078      	str	r0, [r7, #4]
 80056ca:	460b      	mov	r3, r1
 80056cc:	70fb      	strb	r3, [r7, #3]
  PCD_EPTypeDef *ep;

  if (((uint32_t)ep_addr & EP_ADDR_MSK) > hpcd->Init.dev_endpoints)
 80056ce:	78fb      	ldrb	r3, [r7, #3]
 80056d0:	f003 030f 	and.w	r3, r3, #15
 80056d4:	687a      	ldr	r2, [r7, #4]
 80056d6:	7912      	ldrb	r2, [r2, #4]
 80056d8:	4293      	cmp	r3, r2
 80056da:	d901      	bls.n	80056e0 <HAL_PCD_EP_SetStall+0x1e>
  {
    return HAL_ERROR;
 80056dc:	2301      	movs	r3, #1
 80056de:	e04f      	b.n	8005780 <HAL_PCD_EP_SetStall+0xbe>
  }

  if ((0x80U & ep_addr) == 0x80U)
 80056e0:	f997 3003 	ldrsb.w	r3, [r7, #3]
 80056e4:	2b00      	cmp	r3, #0
 80056e6:	da0f      	bge.n	8005708 <HAL_PCD_EP_SetStall+0x46>
  {
    ep = &hpcd->IN_ep[ep_addr & EP_ADDR_MSK];
 80056e8:	78fb      	ldrb	r3, [r7, #3]
 80056ea:	f003 020f 	and.w	r2, r3, #15
 80056ee:	4613      	mov	r3, r2
 80056f0:	00db      	lsls	r3, r3, #3
 80056f2:	4413      	add	r3, r2
 80056f4:	009b      	lsls	r3, r3, #2
 80056f6:	3310      	adds	r3, #16
 80056f8:	687a      	ldr	r2, [r7, #4]
 80056fa:	4413      	add	r3, r2
 80056fc:	3304      	adds	r3, #4
 80056fe:	60fb      	str	r3, [r7, #12]
    ep->is_in = 1U;
 8005700:	68fb      	ldr	r3, [r7, #12]
 8005702:	2201      	movs	r2, #1
 8005704:	705a      	strb	r2, [r3, #1]
 8005706:	e00d      	b.n	8005724 <HAL_PCD_EP_SetStall+0x62>
  }
  else
  {
    ep = &hpcd->OUT_ep[ep_addr];
 8005708:	78fa      	ldrb	r2, [r7, #3]
 800570a:	4613      	mov	r3, r2
 800570c:	00db      	lsls	r3, r3, #3
 800570e:	4413      	add	r3, r2
 8005710:	009b      	lsls	r3, r3, #2
 8005712:	f503 7314 	add.w	r3, r3, #592	@ 0x250
 8005716:	687a      	ldr	r2, [r7, #4]
 8005718:	4413      	add	r3, r2
 800571a:	3304      	adds	r3, #4
 800571c:	60fb      	str	r3, [r7, #12]
    ep->is_in = 0U;
 800571e:	68fb      	ldr	r3, [r7, #12]
 8005720:	2200      	movs	r2, #0
 8005722:	705a      	strb	r2, [r3, #1]
  }

  ep->is_stall = 1U;
 8005724:	68fb      	ldr	r3, [r7, #12]
 8005726:	2201      	movs	r2, #1
 8005728:	709a      	strb	r2, [r3, #2]
  ep->num = ep_addr & EP_ADDR_MSK;
 800572a:	78fb      	ldrb	r3, [r7, #3]
 800572c:	f003 030f 	and.w	r3, r3, #15
 8005730:	b2da      	uxtb	r2, r3
 8005732:	68fb      	ldr	r3, [r7, #12]
 8005734:	701a      	strb	r2, [r3, #0]

  __HAL_LOCK(hpcd);
 8005736:	687b      	ldr	r3, [r7, #4]
 8005738:	f893 3494 	ldrb.w	r3, [r3, #1172]	@ 0x494
 800573c:	2b01      	cmp	r3, #1
 800573e:	d101      	bne.n	8005744 <HAL_PCD_EP_SetStall+0x82>
 8005740:	2302      	movs	r3, #2
 8005742:	e01d      	b.n	8005780 <HAL_PCD_EP_SetStall+0xbe>
 8005744:	687b      	ldr	r3, [r7, #4]
 8005746:	2201      	movs	r2, #1
 8005748:	f883 2494 	strb.w	r2, [r3, #1172]	@ 0x494

  (void)USB_EPSetStall(hpcd->Instance, ep);
 800574c:	687b      	ldr	r3, [r7, #4]
 800574e:	681b      	ldr	r3, [r3, #0]
 8005750:	68f9      	ldr	r1, [r7, #12]
 8005752:	4618      	mov	r0, r3
 8005754:	f002 fa6c 	bl	8007c30 <USB_EPSetStall>

  if ((ep_addr & EP_ADDR_MSK) == 0U)
 8005758:	78fb      	ldrb	r3, [r7, #3]
 800575a:	f003 030f 	and.w	r3, r3, #15
 800575e:	2b00      	cmp	r3, #0
 8005760:	d109      	bne.n	8005776 <HAL_PCD_EP_SetStall+0xb4>
  {
    (void)USB_EP0_OutStart(hpcd->Instance, (uint8_t)hpcd->Init.dma_enable, (uint8_t *)hpcd->Setup);
 8005762:	687b      	ldr	r3, [r7, #4]
 8005764:	6818      	ldr	r0, [r3, #0]
 8005766:	687b      	ldr	r3, [r7, #4]
 8005768:	7999      	ldrb	r1, [r3, #6]
 800576a:	687b      	ldr	r3, [r7, #4]
 800576c:	f203 439c 	addw	r3, r3, #1180	@ 0x49c
 8005770:	461a      	mov	r2, r3
 8005772:	f002 fbf7 	bl	8007f64 <USB_EP0_OutStart>
  }

  __HAL_UNLOCK(hpcd);
 8005776:	687b      	ldr	r3, [r7, #4]
 8005778:	2200      	movs	r2, #0
 800577a:	f883 2494 	strb.w	r2, [r3, #1172]	@ 0x494

  return HAL_OK;
 800577e:	2300      	movs	r3, #0
}
 8005780:	4618      	mov	r0, r3
 8005782:	3710      	adds	r7, #16
 8005784:	46bd      	mov	sp, r7
 8005786:	bd80      	pop	{r7, pc}

08005788 <HAL_PCD_EP_Abort>:
   * @param  hpcd PCD handle
   * @param  ep_addr endpoint address
   * @retval HAL status
   */
HAL_StatusTypeDef HAL_PCD_EP_Abort(PCD_HandleTypeDef *hpcd, uint8_t ep_addr)
{
 8005788:	b580      	push	{r7, lr}
 800578a:	b084      	sub	sp, #16
 800578c:	af00      	add	r7, sp, #0
 800578e:	6078      	str	r0, [r7, #4]
 8005790:	460b      	mov	r3, r1
 8005792:	70fb      	strb	r3, [r7, #3]
  HAL_StatusTypeDef ret;
  PCD_EPTypeDef *ep;

  if ((0x80U & ep_addr) == 0x80U)
 8005794:	f997 3003 	ldrsb.w	r3, [r7, #3]
 8005798:	2b00      	cmp	r3, #0
 800579a:	da0c      	bge.n	80057b6 <HAL_PCD_EP_Abort+0x2e>
  {
    ep = &hpcd->IN_ep[ep_addr & EP_ADDR_MSK];
 800579c:	78fb      	ldrb	r3, [r7, #3]
 800579e:	f003 020f 	and.w	r2, r3, #15
 80057a2:	4613      	mov	r3, r2
 80057a4:	00db      	lsls	r3, r3, #3
 80057a6:	4413      	add	r3, r2
 80057a8:	009b      	lsls	r3, r3, #2
 80057aa:	3310      	adds	r3, #16
 80057ac:	687a      	ldr	r2, [r7, #4]
 80057ae:	4413      	add	r3, r2
 80057b0:	3304      	adds	r3, #4
 80057b2:	60fb      	str	r3, [r7, #12]
 80057b4:	e00c      	b.n	80057d0 <HAL_PCD_EP_Abort+0x48>
  }
  else
  {
    ep = &hpcd->OUT_ep[ep_addr & EP_ADDR_MSK];
 80057b6:	78fb      	ldrb	r3, [r7, #3]
 80057b8:	f003 020f 	and.w	r2, r3, #15
 80057bc:	4613      	mov	r3, r2
 80057be:	00db      	lsls	r3, r3, #3
 80057c0:	4413      	add	r3, r2
 80057c2:	009b      	lsls	r3, r3, #2
 80057c4:	f503 7314 	add.w	r3, r3, #592	@ 0x250
 80057c8:	687a      	ldr	r2, [r7, #4]
 80057ca:	4413      	add	r3, r2
 80057cc:	3304      	adds	r3, #4
 80057ce:	60fb      	str	r3, [r7, #12]
  }

  /* Stop Xfer */
  ret = USB_EPStopXfer(hpcd->Instance, ep);
 80057d0:	687b      	ldr	r3, [r7, #4]
 80057d2:	681b      	ldr	r3, [r3, #0]
 80057d4:	68f9      	ldr	r1, [r7, #12]
 80057d6:	4618      	mov	r0, r3
 80057d8:	f002 f8ea 	bl	80079b0 <USB_EPStopXfer>
 80057dc:	4603      	mov	r3, r0
 80057de:	72fb      	strb	r3, [r7, #11]

  return ret;
 80057e0:	7afb      	ldrb	r3, [r7, #11]
}
 80057e2:	4618      	mov	r0, r3
 80057e4:	3710      	adds	r7, #16
 80057e6:	46bd      	mov	sp, r7
 80057e8:	bd80      	pop	{r7, pc}

080057ea <PCD_WriteEmptyTxFifo>:
  * @param  hpcd PCD handle
  * @param  epnum endpoint number
  * @retval HAL status
  */
static HAL_StatusTypeDef PCD_WriteEmptyTxFifo(PCD_HandleTypeDef *hpcd, uint32_t epnum)
{
 80057ea:	b580      	push	{r7, lr}
 80057ec:	b08a      	sub	sp, #40	@ 0x28
 80057ee:	af02      	add	r7, sp, #8
 80057f0:	6078      	str	r0, [r7, #4]
 80057f2:	6039      	str	r1, [r7, #0]
  USB_OTG_GlobalTypeDef *USBx = hpcd->Instance;
 80057f4:	687b      	ldr	r3, [r7, #4]
 80057f6:	681b      	ldr	r3, [r3, #0]
 80057f8:	617b      	str	r3, [r7, #20]
  uint32_t USBx_BASE = (uint32_t)USBx;
 80057fa:	697b      	ldr	r3, [r7, #20]
 80057fc:	613b      	str	r3, [r7, #16]
  USB_OTG_EPTypeDef *ep;
  uint32_t len;
  uint32_t len32b;
  uint32_t fifoemptymsk;

  ep = &hpcd->IN_ep[epnum];
 80057fe:	683a      	ldr	r2, [r7, #0]
 8005800:	4613      	mov	r3, r2
 8005802:	00db      	lsls	r3, r3, #3
 8005804:	4413      	add	r3, r2
 8005806:	009b      	lsls	r3, r3, #2
 8005808:	3310      	adds	r3, #16
 800580a:	687a      	ldr	r2, [r7, #4]
 800580c:	4413      	add	r3, r2
 800580e:	3304      	adds	r3, #4
 8005810:	60fb      	str	r3, [r7, #12]

  if (ep->xfer_count > ep->xfer_len)
 8005812:	68fb      	ldr	r3, [r7, #12]
 8005814:	695a      	ldr	r2, [r3, #20]
 8005816:	68fb      	ldr	r3, [r7, #12]
 8005818:	691b      	ldr	r3, [r3, #16]
 800581a:	429a      	cmp	r2, r3
 800581c:	d901      	bls.n	8005822 <PCD_WriteEmptyTxFifo+0x38>
  {
    return HAL_ERROR;
 800581e:	2301      	movs	r3, #1
 8005820:	e06b      	b.n	80058fa <PCD_WriteEmptyTxFifo+0x110>
  }

  len = ep->xfer_len - ep->xfer_count;
 8005822:	68fb      	ldr	r3, [r7, #12]
 8005824:	691a      	ldr	r2, [r3, #16]
 8005826:	68fb      	ldr	r3, [r7, #12]
 8005828:	695b      	ldr	r3, [r3, #20]
 800582a:	1ad3      	subs	r3, r2, r3
 800582c:	61fb      	str	r3, [r7, #28]

  if (len > ep->maxpacket)
 800582e:	68fb      	ldr	r3, [r7, #12]
 8005830:	689b      	ldr	r3, [r3, #8]
 8005832:	69fa      	ldr	r2, [r7, #28]
 8005834:	429a      	cmp	r2, r3
 8005836:	d902      	bls.n	800583e <PCD_WriteEmptyTxFifo+0x54>
  {
    len = ep->maxpacket;
 8005838:	68fb      	ldr	r3, [r7, #12]
 800583a:	689b      	ldr	r3, [r3, #8]
 800583c:	61fb      	str	r3, [r7, #28]
  }

  len32b = (len + 3U) / 4U;
 800583e:	69fb      	ldr	r3, [r7, #28]
 8005840:	3303      	adds	r3, #3
 8005842:	089b      	lsrs	r3, r3, #2
 8005844:	61bb      	str	r3, [r7, #24]

  while (((USBx_INEP(epnum)->DTXFSTS & USB_OTG_DTXFSTS_INEPTFSAV) >= len32b) &&
 8005846:	e02a      	b.n	800589e <PCD_WriteEmptyTxFifo+0xb4>
         (ep->xfer_count < ep->xfer_len) && (ep->xfer_len != 0U))
  {
    /* Write the FIFO */
    len = ep->xfer_len - ep->xfer_count;
 8005848:	68fb      	ldr	r3, [r7, #12]
 800584a:	691a      	ldr	r2, [r3, #16]
 800584c:	68fb      	ldr	r3, [r7, #12]
 800584e:	695b      	ldr	r3, [r3, #20]
 8005850:	1ad3      	subs	r3, r2, r3
 8005852:	61fb      	str	r3, [r7, #28]

    if (len > ep->maxpacket)
 8005854:	68fb      	ldr	r3, [r7, #12]
 8005856:	689b      	ldr	r3, [r3, #8]
 8005858:	69fa      	ldr	r2, [r7, #28]
 800585a:	429a      	cmp	r2, r3
 800585c:	d902      	bls.n	8005864 <PCD_WriteEmptyTxFifo+0x7a>
    {
      len = ep->maxpacket;
 800585e:	68fb      	ldr	r3, [r7, #12]
 8005860:	689b      	ldr	r3, [r3, #8]
 8005862:	61fb      	str	r3, [r7, #28]
    }
    len32b = (len + 3U) / 4U;
 8005864:	69fb      	ldr	r3, [r7, #28]
 8005866:	3303      	adds	r3, #3
 8005868:	089b      	lsrs	r3, r3, #2
 800586a:	61bb      	str	r3, [r7, #24]

    (void)USB_WritePacket(USBx, ep->xfer_buff, (uint8_t)epnum, (uint16_t)len,
 800586c:	68fb      	ldr	r3, [r7, #12]
 800586e:	68d9      	ldr	r1, [r3, #12]
 8005870:	683b      	ldr	r3, [r7, #0]
 8005872:	b2da      	uxtb	r2, r3
 8005874:	69fb      	ldr	r3, [r7, #28]
 8005876:	b298      	uxth	r0, r3
                          (uint8_t)hpcd->Init.dma_enable);
 8005878:	687b      	ldr	r3, [r7, #4]
 800587a:	799b      	ldrb	r3, [r3, #6]
    (void)USB_WritePacket(USBx, ep->xfer_buff, (uint8_t)epnum, (uint16_t)len,
 800587c:	9300      	str	r3, [sp, #0]
 800587e:	4603      	mov	r3, r0
 8005880:	6978      	ldr	r0, [r7, #20]
 8005882:	f002 f93f 	bl	8007b04 <USB_WritePacket>

    ep->xfer_buff  += len;
 8005886:	68fb      	ldr	r3, [r7, #12]
 8005888:	68da      	ldr	r2, [r3, #12]
 800588a:	69fb      	ldr	r3, [r7, #28]
 800588c:	441a      	add	r2, r3
 800588e:	68fb      	ldr	r3, [r7, #12]
 8005890:	60da      	str	r2, [r3, #12]
    ep->xfer_count += len;
 8005892:	68fb      	ldr	r3, [r7, #12]
 8005894:	695a      	ldr	r2, [r3, #20]
 8005896:	69fb      	ldr	r3, [r7, #28]
 8005898:	441a      	add	r2, r3
 800589a:	68fb      	ldr	r3, [r7, #12]
 800589c:	615a      	str	r2, [r3, #20]
  while (((USBx_INEP(epnum)->DTXFSTS & USB_OTG_DTXFSTS_INEPTFSAV) >= len32b) &&
 800589e:	683b      	ldr	r3, [r7, #0]
 80058a0:	015a      	lsls	r2, r3, #5
 80058a2:	693b      	ldr	r3, [r7, #16]
 80058a4:	4413      	add	r3, r2
 80058a6:	f503 6310 	add.w	r3, r3, #2304	@ 0x900
 80058aa:	699b      	ldr	r3, [r3, #24]
 80058ac:	b29b      	uxth	r3, r3
         (ep->xfer_count < ep->xfer_len) && (ep->xfer_len != 0U))
 80058ae:	69ba      	ldr	r2, [r7, #24]
 80058b0:	429a      	cmp	r2, r3
 80058b2:	d809      	bhi.n	80058c8 <PCD_WriteEmptyTxFifo+0xde>
 80058b4:	68fb      	ldr	r3, [r7, #12]
 80058b6:	695a      	ldr	r2, [r3, #20]
 80058b8:	68fb      	ldr	r3, [r7, #12]
 80058ba:	691b      	ldr	r3, [r3, #16]
  while (((USBx_INEP(epnum)->DTXFSTS & USB_OTG_DTXFSTS_INEPTFSAV) >= len32b) &&
 80058bc:	429a      	cmp	r2, r3
 80058be:	d203      	bcs.n	80058c8 <PCD_WriteEmptyTxFifo+0xde>
         (ep->xfer_count < ep->xfer_len) && (ep->xfer_len != 0U))
 80058c0:	68fb      	ldr	r3, [r7, #12]
 80058c2:	691b      	ldr	r3, [r3, #16]
 80058c4:	2b00      	cmp	r3, #0
 80058c6:	d1bf      	bne.n	8005848 <PCD_WriteEmptyTxFifo+0x5e>
  }

  if (ep->xfer_len <= ep->xfer_count)
 80058c8:	68fb      	ldr	r3, [r7, #12]
 80058ca:	691a      	ldr	r2, [r3, #16]
 80058cc:	68fb      	ldr	r3, [r7, #12]
 80058ce:	695b      	ldr	r3, [r3, #20]
 80058d0:	429a      	cmp	r2, r3
 80058d2:	d811      	bhi.n	80058f8 <PCD_WriteEmptyTxFifo+0x10e>
  {
    fifoemptymsk = (uint32_t)(0x1UL << (epnum & EP_ADDR_MSK));
 80058d4:	683b      	ldr	r3, [r7, #0]
 80058d6:	f003 030f 	and.w	r3, r3, #15
 80058da:	2201      	movs	r2, #1
 80058dc:	fa02 f303 	lsl.w	r3, r2, r3
 80058e0:	60bb      	str	r3, [r7, #8]
    USBx_DEVICE->DIEPEMPMSK &= ~fifoemptymsk;
 80058e2:	693b      	ldr	r3, [r7, #16]
 80058e4:	f503 6300 	add.w	r3, r3, #2048	@ 0x800
 80058e8:	6b5a      	ldr	r2, [r3, #52]	@ 0x34
 80058ea:	68bb      	ldr	r3, [r7, #8]
 80058ec:	43db      	mvns	r3, r3
 80058ee:	6939      	ldr	r1, [r7, #16]
 80058f0:	f501 6100 	add.w	r1, r1, #2048	@ 0x800
 80058f4:	4013      	ands	r3, r2
 80058f6:	634b      	str	r3, [r1, #52]	@ 0x34
  }

  return HAL_OK;
 80058f8:	2300      	movs	r3, #0
}
 80058fa:	4618      	mov	r0, r3
 80058fc:	3720      	adds	r7, #32
 80058fe:	46bd      	mov	sp, r7
 8005900:	bd80      	pop	{r7, pc}
	...

08005904 <PCD_EP_OutXfrComplete_int>:
  * @param  hpcd PCD handle
  * @param  epnum endpoint number
  * @retval HAL status
  */
static HAL_StatusTypeDef PCD_EP_OutXfrComplete_int(PCD_HandleTypeDef *hpcd, uint32_t epnum)
{
 8005904:	b580      	push	{r7, lr}
 8005906:	b088      	sub	sp, #32
 8005908:	af00      	add	r7, sp, #0
 800590a:	6078      	str	r0, [r7, #4]
 800590c:	6039      	str	r1, [r7, #0]
  USB_OTG_EPTypeDef *ep;
  const USB_OTG_GlobalTypeDef *USBx = hpcd->Instance;
 800590e:	687b      	ldr	r3, [r7, #4]
 8005910:	681b      	ldr	r3, [r3, #0]
 8005912:	61fb      	str	r3, [r7, #28]
  uint32_t USBx_BASE = (uint32_t)USBx;
 8005914:	69fb      	ldr	r3, [r7, #28]
 8005916:	61bb      	str	r3, [r7, #24]
  uint32_t gSNPSiD = *(__IO const uint32_t *)(&USBx->CID + 0x1U);
 8005918:	69fb      	ldr	r3, [r7, #28]
 800591a:	333c      	adds	r3, #60	@ 0x3c
 800591c:	3304      	adds	r3, #4
 800591e:	681b      	ldr	r3, [r3, #0]
 8005920:	617b      	str	r3, [r7, #20]
  uint32_t DoepintReg = USBx_OUTEP(epnum)->DOEPINT;
 8005922:	683b      	ldr	r3, [r7, #0]
 8005924:	015a      	lsls	r2, r3, #5
 8005926:	69bb      	ldr	r3, [r7, #24]
 8005928:	4413      	add	r3, r2
 800592a:	f503 6330 	add.w	r3, r3, #2816	@ 0xb00
 800592e:	689b      	ldr	r3, [r3, #8]
 8005930:	613b      	str	r3, [r7, #16]

  if (hpcd->Init.dma_enable == 1U)
 8005932:	687b      	ldr	r3, [r7, #4]
 8005934:	799b      	ldrb	r3, [r3, #6]
 8005936:	2b01      	cmp	r3, #1
 8005938:	d17b      	bne.n	8005a32 <PCD_EP_OutXfrComplete_int+0x12e>
  {
    if ((DoepintReg & USB_OTG_DOEPINT_STUP) == USB_OTG_DOEPINT_STUP) /* Class C */
 800593a:	693b      	ldr	r3, [r7, #16]
 800593c:	f003 0308 	and.w	r3, r3, #8
 8005940:	2b00      	cmp	r3, #0
 8005942:	d015      	beq.n	8005970 <PCD_EP_OutXfrComplete_int+0x6c>
    {
      /* StupPktRcvd = 1 this is a setup packet */
      if ((gSNPSiD > USB_OTG_CORE_ID_300A) &&
 8005944:	697b      	ldr	r3, [r7, #20]
 8005946:	4a61      	ldr	r2, [pc, #388]	@ (8005acc <PCD_EP_OutXfrComplete_int+0x1c8>)
 8005948:	4293      	cmp	r3, r2
 800594a:	f240 80b9 	bls.w	8005ac0 <PCD_EP_OutXfrComplete_int+0x1bc>
          ((DoepintReg & USB_OTG_DOEPINT_STPKTRX) == USB_OTG_DOEPINT_STPKTRX))
 800594e:	693b      	ldr	r3, [r7, #16]
 8005950:	f403 4300 	and.w	r3, r3, #32768	@ 0x8000
      if ((gSNPSiD > USB_OTG_CORE_ID_300A) &&
 8005954:	2b00      	cmp	r3, #0
 8005956:	f000 80b3 	beq.w	8005ac0 <PCD_EP_OutXfrComplete_int+0x1bc>
      {
        CLEAR_OUT_EP_INTR(epnum, USB_OTG_DOEPINT_STPKTRX);
 800595a:	683b      	ldr	r3, [r7, #0]
 800595c:	015a      	lsls	r2, r3, #5
 800595e:	69bb      	ldr	r3, [r7, #24]
 8005960:	4413      	add	r3, r2
 8005962:	f503 6330 	add.w	r3, r3, #2816	@ 0xb00
 8005966:	461a      	mov	r2, r3
 8005968:	f44f 4300 	mov.w	r3, #32768	@ 0x8000
 800596c:	6093      	str	r3, [r2, #8]
 800596e:	e0a7      	b.n	8005ac0 <PCD_EP_OutXfrComplete_int+0x1bc>
      }
    }
    else if ((DoepintReg & USB_OTG_DOEPINT_OTEPSPR) == USB_OTG_DOEPINT_OTEPSPR) /* Class E */
 8005970:	693b      	ldr	r3, [r7, #16]
 8005972:	f003 0320 	and.w	r3, r3, #32
 8005976:	2b00      	cmp	r3, #0
 8005978:	d009      	beq.n	800598e <PCD_EP_OutXfrComplete_int+0x8a>
    {
      CLEAR_OUT_EP_INTR(epnum, USB_OTG_DOEPINT_OTEPSPR);
 800597a:	683b      	ldr	r3, [r7, #0]
 800597c:	015a      	lsls	r2, r3, #5
 800597e:	69bb      	ldr	r3, [r7, #24]
 8005980:	4413      	add	r3, r2
 8005982:	f503 6330 	add.w	r3, r3, #2816	@ 0xb00
 8005986:	461a      	mov	r2, r3
 8005988:	2320      	movs	r3, #32
 800598a:	6093      	str	r3, [r2, #8]
 800598c:	e098      	b.n	8005ac0 <PCD_EP_OutXfrComplete_int+0x1bc>
    }
    else if ((DoepintReg & (USB_OTG_DOEPINT_STUP | USB_OTG_DOEPINT_OTEPSPR)) == 0U)
 800598e:	693b      	ldr	r3, [r7, #16]
 8005990:	f003 0328 	and.w	r3, r3, #40	@ 0x28
 8005994:	2b00      	cmp	r3, #0
 8005996:	f040 8093 	bne.w	8005ac0 <PCD_EP_OutXfrComplete_int+0x1bc>
    {
      /* StupPktRcvd = 1 this is a setup packet */
      if ((gSNPSiD > USB_OTG_CORE_ID_300A) &&
 800599a:	697b      	ldr	r3, [r7, #20]
 800599c:	4a4b      	ldr	r2, [pc, #300]	@ (8005acc <PCD_EP_OutXfrComplete_int+0x1c8>)
 800599e:	4293      	cmp	r3, r2
 80059a0:	d90f      	bls.n	80059c2 <PCD_EP_OutXfrComplete_int+0xbe>
          ((DoepintReg & USB_OTG_DOEPINT_STPKTRX) == USB_OTG_DOEPINT_STPKTRX))
 80059a2:	693b      	ldr	r3, [r7, #16]
 80059a4:	f403 4300 	and.w	r3, r3, #32768	@ 0x8000
      if ((gSNPSiD > USB_OTG_CORE_ID_300A) &&
 80059a8:	2b00      	cmp	r3, #0
 80059aa:	d00a      	beq.n	80059c2 <PCD_EP_OutXfrComplete_int+0xbe>
      {
        CLEAR_OUT_EP_INTR(epnum, USB_OTG_DOEPINT_STPKTRX);
 80059ac:	683b      	ldr	r3, [r7, #0]
 80059ae:	015a      	lsls	r2, r3, #5
 80059b0:	69bb      	ldr	r3, [r7, #24]
 80059b2:	4413      	add	r3, r2
 80059b4:	f503 6330 	add.w	r3, r3, #2816	@ 0xb00
 80059b8:	461a      	mov	r2, r3
 80059ba:	f44f 4300 	mov.w	r3, #32768	@ 0x8000
 80059be:	6093      	str	r3, [r2, #8]
 80059c0:	e07e      	b.n	8005ac0 <PCD_EP_OutXfrComplete_int+0x1bc>
      }
      else
      {
        ep = &hpcd->OUT_ep[epnum];
 80059c2:	683a      	ldr	r2, [r7, #0]
 80059c4:	4613      	mov	r3, r2
 80059c6:	00db      	lsls	r3, r3, #3
 80059c8:	4413      	add	r3, r2
 80059ca:	009b      	lsls	r3, r3, #2
 80059cc:	f503 7314 	add.w	r3, r3, #592	@ 0x250
 80059d0:	687a      	ldr	r2, [r7, #4]
 80059d2:	4413      	add	r3, r2
 80059d4:	3304      	adds	r3, #4
 80059d6:	60fb      	str	r3, [r7, #12]

        /* out data packet received over EP */
        ep->xfer_count = ep->xfer_size - (USBx_OUTEP(epnum)->DOEPTSIZ & USB_OTG_DOEPTSIZ_XFRSIZ);
 80059d8:	68fb      	ldr	r3, [r7, #12]
 80059da:	6a1a      	ldr	r2, [r3, #32]
 80059dc:	683b      	ldr	r3, [r7, #0]
 80059de:	0159      	lsls	r1, r3, #5
 80059e0:	69bb      	ldr	r3, [r7, #24]
 80059e2:	440b      	add	r3, r1
 80059e4:	f503 6330 	add.w	r3, r3, #2816	@ 0xb00
 80059e8:	691b      	ldr	r3, [r3, #16]
 80059ea:	f3c3 0312 	ubfx	r3, r3, #0, #19
 80059ee:	1ad2      	subs	r2, r2, r3
 80059f0:	68fb      	ldr	r3, [r7, #12]
 80059f2:	615a      	str	r2, [r3, #20]

        if (epnum == 0U)
 80059f4:	683b      	ldr	r3, [r7, #0]
 80059f6:	2b00      	cmp	r3, #0
 80059f8:	d114      	bne.n	8005a24 <PCD_EP_OutXfrComplete_int+0x120>
        {
          if (ep->xfer_len == 0U)
 80059fa:	68fb      	ldr	r3, [r7, #12]
 80059fc:	691b      	ldr	r3, [r3, #16]
 80059fe:	2b00      	cmp	r3, #0
 8005a00:	d109      	bne.n	8005a16 <PCD_EP_OutXfrComplete_int+0x112>
          {
            /* this is ZLP, so prepare EP0 for next setup */
            (void)USB_EP0_OutStart(hpcd->Instance, 1U, (uint8_t *)hpcd->Setup);
 8005a02:	687b      	ldr	r3, [r7, #4]
 8005a04:	6818      	ldr	r0, [r3, #0]
 8005a06:	687b      	ldr	r3, [r7, #4]
 8005a08:	f203 439c 	addw	r3, r3, #1180	@ 0x49c
 8005a0c:	461a      	mov	r2, r3
 8005a0e:	2101      	movs	r1, #1
 8005a10:	f002 faa8 	bl	8007f64 <USB_EP0_OutStart>
 8005a14:	e006      	b.n	8005a24 <PCD_EP_OutXfrComplete_int+0x120>
          }
          else
          {
            ep->xfer_buff += ep->xfer_count;
 8005a16:	68fb      	ldr	r3, [r7, #12]
 8005a18:	68da      	ldr	r2, [r3, #12]
 8005a1a:	68fb      	ldr	r3, [r7, #12]
 8005a1c:	695b      	ldr	r3, [r3, #20]
 8005a1e:	441a      	add	r2, r3
 8005a20:	68fb      	ldr	r3, [r7, #12]
 8005a22:	60da      	str	r2, [r3, #12]
        }

#if (USE_HAL_PCD_REGISTER_CALLBACKS == 1U)
        hpcd->DataOutStageCallback(hpcd, (uint8_t)epnum);
#else
        HAL_PCD_DataOutStageCallback(hpcd, (uint8_t)epnum);
 8005a24:	683b      	ldr	r3, [r7, #0]
 8005a26:	b2db      	uxtb	r3, r3
 8005a28:	4619      	mov	r1, r3
 8005a2a:	6878      	ldr	r0, [r7, #4]
 8005a2c:	f7fe f8c6 	bl	8003bbc <HAL_PCD_DataOutStageCallback>
 8005a30:	e046      	b.n	8005ac0 <PCD_EP_OutXfrComplete_int+0x1bc>
      /* ... */
    }
  }
  else
  {
    if (gSNPSiD == USB_OTG_CORE_ID_310A)
 8005a32:	697b      	ldr	r3, [r7, #20]
 8005a34:	4a26      	ldr	r2, [pc, #152]	@ (8005ad0 <PCD_EP_OutXfrComplete_int+0x1cc>)
 8005a36:	4293      	cmp	r3, r2
 8005a38:	d124      	bne.n	8005a84 <PCD_EP_OutXfrComplete_int+0x180>
    {
      /* StupPktRcvd = 1 this is a setup packet */
      if ((DoepintReg & USB_OTG_DOEPINT_STPKTRX) == USB_OTG_DOEPINT_STPKTRX)
 8005a3a:	693b      	ldr	r3, [r7, #16]
 8005a3c:	f403 4300 	and.w	r3, r3, #32768	@ 0x8000
 8005a40:	2b00      	cmp	r3, #0
 8005a42:	d00a      	beq.n	8005a5a <PCD_EP_OutXfrComplete_int+0x156>
      {
        CLEAR_OUT_EP_INTR(epnum, USB_OTG_DOEPINT_STPKTRX);
 8005a44:	683b      	ldr	r3, [r7, #0]
 8005a46:	015a      	lsls	r2, r3, #5
 8005a48:	69bb      	ldr	r3, [r7, #24]
 8005a4a:	4413      	add	r3, r2
 8005a4c:	f503 6330 	add.w	r3, r3, #2816	@ 0xb00
 8005a50:	461a      	mov	r2, r3
 8005a52:	f44f 4300 	mov.w	r3, #32768	@ 0x8000
 8005a56:	6093      	str	r3, [r2, #8]
 8005a58:	e032      	b.n	8005ac0 <PCD_EP_OutXfrComplete_int+0x1bc>
      }
      else
      {
        if ((DoepintReg & USB_OTG_DOEPINT_OTEPSPR) == USB_OTG_DOEPINT_OTEPSPR)
 8005a5a:	693b      	ldr	r3, [r7, #16]
 8005a5c:	f003 0320 	and.w	r3, r3, #32
 8005a60:	2b00      	cmp	r3, #0
 8005a62:	d008      	beq.n	8005a76 <PCD_EP_OutXfrComplete_int+0x172>
        {
          CLEAR_OUT_EP_INTR(epnum, USB_OTG_DOEPINT_OTEPSPR);
 8005a64:	683b      	ldr	r3, [r7, #0]
 8005a66:	015a      	lsls	r2, r3, #5
 8005a68:	69bb      	ldr	r3, [r7, #24]
 8005a6a:	4413      	add	r3, r2
 8005a6c:	f503 6330 	add.w	r3, r3, #2816	@ 0xb00
 8005a70:	461a      	mov	r2, r3
 8005a72:	2320      	movs	r3, #32
 8005a74:	6093      	str	r3, [r2, #8]
        }

#if (USE_HAL_PCD_REGISTER_CALLBACKS == 1U)
        hpcd->DataOutStageCallback(hpcd, (uint8_t)epnum);
#else
        HAL_PCD_DataOutStageCallback(hpcd, (uint8_t)epnum);
 8005a76:	683b      	ldr	r3, [r7, #0]
 8005a78:	b2db      	uxtb	r3, r3
 8005a7a:	4619      	mov	r1, r3
 8005a7c:	6878      	ldr	r0, [r7, #4]
 8005a7e:	f7fe f89d 	bl	8003bbc <HAL_PCD_DataOutStageCallback>
 8005a82:	e01d      	b.n	8005ac0 <PCD_EP_OutXfrComplete_int+0x1bc>
#endif /* USE_HAL_PCD_REGISTER_CALLBACKS */
      }
    }
    else
    {
      if ((epnum == 0U) && (hpcd->OUT_ep[epnum].xfer_len == 0U))
 8005a84:	683b      	ldr	r3, [r7, #0]
 8005a86:	2b00      	cmp	r3, #0
 8005a88:	d114      	bne.n	8005ab4 <PCD_EP_OutXfrComplete_int+0x1b0>
 8005a8a:	6879      	ldr	r1, [r7, #4]
 8005a8c:	683a      	ldr	r2, [r7, #0]
 8005a8e:	4613      	mov	r3, r2
 8005a90:	00db      	lsls	r3, r3, #3
 8005a92:	4413      	add	r3, r2
 8005a94:	009b      	lsls	r3, r3, #2
 8005a96:	440b      	add	r3, r1
 8005a98:	f503 7319 	add.w	r3, r3, #612	@ 0x264
 8005a9c:	681b      	ldr	r3, [r3, #0]
 8005a9e:	2b00      	cmp	r3, #0
 8005aa0:	d108      	bne.n	8005ab4 <PCD_EP_OutXfrComplete_int+0x1b0>
      {
        /* this is ZLP, so prepare EP0 for next setup */
        (void)USB_EP0_OutStart(hpcd->Instance, 0U, (uint8_t *)hpcd->Setup);
 8005aa2:	687b      	ldr	r3, [r7, #4]
 8005aa4:	6818      	ldr	r0, [r3, #0]
 8005aa6:	687b      	ldr	r3, [r7, #4]
 8005aa8:	f203 439c 	addw	r3, r3, #1180	@ 0x49c
 8005aac:	461a      	mov	r2, r3
 8005aae:	2100      	movs	r1, #0
 8005ab0:	f002 fa58 	bl	8007f64 <USB_EP0_OutStart>
      }

#if (USE_HAL_PCD_REGISTER_CALLBACKS == 1U)
      hpcd->DataOutStageCallback(hpcd, (uint8_t)epnum);
#else
      HAL_PCD_DataOutStageCallback(hpcd, (uint8_t)epnum);
 8005ab4:	683b      	ldr	r3, [r7, #0]
 8005ab6:	b2db      	uxtb	r3, r3
 8005ab8:	4619      	mov	r1, r3
 8005aba:	6878      	ldr	r0, [r7, #4]
 8005abc:	f7fe f87e 	bl	8003bbc <HAL_PCD_DataOutStageCallback>
#endif /* USE_HAL_PCD_REGISTER_CALLBACKS */
    }
  }

  return HAL_OK;
 8005ac0:	2300      	movs	r3, #0
}
 8005ac2:	4618      	mov	r0, r3
 8005ac4:	3720      	adds	r7, #32
 8005ac6:	46bd      	mov	sp, r7
 8005ac8:	bd80      	pop	{r7, pc}
 8005aca:	bf00      	nop
 8005acc:	4f54300a 	.word	0x4f54300a
 8005ad0:	4f54310a 	.word	0x4f54310a

08005ad4 <PCD_EP_OutSetupPacket_int>:
  * @param  hpcd PCD handle
  * @param  epnum endpoint number
  * @retval HAL status
  */
static HAL_StatusTypeDef PCD_EP_OutSetupPacket_int(PCD_HandleTypeDef *hpcd, uint32_t epnum)
{
 8005ad4:	b580      	push	{r7, lr}
 8005ad6:	b086      	sub	sp, #24
 8005ad8:	af00      	add	r7, sp, #0
 8005ada:	6078      	str	r0, [r7, #4]
 8005adc:	6039      	str	r1, [r7, #0]
  const USB_OTG_GlobalTypeDef *USBx = hpcd->Instance;
 8005ade:	687b      	ldr	r3, [r7, #4]
 8005ae0:	681b      	ldr	r3, [r3, #0]
 8005ae2:	617b      	str	r3, [r7, #20]
  uint32_t USBx_BASE = (uint32_t)USBx;
 8005ae4:	697b      	ldr	r3, [r7, #20]
 8005ae6:	613b      	str	r3, [r7, #16]
  uint32_t gSNPSiD = *(__IO const uint32_t *)(&USBx->CID + 0x1U);
 8005ae8:	697b      	ldr	r3, [r7, #20]
 8005aea:	333c      	adds	r3, #60	@ 0x3c
 8005aec:	3304      	adds	r3, #4
 8005aee:	681b      	ldr	r3, [r3, #0]
 8005af0:	60fb      	str	r3, [r7, #12]
  uint32_t DoepintReg = USBx_OUTEP(epnum)->DOEPINT;
 8005af2:	683b      	ldr	r3, [r7, #0]
 8005af4:	015a      	lsls	r2, r3, #5
 8005af6:	693b      	ldr	r3, [r7, #16]
 8005af8:	4413      	add	r3, r2
 8005afa:	f503 6330 	add.w	r3, r3, #2816	@ 0xb00
 8005afe:	689b      	ldr	r3, [r3, #8]
 8005b00:	60bb      	str	r3, [r7, #8]

  if ((gSNPSiD > USB_OTG_CORE_ID_300A) &&
 8005b02:	68fb      	ldr	r3, [r7, #12]
 8005b04:	4a15      	ldr	r2, [pc, #84]	@ (8005b5c <PCD_EP_OutSetupPacket_int+0x88>)
 8005b06:	4293      	cmp	r3, r2
 8005b08:	d90e      	bls.n	8005b28 <PCD_EP_OutSetupPacket_int+0x54>
      ((DoepintReg & USB_OTG_DOEPINT_STPKTRX) == USB_OTG_DOEPINT_STPKTRX))
 8005b0a:	68bb      	ldr	r3, [r7, #8]
 8005b0c:	f403 4300 	and.w	r3, r3, #32768	@ 0x8000
  if ((gSNPSiD > USB_OTG_CORE_ID_300A) &&
 8005b10:	2b00      	cmp	r3, #0
 8005b12:	d009      	beq.n	8005b28 <PCD_EP_OutSetupPacket_int+0x54>
  {
    CLEAR_OUT_EP_INTR(epnum, USB_OTG_DOEPINT_STPKTRX);
 8005b14:	683b      	ldr	r3, [r7, #0]
 8005b16:	015a      	lsls	r2, r3, #5
 8005b18:	693b      	ldr	r3, [r7, #16]
 8005b1a:	4413      	add	r3, r2
 8005b1c:	f503 6330 	add.w	r3, r3, #2816	@ 0xb00
 8005b20:	461a      	mov	r2, r3
 8005b22:	f44f 4300 	mov.w	r3, #32768	@ 0x8000
 8005b26:	6093      	str	r3, [r2, #8]

  /* Inform the upper layer that a setup packet is available */
#if (USE_HAL_PCD_REGISTER_CALLBACKS == 1U)
  hpcd->SetupStageCallback(hpcd);
#else
  HAL_PCD_SetupStageCallback(hpcd);
 8005b28:	6878      	ldr	r0, [r7, #4]
 8005b2a:	f7fd ff09 	bl	8003940 <HAL_PCD_SetupStageCallback>
#endif /* USE_HAL_PCD_REGISTER_CALLBACKS */

  if ((gSNPSiD > USB_OTG_CORE_ID_300A) && (hpcd->Init.dma_enable == 1U))
 8005b2e:	68fb      	ldr	r3, [r7, #12]
 8005b30:	4a0a      	ldr	r2, [pc, #40]	@ (8005b5c <PCD_EP_OutSetupPacket_int+0x88>)
 8005b32:	4293      	cmp	r3, r2
 8005b34:	d90c      	bls.n	8005b50 <PCD_EP_OutSetupPacket_int+0x7c>
 8005b36:	687b      	ldr	r3, [r7, #4]
 8005b38:	799b      	ldrb	r3, [r3, #6]
 8005b3a:	2b01      	cmp	r3, #1
 8005b3c:	d108      	bne.n	8005b50 <PCD_EP_OutSetupPacket_int+0x7c>
  {
    (void)USB_EP0_OutStart(hpcd->Instance, 1U, (uint8_t *)hpcd->Setup);
 8005b3e:	687b      	ldr	r3, [r7, #4]
 8005b40:	6818      	ldr	r0, [r3, #0]
 8005b42:	687b      	ldr	r3, [r7, #4]
 8005b44:	f203 439c 	addw	r3, r3, #1180	@ 0x49c
 8005b48:	461a      	mov	r2, r3
 8005b4a:	2101      	movs	r1, #1
 8005b4c:	f002 fa0a 	bl	8007f64 <USB_EP0_OutStart>
  }

  return HAL_OK;
 8005b50:	2300      	movs	r3, #0
}
 8005b52:	4618      	mov	r0, r3
 8005b54:	3718      	adds	r7, #24
 8005b56:	46bd      	mov	sp, r7
 8005b58:	bd80      	pop	{r7, pc}
 8005b5a:	bf00      	nop
 8005b5c:	4f54300a 	.word	0x4f54300a

08005b60 <HAL_PCDEx_SetTxFiFo>:
  * @param  fifo The number of Tx fifo
  * @param  size Fifo size
  * @retval HAL status
  */
HAL_StatusTypeDef HAL_PCDEx_SetTxFiFo(PCD_HandleTypeDef *hpcd, uint8_t fifo, uint16_t size)
{
 8005b60:	b480      	push	{r7}
 8005b62:	b085      	sub	sp, #20
 8005b64:	af00      	add	r7, sp, #0
 8005b66:	6078      	str	r0, [r7, #4]
 8005b68:	460b      	mov	r3, r1
 8005b6a:	70fb      	strb	r3, [r7, #3]
 8005b6c:	4613      	mov	r3, r2
 8005b6e:	803b      	strh	r3, [r7, #0]
         --> Txn should be configured with the minimum space of 16 words
     The FIFO is used optimally when used TxFIFOs are allocated in the top
         of the FIFO.Ex: use EP1 and EP2 as IN instead of EP1 and EP3 as IN ones.
     When DMA is used 3n * FIFO locations should be reserved for internal DMA registers */

  Tx_Offset = hpcd->Instance->GRXFSIZ;
 8005b70:	687b      	ldr	r3, [r7, #4]
 8005b72:	681b      	ldr	r3, [r3, #0]
 8005b74:	6a5b      	ldr	r3, [r3, #36]	@ 0x24
 8005b76:	60bb      	str	r3, [r7, #8]

  if (fifo == 0U)
 8005b78:	78fb      	ldrb	r3, [r7, #3]
 8005b7a:	2b00      	cmp	r3, #0
 8005b7c:	d107      	bne.n	8005b8e <HAL_PCDEx_SetTxFiFo+0x2e>
  {
    hpcd->Instance->DIEPTXF0_HNPTXFSIZ = ((uint32_t)size << 16) | Tx_Offset;
 8005b7e:	883b      	ldrh	r3, [r7, #0]
 8005b80:	0419      	lsls	r1, r3, #16
 8005b82:	687b      	ldr	r3, [r7, #4]
 8005b84:	681b      	ldr	r3, [r3, #0]
 8005b86:	68ba      	ldr	r2, [r7, #8]
 8005b88:	430a      	orrs	r2, r1
 8005b8a:	629a      	str	r2, [r3, #40]	@ 0x28
 8005b8c:	e028      	b.n	8005be0 <HAL_PCDEx_SetTxFiFo+0x80>
  }
  else
  {
    Tx_Offset += (hpcd->Instance->DIEPTXF0_HNPTXFSIZ) >> 16;
 8005b8e:	687b      	ldr	r3, [r7, #4]
 8005b90:	681b      	ldr	r3, [r3, #0]
 8005b92:	6a9b      	ldr	r3, [r3, #40]	@ 0x28
 8005b94:	0c1b      	lsrs	r3, r3, #16
 8005b96:	68ba      	ldr	r2, [r7, #8]
 8005b98:	4413      	add	r3, r2
 8005b9a:	60bb      	str	r3, [r7, #8]
    for (i = 0U; i < (fifo - 1U); i++)
 8005b9c:	2300      	movs	r3, #0
 8005b9e:	73fb      	strb	r3, [r7, #15]
 8005ba0:	e00d      	b.n	8005bbe <HAL_PCDEx_SetTxFiFo+0x5e>
    {
      Tx_Offset += (hpcd->Instance->DIEPTXF[i] >> 16);
 8005ba2:	687b      	ldr	r3, [r7, #4]
 8005ba4:	681a      	ldr	r2, [r3, #0]
 8005ba6:	7bfb      	ldrb	r3, [r7, #15]
 8005ba8:	3340      	adds	r3, #64	@ 0x40
 8005baa:	009b      	lsls	r3, r3, #2
 8005bac:	4413      	add	r3, r2
 8005bae:	685b      	ldr	r3, [r3, #4]
 8005bb0:	0c1b      	lsrs	r3, r3, #16
 8005bb2:	68ba      	ldr	r2, [r7, #8]
 8005bb4:	4413      	add	r3, r2
 8005bb6:	60bb      	str	r3, [r7, #8]
    for (i = 0U; i < (fifo - 1U); i++)
 8005bb8:	7bfb      	ldrb	r3, [r7, #15]
 8005bba:	3301      	adds	r3, #1
 8005bbc:	73fb      	strb	r3, [r7, #15]
 8005bbe:	7bfa      	ldrb	r2, [r7, #15]
 8005bc0:	78fb      	ldrb	r3, [r7, #3]
 8005bc2:	3b01      	subs	r3, #1
 8005bc4:	429a      	cmp	r2, r3
 8005bc6:	d3ec      	bcc.n	8005ba2 <HAL_PCDEx_SetTxFiFo+0x42>
    }

    /* Multiply Tx_Size by 2 to get higher performance */
    hpcd->Instance->DIEPTXF[fifo - 1U] = ((uint32_t)size << 16) | Tx_Offset;
 8005bc8:	883b      	ldrh	r3, [r7, #0]
 8005bca:	0418      	lsls	r0, r3, #16
 8005bcc:	687b      	ldr	r3, [r7, #4]
 8005bce:	6819      	ldr	r1, [r3, #0]
 8005bd0:	78fb      	ldrb	r3, [r7, #3]
 8005bd2:	3b01      	subs	r3, #1
 8005bd4:	68ba      	ldr	r2, [r7, #8]
 8005bd6:	4302      	orrs	r2, r0
 8005bd8:	3340      	adds	r3, #64	@ 0x40
 8005bda:	009b      	lsls	r3, r3, #2
 8005bdc:	440b      	add	r3, r1
 8005bde:	605a      	str	r2, [r3, #4]
  }

  return HAL_OK;
 8005be0:	2300      	movs	r3, #0
}
 8005be2:	4618      	mov	r0, r3
 8005be4:	3714      	adds	r7, #20
 8005be6:	46bd      	mov	sp, r7
 8005be8:	f85d 7b04 	ldr.w	r7, [sp], #4
 8005bec:	4770      	bx	lr

08005bee <HAL_PCDEx_SetRxFiFo>:
  * @param  hpcd PCD handle
  * @param  size Size of Rx fifo
  * @retval HAL status
  */
HAL_StatusTypeDef HAL_PCDEx_SetRxFiFo(PCD_HandleTypeDef *hpcd, uint16_t size)
{
 8005bee:	b480      	push	{r7}
 8005bf0:	b083      	sub	sp, #12
 8005bf2:	af00      	add	r7, sp, #0
 8005bf4:	6078      	str	r0, [r7, #4]
 8005bf6:	460b      	mov	r3, r1
 8005bf8:	807b      	strh	r3, [r7, #2]
  hpcd->Instance->GRXFSIZ = size;
 8005bfa:	687b      	ldr	r3, [r7, #4]
 8005bfc:	681b      	ldr	r3, [r3, #0]
 8005bfe:	887a      	ldrh	r2, [r7, #2]
 8005c00:	625a      	str	r2, [r3, #36]	@ 0x24

  return HAL_OK;
 8005c02:	2300      	movs	r3, #0
}
 8005c04:	4618      	mov	r0, r3
 8005c06:	370c      	adds	r7, #12
 8005c08:	46bd      	mov	sp, r7
 8005c0a:	f85d 7b04 	ldr.w	r7, [sp], #4
 8005c0e:	4770      	bx	lr

08005c10 <HAL_PCDEx_LPM_Callback>:
  * @param  hpcd PCD handle
  * @param  msg LPM message
  * @retval HAL status
  */
__weak void HAL_PCDEx_LPM_Callback(PCD_HandleTypeDef *hpcd, PCD_LPM_MsgTypeDef msg)
{
 8005c10:	b480      	push	{r7}
 8005c12:	b083      	sub	sp, #12
 8005c14:	af00      	add	r7, sp, #0
 8005c16:	6078      	str	r0, [r7, #4]
 8005c18:	460b      	mov	r3, r1
 8005c1a:	70fb      	strb	r3, [r7, #3]
  UNUSED(msg);

  /* NOTE : This function should not be modified, when the callback is needed,
            the HAL_PCDEx_LPM_Callback could be implemented in the user file
   */
}
 8005c1c:	bf00      	nop
 8005c1e:	370c      	adds	r7, #12
 8005c20:	46bd      	mov	sp, r7
 8005c22:	f85d 7b04 	ldr.w	r7, [sp], #4
 8005c26:	4770      	bx	lr

08005c28 <HAL_RCC_OscConfig>:
  *         supported by this API. User should request a transition to HSE Off
  *         first and then HSE On or HSE Bypass.
  * @retval HAL status
  */
__weak HAL_StatusTypeDef HAL_RCC_OscConfig(const RCC_OscInitTypeDef  *RCC_OscInitStruct)
{
 8005c28:	b580      	push	{r7, lr}
 8005c2a:	b086      	sub	sp, #24
 8005c2c:	af00      	add	r7, sp, #0
 8005c2e:	6078      	str	r0, [r7, #4]
  uint32_t tickstart;
  uint32_t pll_config;
  /* Check Null pointer */
  if (RCC_OscInitStruct == NULL)
 8005c30:	687b      	ldr	r3, [r7, #4]
 8005c32:	2b00      	cmp	r3, #0
 8005c34:	d101      	bne.n	8005c3a <HAL_RCC_OscConfig+0x12>
  {
    return HAL_ERROR;
 8005c36:	2301      	movs	r3, #1
 8005c38:	e267      	b.n	800610a <HAL_RCC_OscConfig+0x4e2>
  }

  /* Check the parameters */
  assert_param(IS_RCC_OSCILLATORTYPE(RCC_OscInitStruct->OscillatorType));
  /*------------------------------- HSE Configuration ------------------------*/
  if (((RCC_OscInitStruct->OscillatorType) & RCC_OSCILLATORTYPE_HSE) == RCC_OSCILLATORTYPE_HSE)
 8005c3a:	687b      	ldr	r3, [r7, #4]
 8005c3c:	681b      	ldr	r3, [r3, #0]
 8005c3e:	f003 0301 	and.w	r3, r3, #1
 8005c42:	2b00      	cmp	r3, #0
 8005c44:	d075      	beq.n	8005d32 <HAL_RCC_OscConfig+0x10a>
  {
    /* Check the parameters */
    assert_param(IS_RCC_HSE(RCC_OscInitStruct->HSEState));
    /* When the HSE is used as system clock or clock source for PLL in these cases HSE will not disabled */
    if ((__HAL_RCC_GET_SYSCLK_SOURCE() == RCC_CFGR_SWS_HSE) || \
 8005c46:	4b88      	ldr	r3, [pc, #544]	@ (8005e68 <HAL_RCC_OscConfig+0x240>)
 8005c48:	689b      	ldr	r3, [r3, #8]
 8005c4a:	f003 030c 	and.w	r3, r3, #12
 8005c4e:	2b04      	cmp	r3, #4
 8005c50:	d00c      	beq.n	8005c6c <HAL_RCC_OscConfig+0x44>
        ((__HAL_RCC_GET_SYSCLK_SOURCE() == RCC_CFGR_SWS_PLL) && ((RCC->PLLCFGR & RCC_PLLCFGR_PLLSRC) == RCC_PLLCFGR_PLLSRC_HSE)))
 8005c52:	4b85      	ldr	r3, [pc, #532]	@ (8005e68 <HAL_RCC_OscConfig+0x240>)
 8005c54:	689b      	ldr	r3, [r3, #8]
 8005c56:	f003 030c 	and.w	r3, r3, #12
    if ((__HAL_RCC_GET_SYSCLK_SOURCE() == RCC_CFGR_SWS_HSE) || \
 8005c5a:	2b08      	cmp	r3, #8
 8005c5c:	d112      	bne.n	8005c84 <HAL_RCC_OscConfig+0x5c>
        ((__HAL_RCC_GET_SYSCLK_SOURCE() == RCC_CFGR_SWS_PLL) && ((RCC->PLLCFGR & RCC_PLLCFGR_PLLSRC) == RCC_PLLCFGR_PLLSRC_HSE)))
 8005c5e:	4b82      	ldr	r3, [pc, #520]	@ (8005e68 <HAL_RCC_OscConfig+0x240>)
 8005c60:	685b      	ldr	r3, [r3, #4]
 8005c62:	f403 0380 	and.w	r3, r3, #4194304	@ 0x400000
 8005c66:	f5b3 0f80 	cmp.w	r3, #4194304	@ 0x400000
 8005c6a:	d10b      	bne.n	8005c84 <HAL_RCC_OscConfig+0x5c>
    {
      if ((__HAL_RCC_GET_FLAG(RCC_FLAG_HSERDY) != RESET) && (RCC_OscInitStruct->HSEState == RCC_HSE_OFF))
 8005c6c:	4b7e      	ldr	r3, [pc, #504]	@ (8005e68 <HAL_RCC_OscConfig+0x240>)
 8005c6e:	681b      	ldr	r3, [r3, #0]
 8005c70:	f403 3300 	and.w	r3, r3, #131072	@ 0x20000
 8005c74:	2b00      	cmp	r3, #0
 8005c76:	d05b      	beq.n	8005d30 <HAL_RCC_OscConfig+0x108>
 8005c78:	687b      	ldr	r3, [r7, #4]
 8005c7a:	685b      	ldr	r3, [r3, #4]
 8005c7c:	2b00      	cmp	r3, #0
 8005c7e:	d157      	bne.n	8005d30 <HAL_RCC_OscConfig+0x108>
      {
        return HAL_ERROR;
 8005c80:	2301      	movs	r3, #1
 8005c82:	e242      	b.n	800610a <HAL_RCC_OscConfig+0x4e2>
      }
    }
    else
    {
      /* Set the new HSE configuration ---------------------------------------*/
      __HAL_RCC_HSE_CONFIG(RCC_OscInitStruct->HSEState);
 8005c84:	687b      	ldr	r3, [r7, #4]
 8005c86:	685b      	ldr	r3, [r3, #4]
 8005c88:	f5b3 3f80 	cmp.w	r3, #65536	@ 0x10000
 8005c8c:	d106      	bne.n	8005c9c <HAL_RCC_OscConfig+0x74>
 8005c8e:	4b76      	ldr	r3, [pc, #472]	@ (8005e68 <HAL_RCC_OscConfig+0x240>)
 8005c90:	681b      	ldr	r3, [r3, #0]
 8005c92:	4a75      	ldr	r2, [pc, #468]	@ (8005e68 <HAL_RCC_OscConfig+0x240>)
 8005c94:	f443 3380 	orr.w	r3, r3, #65536	@ 0x10000
 8005c98:	6013      	str	r3, [r2, #0]
 8005c9a:	e01d      	b.n	8005cd8 <HAL_RCC_OscConfig+0xb0>
 8005c9c:	687b      	ldr	r3, [r7, #4]
 8005c9e:	685b      	ldr	r3, [r3, #4]
 8005ca0:	f5b3 2fa0 	cmp.w	r3, #327680	@ 0x50000
 8005ca4:	d10c      	bne.n	8005cc0 <HAL_RCC_OscConfig+0x98>
 8005ca6:	4b70      	ldr	r3, [pc, #448]	@ (8005e68 <HAL_RCC_OscConfig+0x240>)
 8005ca8:	681b      	ldr	r3, [r3, #0]
 8005caa:	4a6f      	ldr	r2, [pc, #444]	@ (8005e68 <HAL_RCC_OscConfig+0x240>)
 8005cac:	f443 2380 	orr.w	r3, r3, #262144	@ 0x40000
 8005cb0:	6013      	str	r3, [r2, #0]
 8005cb2:	4b6d      	ldr	r3, [pc, #436]	@ (8005e68 <HAL_RCC_OscConfig+0x240>)
 8005cb4:	681b      	ldr	r3, [r3, #0]
 8005cb6:	4a6c      	ldr	r2, [pc, #432]	@ (8005e68 <HAL_RCC_OscConfig+0x240>)
 8005cb8:	f443 3380 	orr.w	r3, r3, #65536	@ 0x10000
 8005cbc:	6013      	str	r3, [r2, #0]
 8005cbe:	e00b      	b.n	8005cd8 <HAL_RCC_OscConfig+0xb0>
 8005cc0:	4b69      	ldr	r3, [pc, #420]	@ (8005e68 <HAL_RCC_OscConfig+0x240>)
 8005cc2:	681b      	ldr	r3, [r3, #0]
 8005cc4:	4a68      	ldr	r2, [pc, #416]	@ (8005e68 <HAL_RCC_OscConfig+0x240>)
 8005cc6:	f423 3380 	bic.w	r3, r3, #65536	@ 0x10000
 8005cca:	6013      	str	r3, [r2, #0]
 8005ccc:	4b66      	ldr	r3, [pc, #408]	@ (8005e68 <HAL_RCC_OscConfig+0x240>)
 8005cce:	681b      	ldr	r3, [r3, #0]
 8005cd0:	4a65      	ldr	r2, [pc, #404]	@ (8005e68 <HAL_RCC_OscConfig+0x240>)
 8005cd2:	f423 2380 	bic.w	r3, r3, #262144	@ 0x40000
 8005cd6:	6013      	str	r3, [r2, #0]

      /* Check the HSE State */
      if ((RCC_OscInitStruct->HSEState) != RCC_HSE_OFF)
 8005cd8:	687b      	ldr	r3, [r7, #4]
 8005cda:	685b      	ldr	r3, [r3, #4]
 8005cdc:	2b00      	cmp	r3, #0
 8005cde:	d013      	beq.n	8005d08 <HAL_RCC_OscConfig+0xe0>
      {
        /* Get Start Tick */
        tickstart = HAL_GetTick();
 8005ce0:	f7fe f8aa 	bl	8003e38 <HAL_GetTick>
 8005ce4:	6138      	str	r0, [r7, #16]

        /* Wait till HSE is ready */
        while (__HAL_RCC_GET_FLAG(RCC_FLAG_HSERDY) == RESET)
 8005ce6:	e008      	b.n	8005cfa <HAL_RCC_OscConfig+0xd2>
        {
          if ((HAL_GetTick() - tickstart) > HSE_TIMEOUT_VALUE)
 8005ce8:	f7fe f8a6 	bl	8003e38 <HAL_GetTick>
 8005cec:	4602      	mov	r2, r0
 8005cee:	693b      	ldr	r3, [r7, #16]
 8005cf0:	1ad3      	subs	r3, r2, r3
 8005cf2:	2b64      	cmp	r3, #100	@ 0x64
 8005cf4:	d901      	bls.n	8005cfa <HAL_RCC_OscConfig+0xd2>
          {
            return HAL_TIMEOUT;
 8005cf6:	2303      	movs	r3, #3
 8005cf8:	e207      	b.n	800610a <HAL_RCC_OscConfig+0x4e2>
        while (__HAL_RCC_GET_FLAG(RCC_FLAG_HSERDY) == RESET)
 8005cfa:	4b5b      	ldr	r3, [pc, #364]	@ (8005e68 <HAL_RCC_OscConfig+0x240>)
 8005cfc:	681b      	ldr	r3, [r3, #0]
 8005cfe:	f403 3300 	and.w	r3, r3, #131072	@ 0x20000
 8005d02:	2b00      	cmp	r3, #0
 8005d04:	d0f0      	beq.n	8005ce8 <HAL_RCC_OscConfig+0xc0>
 8005d06:	e014      	b.n	8005d32 <HAL_RCC_OscConfig+0x10a>
        }
      }
      else
      {
        /* Get Start Tick */
        tickstart = HAL_GetTick();
 8005d08:	f7fe f896 	bl	8003e38 <HAL_GetTick>
 8005d0c:	6138      	str	r0, [r7, #16]

        /* Wait till HSE is bypassed or disabled */
        while (__HAL_RCC_GET_FLAG(RCC_FLAG_HSERDY) != RESET)
 8005d0e:	e008      	b.n	8005d22 <HAL_RCC_OscConfig+0xfa>
        {
          if ((HAL_GetTick() - tickstart) > HSE_TIMEOUT_VALUE)
 8005d10:	f7fe f892 	bl	8003e38 <HAL_GetTick>
 8005d14:	4602      	mov	r2, r0
 8005d16:	693b      	ldr	r3, [r7, #16]
 8005d18:	1ad3      	subs	r3, r2, r3
 8005d1a:	2b64      	cmp	r3, #100	@ 0x64
 8005d1c:	d901      	bls.n	8005d22 <HAL_RCC_OscConfig+0xfa>
          {
            return HAL_TIMEOUT;
 8005d1e:	2303      	movs	r3, #3
 8005d20:	e1f3      	b.n	800610a <HAL_RCC_OscConfig+0x4e2>
        while (__HAL_RCC_GET_FLAG(RCC_FLAG_HSERDY) != RESET)
 8005d22:	4b51      	ldr	r3, [pc, #324]	@ (8005e68 <HAL_RCC_OscConfig+0x240>)
 8005d24:	681b      	ldr	r3, [r3, #0]
 8005d26:	f403 3300 	and.w	r3, r3, #131072	@ 0x20000
 8005d2a:	2b00      	cmp	r3, #0
 8005d2c:	d1f0      	bne.n	8005d10 <HAL_RCC_OscConfig+0xe8>
 8005d2e:	e000      	b.n	8005d32 <HAL_RCC_OscConfig+0x10a>
      if ((__HAL_RCC_GET_FLAG(RCC_FLAG_HSERDY) != RESET) && (RCC_OscInitStruct->HSEState == RCC_HSE_OFF))
 8005d30:	bf00      	nop
        }
      }
    }
  }
  /*----------------------------- HSI Configuration --------------------------*/
  if (((RCC_OscInitStruct->OscillatorType) & RCC_OSCILLATORTYPE_HSI) == RCC_OSCILLATORTYPE_HSI)
 8005d32:	687b      	ldr	r3, [r7, #4]
 8005d34:	681b      	ldr	r3, [r3, #0]
 8005d36:	f003 0302 	and.w	r3, r3, #2
 8005d3a:	2b00      	cmp	r3, #0
 8005d3c:	d063      	beq.n	8005e06 <HAL_RCC_OscConfig+0x1de>
    /* Check the parameters */
    assert_param(IS_RCC_HSI(RCC_OscInitStruct->HSIState));
    assert_param(IS_RCC_CALIBRATION_VALUE(RCC_OscInitStruct->HSICalibrationValue));

    /* Check if HSI is used as system clock or as PLL source when PLL is selected as system clock */
    if ((__HAL_RCC_GET_SYSCLK_SOURCE() == RCC_CFGR_SWS_HSI) || \
 8005d3e:	4b4a      	ldr	r3, [pc, #296]	@ (8005e68 <HAL_RCC_OscConfig+0x240>)
 8005d40:	689b      	ldr	r3, [r3, #8]
 8005d42:	f003 030c 	and.w	r3, r3, #12
 8005d46:	2b00      	cmp	r3, #0
 8005d48:	d00b      	beq.n	8005d62 <HAL_RCC_OscConfig+0x13a>
        ((__HAL_RCC_GET_SYSCLK_SOURCE() == RCC_CFGR_SWS_PLL) && ((RCC->PLLCFGR & RCC_PLLCFGR_PLLSRC) == RCC_PLLCFGR_PLLSRC_HSI)))
 8005d4a:	4b47      	ldr	r3, [pc, #284]	@ (8005e68 <HAL_RCC_OscConfig+0x240>)
 8005d4c:	689b      	ldr	r3, [r3, #8]
 8005d4e:	f003 030c 	and.w	r3, r3, #12
    if ((__HAL_RCC_GET_SYSCLK_SOURCE() == RCC_CFGR_SWS_HSI) || \
 8005d52:	2b08      	cmp	r3, #8
 8005d54:	d11c      	bne.n	8005d90 <HAL_RCC_OscConfig+0x168>
        ((__HAL_RCC_GET_SYSCLK_SOURCE() == RCC_CFGR_SWS_PLL) && ((RCC->PLLCFGR & RCC_PLLCFGR_PLLSRC) == RCC_PLLCFGR_PLLSRC_HSI)))
 8005d56:	4b44      	ldr	r3, [pc, #272]	@ (8005e68 <HAL_RCC_OscConfig+0x240>)
 8005d58:	685b      	ldr	r3, [r3, #4]
 8005d5a:	f403 0380 	and.w	r3, r3, #4194304	@ 0x400000
 8005d5e:	2b00      	cmp	r3, #0
 8005d60:	d116      	bne.n	8005d90 <HAL_RCC_OscConfig+0x168>
    {
      /* When HSI is used as system clock it will not disabled */
      if ((__HAL_RCC_GET_FLAG(RCC_FLAG_HSIRDY) != RESET) && (RCC_OscInitStruct->HSIState != RCC_HSI_ON))
 8005d62:	4b41      	ldr	r3, [pc, #260]	@ (8005e68 <HAL_RCC_OscConfig+0x240>)
 8005d64:	681b      	ldr	r3, [r3, #0]
 8005d66:	f003 0302 	and.w	r3, r3, #2
 8005d6a:	2b00      	cmp	r3, #0
 8005d6c:	d005      	beq.n	8005d7a <HAL_RCC_OscConfig+0x152>
 8005d6e:	687b      	ldr	r3, [r7, #4]
 8005d70:	68db      	ldr	r3, [r3, #12]
 8005d72:	2b01      	cmp	r3, #1
 8005d74:	d001      	beq.n	8005d7a <HAL_RCC_OscConfig+0x152>
      {
        return HAL_ERROR;
 8005d76:	2301      	movs	r3, #1
 8005d78:	e1c7      	b.n	800610a <HAL_RCC_OscConfig+0x4e2>
      }
      /* Otherwise, just the calibration is allowed */
      else
      {
        /* Adjusts the Internal High Speed oscillator (HSI) calibration value.*/
        __HAL_RCC_HSI_CALIBRATIONVALUE_ADJUST(RCC_OscInitStruct->HSICalibrationValue);
 8005d7a:	4b3b      	ldr	r3, [pc, #236]	@ (8005e68 <HAL_RCC_OscConfig+0x240>)
 8005d7c:	681b      	ldr	r3, [r3, #0]
 8005d7e:	f023 02f8 	bic.w	r2, r3, #248	@ 0xf8
 8005d82:	687b      	ldr	r3, [r7, #4]
 8005d84:	691b      	ldr	r3, [r3, #16]
 8005d86:	00db      	lsls	r3, r3, #3
 8005d88:	4937      	ldr	r1, [pc, #220]	@ (8005e68 <HAL_RCC_OscConfig+0x240>)
 8005d8a:	4313      	orrs	r3, r2
 8005d8c:	600b      	str	r3, [r1, #0]
      if ((__HAL_RCC_GET_FLAG(RCC_FLAG_HSIRDY) != RESET) && (RCC_OscInitStruct->HSIState != RCC_HSI_ON))
 8005d8e:	e03a      	b.n	8005e06 <HAL_RCC_OscConfig+0x1de>
      }
    }
    else
    {
      /* Check the HSI State */
      if ((RCC_OscInitStruct->HSIState) != RCC_HSI_OFF)
 8005d90:	687b      	ldr	r3, [r7, #4]
 8005d92:	68db      	ldr	r3, [r3, #12]
 8005d94:	2b00      	cmp	r3, #0
 8005d96:	d020      	beq.n	8005dda <HAL_RCC_OscConfig+0x1b2>
      {
        /* Enable the Internal High Speed oscillator (HSI). */
        __HAL_RCC_HSI_ENABLE();
 8005d98:	4b34      	ldr	r3, [pc, #208]	@ (8005e6c <HAL_RCC_OscConfig+0x244>)
 8005d9a:	2201      	movs	r2, #1
 8005d9c:	601a      	str	r2, [r3, #0]

        /* Get Start Tick*/
        tickstart = HAL_GetTick();
 8005d9e:	f7fe f84b 	bl	8003e38 <HAL_GetTick>
 8005da2:	6138      	str	r0, [r7, #16]

        /* Wait till HSI is ready */
        while (__HAL_RCC_GET_FLAG(RCC_FLAG_HSIRDY) == RESET)
 8005da4:	e008      	b.n	8005db8 <HAL_RCC_OscConfig+0x190>
        {
          if ((HAL_GetTick() - tickstart) > HSI_TIMEOUT_VALUE)
 8005da6:	f7fe f847 	bl	8003e38 <HAL_GetTick>
 8005daa:	4602      	mov	r2, r0
 8005dac:	693b      	ldr	r3, [r7, #16]
 8005dae:	1ad3      	subs	r3, r2, r3
 8005db0:	2b02      	cmp	r3, #2
 8005db2:	d901      	bls.n	8005db8 <HAL_RCC_OscConfig+0x190>
          {
            return HAL_TIMEOUT;
 8005db4:	2303      	movs	r3, #3
 8005db6:	e1a8      	b.n	800610a <HAL_RCC_OscConfig+0x4e2>
        while (__HAL_RCC_GET_FLAG(RCC_FLAG_HSIRDY) == RESET)
 8005db8:	4b2b      	ldr	r3, [pc, #172]	@ (8005e68 <HAL_RCC_OscConfig+0x240>)
 8005dba:	681b      	ldr	r3, [r3, #0]
 8005dbc:	f003 0302 	and.w	r3, r3, #2
 8005dc0:	2b00      	cmp	r3, #0
 8005dc2:	d0f0      	beq.n	8005da6 <HAL_RCC_OscConfig+0x17e>
          }
        }

        /* Adjusts the Internal High Speed oscillator (HSI) calibration value. */
        __HAL_RCC_HSI_CALIBRATIONVALUE_ADJUST(RCC_OscInitStruct->HSICalibrationValue);
 8005dc4:	4b28      	ldr	r3, [pc, #160]	@ (8005e68 <HAL_RCC_OscConfig+0x240>)
 8005dc6:	681b      	ldr	r3, [r3, #0]
 8005dc8:	f023 02f8 	bic.w	r2, r3, #248	@ 0xf8
 8005dcc:	687b      	ldr	r3, [r7, #4]
 8005dce:	691b      	ldr	r3, [r3, #16]
 8005dd0:	00db      	lsls	r3, r3, #3
 8005dd2:	4925      	ldr	r1, [pc, #148]	@ (8005e68 <HAL_RCC_OscConfig+0x240>)
 8005dd4:	4313      	orrs	r3, r2
 8005dd6:	600b      	str	r3, [r1, #0]
 8005dd8:	e015      	b.n	8005e06 <HAL_RCC_OscConfig+0x1de>
      }
      else
      {
        /* Disable the Internal High Speed oscillator (HSI). */
        __HAL_RCC_HSI_DISABLE();
 8005dda:	4b24      	ldr	r3, [pc, #144]	@ (8005e6c <HAL_RCC_OscConfig+0x244>)
 8005ddc:	2200      	movs	r2, #0
 8005dde:	601a      	str	r2, [r3, #0]

        /* Get Start Tick*/
        tickstart = HAL_GetTick();
 8005de0:	f7fe f82a 	bl	8003e38 <HAL_GetTick>
 8005de4:	6138      	str	r0, [r7, #16]

        /* Wait till HSI is ready */
        while (__HAL_RCC_GET_FLAG(RCC_FLAG_HSIRDY) != RESET)
 8005de6:	e008      	b.n	8005dfa <HAL_RCC_OscConfig+0x1d2>
        {
          if ((HAL_GetTick() - tickstart) > HSI_TIMEOUT_VALUE)
 8005de8:	f7fe f826 	bl	8003e38 <HAL_GetTick>
 8005dec:	4602      	mov	r2, r0
 8005dee:	693b      	ldr	r3, [r7, #16]
 8005df0:	1ad3      	subs	r3, r2, r3
 8005df2:	2b02      	cmp	r3, #2
 8005df4:	d901      	bls.n	8005dfa <HAL_RCC_OscConfig+0x1d2>
          {
            return HAL_TIMEOUT;
 8005df6:	2303      	movs	r3, #3
 8005df8:	e187      	b.n	800610a <HAL_RCC_OscConfig+0x4e2>
        while (__HAL_RCC_GET_FLAG(RCC_FLAG_HSIRDY) != RESET)
 8005dfa:	4b1b      	ldr	r3, [pc, #108]	@ (8005e68 <HAL_RCC_OscConfig+0x240>)
 8005dfc:	681b      	ldr	r3, [r3, #0]
 8005dfe:	f003 0302 	and.w	r3, r3, #2
 8005e02:	2b00      	cmp	r3, #0
 8005e04:	d1f0      	bne.n	8005de8 <HAL_RCC_OscConfig+0x1c0>
        }
      }
    }
  }
  /*------------------------------ LSI Configuration -------------------------*/
  if (((RCC_OscInitStruct->OscillatorType) & RCC_OSCILLATORTYPE_LSI) == RCC_OSCILLATORTYPE_LSI)
 8005e06:	687b      	ldr	r3, [r7, #4]
 8005e08:	681b      	ldr	r3, [r3, #0]
 8005e0a:	f003 0308 	and.w	r3, r3, #8
 8005e0e:	2b00      	cmp	r3, #0
 8005e10:	d036      	beq.n	8005e80 <HAL_RCC_OscConfig+0x258>
  {
    /* Check the parameters */
    assert_param(IS_RCC_LSI(RCC_OscInitStruct->LSIState));

    /* Check the LSI State */
    if ((RCC_OscInitStruct->LSIState) != RCC_LSI_OFF)
 8005e12:	687b      	ldr	r3, [r7, #4]
 8005e14:	695b      	ldr	r3, [r3, #20]
 8005e16:	2b00      	cmp	r3, #0
 8005e18:	d016      	beq.n	8005e48 <HAL_RCC_OscConfig+0x220>
    {
      /* Enable the Internal Low Speed oscillator (LSI). */
      __HAL_RCC_LSI_ENABLE();
 8005e1a:	4b15      	ldr	r3, [pc, #84]	@ (8005e70 <HAL_RCC_OscConfig+0x248>)
 8005e1c:	2201      	movs	r2, #1
 8005e1e:	601a      	str	r2, [r3, #0]

      /* Get Start Tick*/
      tickstart = HAL_GetTick();
 8005e20:	f7fe f80a 	bl	8003e38 <HAL_GetTick>
 8005e24:	6138      	str	r0, [r7, #16]

      /* Wait till LSI is ready */
      while (__HAL_RCC_GET_FLAG(RCC_FLAG_LSIRDY) == RESET)
 8005e26:	e008      	b.n	8005e3a <HAL_RCC_OscConfig+0x212>
      {
        if ((HAL_GetTick() - tickstart) > LSI_TIMEOUT_VALUE)
 8005e28:	f7fe f806 	bl	8003e38 <HAL_GetTick>
 8005e2c:	4602      	mov	r2, r0
 8005e2e:	693b      	ldr	r3, [r7, #16]
 8005e30:	1ad3      	subs	r3, r2, r3
 8005e32:	2b02      	cmp	r3, #2
 8005e34:	d901      	bls.n	8005e3a <HAL_RCC_OscConfig+0x212>
        {
          return HAL_TIMEOUT;
 8005e36:	2303      	movs	r3, #3
 8005e38:	e167      	b.n	800610a <HAL_RCC_OscConfig+0x4e2>
      while (__HAL_RCC_GET_FLAG(RCC_FLAG_LSIRDY) == RESET)
 8005e3a:	4b0b      	ldr	r3, [pc, #44]	@ (8005e68 <HAL_RCC_OscConfig+0x240>)
 8005e3c:	6f5b      	ldr	r3, [r3, #116]	@ 0x74
 8005e3e:	f003 0302 	and.w	r3, r3, #2
 8005e42:	2b00      	cmp	r3, #0
 8005e44:	d0f0      	beq.n	8005e28 <HAL_RCC_OscConfig+0x200>
 8005e46:	e01b      	b.n	8005e80 <HAL_RCC_OscConfig+0x258>
      }
    }
    else
    {
      /* Disable the Internal Low Speed oscillator (LSI). */
      __HAL_RCC_LSI_DISABLE();
 8005e48:	4b09      	ldr	r3, [pc, #36]	@ (8005e70 <HAL_RCC_OscConfig+0x248>)
 8005e4a:	2200      	movs	r2, #0
 8005e4c:	601a      	str	r2, [r3, #0]

      /* Get Start Tick */
      tickstart = HAL_GetTick();
 8005e4e:	f7fd fff3 	bl	8003e38 <HAL_GetTick>
 8005e52:	6138      	str	r0, [r7, #16]

      /* Wait till LSI is ready */
      while (__HAL_RCC_GET_FLAG(RCC_FLAG_LSIRDY) != RESET)
 8005e54:	e00e      	b.n	8005e74 <HAL_RCC_OscConfig+0x24c>
      {
        if ((HAL_GetTick() - tickstart) > LSI_TIMEOUT_VALUE)
 8005e56:	f7fd ffef 	bl	8003e38 <HAL_GetTick>
 8005e5a:	4602      	mov	r2, r0
 8005e5c:	693b      	ldr	r3, [r7, #16]
 8005e5e:	1ad3      	subs	r3, r2, r3
 8005e60:	2b02      	cmp	r3, #2
 8005e62:	d907      	bls.n	8005e74 <HAL_RCC_OscConfig+0x24c>
        {
          return HAL_TIMEOUT;
 8005e64:	2303      	movs	r3, #3
 8005e66:	e150      	b.n	800610a <HAL_RCC_OscConfig+0x4e2>
 8005e68:	40023800 	.word	0x40023800
 8005e6c:	42470000 	.word	0x42470000
 8005e70:	42470e80 	.word	0x42470e80
      while (__HAL_RCC_GET_FLAG(RCC_FLAG_LSIRDY) != RESET)
 8005e74:	4b88      	ldr	r3, [pc, #544]	@ (8006098 <HAL_RCC_OscConfig+0x470>)
 8005e76:	6f5b      	ldr	r3, [r3, #116]	@ 0x74
 8005e78:	f003 0302 	and.w	r3, r3, #2
 8005e7c:	2b00      	cmp	r3, #0
 8005e7e:	d1ea      	bne.n	8005e56 <HAL_RCC_OscConfig+0x22e>
        }
      }
    }
  }
  /*------------------------------ LSE Configuration -------------------------*/
  if (((RCC_OscInitStruct->OscillatorType) & RCC_OSCILLATORTYPE_LSE) == RCC_OSCILLATORTYPE_LSE)
 8005e80:	687b      	ldr	r3, [r7, #4]
 8005e82:	681b      	ldr	r3, [r3, #0]
 8005e84:	f003 0304 	and.w	r3, r3, #4
 8005e88:	2b00      	cmp	r3, #0
 8005e8a:	f000 8097 	beq.w	8005fbc <HAL_RCC_OscConfig+0x394>
  {
    FlagStatus       pwrclkchanged = RESET;
 8005e8e:	2300      	movs	r3, #0
 8005e90:	75fb      	strb	r3, [r7, #23]
    /* Check the parameters */
    assert_param(IS_RCC_LSE(RCC_OscInitStruct->LSEState));

    /* Update LSE configuration in Backup Domain control register    */
    /* Requires to enable write access to Backup Domain of necessary */
    if (__HAL_RCC_PWR_IS_CLK_DISABLED())
 8005e92:	4b81      	ldr	r3, [pc, #516]	@ (8006098 <HAL_RCC_OscConfig+0x470>)
 8005e94:	6c1b      	ldr	r3, [r3, #64]	@ 0x40
 8005e96:	f003 5380 	and.w	r3, r3, #268435456	@ 0x10000000
 8005e9a:	2b00      	cmp	r3, #0
 8005e9c:	d10f      	bne.n	8005ebe <HAL_RCC_OscConfig+0x296>
    {
      __HAL_RCC_PWR_CLK_ENABLE();
 8005e9e:	2300      	movs	r3, #0
 8005ea0:	60bb      	str	r3, [r7, #8]
 8005ea2:	4b7d      	ldr	r3, [pc, #500]	@ (8006098 <HAL_RCC_OscConfig+0x470>)
 8005ea4:	6c1b      	ldr	r3, [r3, #64]	@ 0x40
 8005ea6:	4a7c      	ldr	r2, [pc, #496]	@ (8006098 <HAL_RCC_OscConfig+0x470>)
 8005ea8:	f043 5380 	orr.w	r3, r3, #268435456	@ 0x10000000
 8005eac:	6413      	str	r3, [r2, #64]	@ 0x40
 8005eae:	4b7a      	ldr	r3, [pc, #488]	@ (8006098 <HAL_RCC_OscConfig+0x470>)
 8005eb0:	6c1b      	ldr	r3, [r3, #64]	@ 0x40
 8005eb2:	f003 5380 	and.w	r3, r3, #268435456	@ 0x10000000
 8005eb6:	60bb      	str	r3, [r7, #8]
 8005eb8:	68bb      	ldr	r3, [r7, #8]
      pwrclkchanged = SET;
 8005eba:	2301      	movs	r3, #1
 8005ebc:	75fb      	strb	r3, [r7, #23]
    }

    if (HAL_IS_BIT_CLR(PWR->CR, PWR_CR_DBP))
 8005ebe:	4b77      	ldr	r3, [pc, #476]	@ (800609c <HAL_RCC_OscConfig+0x474>)
 8005ec0:	681b      	ldr	r3, [r3, #0]
 8005ec2:	f403 7380 	and.w	r3, r3, #256	@ 0x100
 8005ec6:	2b00      	cmp	r3, #0
 8005ec8:	d118      	bne.n	8005efc <HAL_RCC_OscConfig+0x2d4>
    {
      /* Enable write access to Backup domain */
      SET_BIT(PWR->CR, PWR_CR_DBP);
 8005eca:	4b74      	ldr	r3, [pc, #464]	@ (800609c <HAL_RCC_OscConfig+0x474>)
 8005ecc:	681b      	ldr	r3, [r3, #0]
 8005ece:	4a73      	ldr	r2, [pc, #460]	@ (800609c <HAL_RCC_OscConfig+0x474>)
 8005ed0:	f443 7380 	orr.w	r3, r3, #256	@ 0x100
 8005ed4:	6013      	str	r3, [r2, #0]

      /* Wait for Backup domain Write protection disable */
      tickstart = HAL_GetTick();
 8005ed6:	f7fd ffaf 	bl	8003e38 <HAL_GetTick>
 8005eda:	6138      	str	r0, [r7, #16]

      while (HAL_IS_BIT_CLR(PWR->CR, PWR_CR_DBP))
 8005edc:	e008      	b.n	8005ef0 <HAL_RCC_OscConfig+0x2c8>
      {
        if ((HAL_GetTick() - tickstart) > RCC_DBP_TIMEOUT_VALUE)
 8005ede:	f7fd ffab 	bl	8003e38 <HAL_GetTick>
 8005ee2:	4602      	mov	r2, r0
 8005ee4:	693b      	ldr	r3, [r7, #16]
 8005ee6:	1ad3      	subs	r3, r2, r3
 8005ee8:	2b02      	cmp	r3, #2
 8005eea:	d901      	bls.n	8005ef0 <HAL_RCC_OscConfig+0x2c8>
        {
          return HAL_TIMEOUT;
 8005eec:	2303      	movs	r3, #3
 8005eee:	e10c      	b.n	800610a <HAL_RCC_OscConfig+0x4e2>
      while (HAL_IS_BIT_CLR(PWR->CR, PWR_CR_DBP))
 8005ef0:	4b6a      	ldr	r3, [pc, #424]	@ (800609c <HAL_RCC_OscConfig+0x474>)
 8005ef2:	681b      	ldr	r3, [r3, #0]
 8005ef4:	f403 7380 	and.w	r3, r3, #256	@ 0x100
 8005ef8:	2b00      	cmp	r3, #0
 8005efa:	d0f0      	beq.n	8005ede <HAL_RCC_OscConfig+0x2b6>
        }
      }
    }

    /* Set the new LSE configuration -----------------------------------------*/
    __HAL_RCC_LSE_CONFIG(RCC_OscInitStruct->LSEState);
 8005efc:	687b      	ldr	r3, [r7, #4]
 8005efe:	689b      	ldr	r3, [r3, #8]
 8005f00:	2b01      	cmp	r3, #1
 8005f02:	d106      	bne.n	8005f12 <HAL_RCC_OscConfig+0x2ea>
 8005f04:	4b64      	ldr	r3, [pc, #400]	@ (8006098 <HAL_RCC_OscConfig+0x470>)
 8005f06:	6f1b      	ldr	r3, [r3, #112]	@ 0x70
 8005f08:	4a63      	ldr	r2, [pc, #396]	@ (8006098 <HAL_RCC_OscConfig+0x470>)
 8005f0a:	f043 0301 	orr.w	r3, r3, #1
 8005f0e:	6713      	str	r3, [r2, #112]	@ 0x70
 8005f10:	e01c      	b.n	8005f4c <HAL_RCC_OscConfig+0x324>
 8005f12:	687b      	ldr	r3, [r7, #4]
 8005f14:	689b      	ldr	r3, [r3, #8]
 8005f16:	2b05      	cmp	r3, #5
 8005f18:	d10c      	bne.n	8005f34 <HAL_RCC_OscConfig+0x30c>
 8005f1a:	4b5f      	ldr	r3, [pc, #380]	@ (8006098 <HAL_RCC_OscConfig+0x470>)
 8005f1c:	6f1b      	ldr	r3, [r3, #112]	@ 0x70
 8005f1e:	4a5e      	ldr	r2, [pc, #376]	@ (8006098 <HAL_RCC_OscConfig+0x470>)
 8005f20:	f043 0304 	orr.w	r3, r3, #4
 8005f24:	6713      	str	r3, [r2, #112]	@ 0x70
 8005f26:	4b5c      	ldr	r3, [pc, #368]	@ (8006098 <HAL_RCC_OscConfig+0x470>)
 8005f28:	6f1b      	ldr	r3, [r3, #112]	@ 0x70
 8005f2a:	4a5b      	ldr	r2, [pc, #364]	@ (8006098 <HAL_RCC_OscConfig+0x470>)
 8005f2c:	f043 0301 	orr.w	r3, r3, #1
 8005f30:	6713      	str	r3, [r2, #112]	@ 0x70
 8005f32:	e00b      	b.n	8005f4c <HAL_RCC_OscConfig+0x324>
 8005f34:	4b58      	ldr	r3, [pc, #352]	@ (8006098 <HAL_RCC_OscConfig+0x470>)
 8005f36:	6f1b      	ldr	r3, [r3, #112]	@ 0x70
 8005f38:	4a57      	ldr	r2, [pc, #348]	@ (8006098 <HAL_RCC_OscConfig+0x470>)
 8005f3a:	f023 0301 	bic.w	r3, r3, #1
 8005f3e:	6713      	str	r3, [r2, #112]	@ 0x70
 8005f40:	4b55      	ldr	r3, [pc, #340]	@ (8006098 <HAL_RCC_OscConfig+0x470>)
 8005f42:	6f1b      	ldr	r3, [r3, #112]	@ 0x70
 8005f44:	4a54      	ldr	r2, [pc, #336]	@ (8006098 <HAL_RCC_OscConfig+0x470>)
 8005f46:	f023 0304 	bic.w	r3, r3, #4
 8005f4a:	6713      	str	r3, [r2, #112]	@ 0x70
    /* Check the LSE State */
    if ((RCC_OscInitStruct->LSEState) != RCC_LSE_OFF)
 8005f4c:	687b      	ldr	r3, [r7, #4]
 8005f4e:	689b      	ldr	r3, [r3, #8]
 8005f50:	2b00      	cmp	r3, #0
 8005f52:	d015      	beq.n	8005f80 <HAL_RCC_OscConfig+0x358>
    {
      /* Get Start Tick*/
      tickstart = HAL_GetTick();
 8005f54:	f7fd ff70 	bl	8003e38 <HAL_GetTick>
 8005f58:	6138      	str	r0, [r7, #16]

      /* Wait till LSE is ready */
      while (__HAL_RCC_GET_FLAG(RCC_FLAG_LSERDY) == RESET)
 8005f5a:	e00a      	b.n	8005f72 <HAL_RCC_OscConfig+0x34a>
      {
        if ((HAL_GetTick() - tickstart) > RCC_LSE_TIMEOUT_VALUE)
 8005f5c:	f7fd ff6c 	bl	8003e38 <HAL_GetTick>
 8005f60:	4602      	mov	r2, r0
 8005f62:	693b      	ldr	r3, [r7, #16]
 8005f64:	1ad3      	subs	r3, r2, r3
 8005f66:	f241 3288 	movw	r2, #5000	@ 0x1388
 8005f6a:	4293      	cmp	r3, r2
 8005f6c:	d901      	bls.n	8005f72 <HAL_RCC_OscConfig+0x34a>
        {
          return HAL_TIMEOUT;
 8005f6e:	2303      	movs	r3, #3
 8005f70:	e0cb      	b.n	800610a <HAL_RCC_OscConfig+0x4e2>
      while (__HAL_RCC_GET_FLAG(RCC_FLAG_LSERDY) == RESET)
 8005f72:	4b49      	ldr	r3, [pc, #292]	@ (8006098 <HAL_RCC_OscConfig+0x470>)
 8005f74:	6f1b      	ldr	r3, [r3, #112]	@ 0x70
 8005f76:	f003 0302 	and.w	r3, r3, #2
 8005f7a:	2b00      	cmp	r3, #0
 8005f7c:	d0ee      	beq.n	8005f5c <HAL_RCC_OscConfig+0x334>
 8005f7e:	e014      	b.n	8005faa <HAL_RCC_OscConfig+0x382>
      }
    }
    else
    {
      /* Get Start Tick */
      tickstart = HAL_GetTick();
 8005f80:	f7fd ff5a 	bl	8003e38 <HAL_GetTick>
 8005f84:	6138      	str	r0, [r7, #16]

      /* Wait till LSE is ready */
      while (__HAL_RCC_GET_FLAG(RCC_FLAG_LSERDY) != RESET)
 8005f86:	e00a      	b.n	8005f9e <HAL_RCC_OscConfig+0x376>
      {
        if ((HAL_GetTick() - tickstart) > RCC_LSE_TIMEOUT_VALUE)
 8005f88:	f7fd ff56 	bl	8003e38 <HAL_GetTick>
 8005f8c:	4602      	mov	r2, r0
 8005f8e:	693b      	ldr	r3, [r7, #16]
 8005f90:	1ad3      	subs	r3, r2, r3
 8005f92:	f241 3288 	movw	r2, #5000	@ 0x1388
 8005f96:	4293      	cmp	r3, r2
 8005f98:	d901      	bls.n	8005f9e <HAL_RCC_OscConfig+0x376>
        {
          return HAL_TIMEOUT;
 8005f9a:	2303      	movs	r3, #3
 8005f9c:	e0b5      	b.n	800610a <HAL_RCC_OscConfig+0x4e2>
      while (__HAL_RCC_GET_FLAG(RCC_FLAG_LSERDY) != RESET)
 8005f9e:	4b3e      	ldr	r3, [pc, #248]	@ (8006098 <HAL_RCC_OscConfig+0x470>)
 8005fa0:	6f1b      	ldr	r3, [r3, #112]	@ 0x70
 8005fa2:	f003 0302 	and.w	r3, r3, #2
 8005fa6:	2b00      	cmp	r3, #0
 8005fa8:	d1ee      	bne.n	8005f88 <HAL_RCC_OscConfig+0x360>
        }
      }
    }

    /* Restore clock configuration if changed */
    if (pwrclkchanged == SET)
 8005faa:	7dfb      	ldrb	r3, [r7, #23]
 8005fac:	2b01      	cmp	r3, #1
 8005fae:	d105      	bne.n	8005fbc <HAL_RCC_OscConfig+0x394>
    {
      __HAL_RCC_PWR_CLK_DISABLE();
 8005fb0:	4b39      	ldr	r3, [pc, #228]	@ (8006098 <HAL_RCC_OscConfig+0x470>)
 8005fb2:	6c1b      	ldr	r3, [r3, #64]	@ 0x40
 8005fb4:	4a38      	ldr	r2, [pc, #224]	@ (8006098 <HAL_RCC_OscConfig+0x470>)
 8005fb6:	f023 5380 	bic.w	r3, r3, #268435456	@ 0x10000000
 8005fba:	6413      	str	r3, [r2, #64]	@ 0x40
    }
  }
  /*-------------------------------- PLL Configuration -----------------------*/
  /* Check the parameters */
  assert_param(IS_RCC_PLL(RCC_OscInitStruct->PLL.PLLState));
  if ((RCC_OscInitStruct->PLL.PLLState) != RCC_PLL_NONE)
 8005fbc:	687b      	ldr	r3, [r7, #4]
 8005fbe:	699b      	ldr	r3, [r3, #24]
 8005fc0:	2b00      	cmp	r3, #0
 8005fc2:	f000 80a1 	beq.w	8006108 <HAL_RCC_OscConfig+0x4e0>
  {
    /* Check if the PLL is used as system clock or not */
    if (__HAL_RCC_GET_SYSCLK_SOURCE() != RCC_CFGR_SWS_PLL)
 8005fc6:	4b34      	ldr	r3, [pc, #208]	@ (8006098 <HAL_RCC_OscConfig+0x470>)
 8005fc8:	689b      	ldr	r3, [r3, #8]
 8005fca:	f003 030c 	and.w	r3, r3, #12
 8005fce:	2b08      	cmp	r3, #8
 8005fd0:	d05c      	beq.n	800608c <HAL_RCC_OscConfig+0x464>
    {
      if ((RCC_OscInitStruct->PLL.PLLState) == RCC_PLL_ON)
 8005fd2:	687b      	ldr	r3, [r7, #4]
 8005fd4:	699b      	ldr	r3, [r3, #24]
 8005fd6:	2b02      	cmp	r3, #2
 8005fd8:	d141      	bne.n	800605e <HAL_RCC_OscConfig+0x436>
        assert_param(IS_RCC_PLLN_VALUE(RCC_OscInitStruct->PLL.PLLN));
        assert_param(IS_RCC_PLLP_VALUE(RCC_OscInitStruct->PLL.PLLP));
        assert_param(IS_RCC_PLLQ_VALUE(RCC_OscInitStruct->PLL.PLLQ));

        /* Disable the main PLL. */
        __HAL_RCC_PLL_DISABLE();
 8005fda:	4b31      	ldr	r3, [pc, #196]	@ (80060a0 <HAL_RCC_OscConfig+0x478>)
 8005fdc:	2200      	movs	r2, #0
 8005fde:	601a      	str	r2, [r3, #0]

        /* Get Start Tick */
        tickstart = HAL_GetTick();
 8005fe0:	f7fd ff2a 	bl	8003e38 <HAL_GetTick>
 8005fe4:	6138      	str	r0, [r7, #16]

        /* Wait till PLL is disabled */
        while (__HAL_RCC_GET_FLAG(RCC_FLAG_PLLRDY) != RESET)
 8005fe6:	e008      	b.n	8005ffa <HAL_RCC_OscConfig+0x3d2>
        {
          if ((HAL_GetTick() - tickstart) > PLL_TIMEOUT_VALUE)
 8005fe8:	f7fd ff26 	bl	8003e38 <HAL_GetTick>
 8005fec:	4602      	mov	r2, r0
 8005fee:	693b      	ldr	r3, [r7, #16]
 8005ff0:	1ad3      	subs	r3, r2, r3
 8005ff2:	2b02      	cmp	r3, #2
 8005ff4:	d901      	bls.n	8005ffa <HAL_RCC_OscConfig+0x3d2>
          {
            return HAL_TIMEOUT;
 8005ff6:	2303      	movs	r3, #3
 8005ff8:	e087      	b.n	800610a <HAL_RCC_OscConfig+0x4e2>
        while (__HAL_RCC_GET_FLAG(RCC_FLAG_PLLRDY) != RESET)
 8005ffa:	4b27      	ldr	r3, [pc, #156]	@ (8006098 <HAL_RCC_OscConfig+0x470>)
 8005ffc:	681b      	ldr	r3, [r3, #0]
 8005ffe:	f003 7300 	and.w	r3, r3, #33554432	@ 0x2000000
 8006002:	2b00      	cmp	r3, #0
 8006004:	d1f0      	bne.n	8005fe8 <HAL_RCC_OscConfig+0x3c0>
          }
        }

        /* Configure the main PLL clock source, multiplication and division factors. */
        WRITE_REG(RCC->PLLCFGR, (RCC_OscInitStruct->PLL.PLLSource                                            | \
 8006006:	687b      	ldr	r3, [r7, #4]
 8006008:	69da      	ldr	r2, [r3, #28]
 800600a:	687b      	ldr	r3, [r7, #4]
 800600c:	6a1b      	ldr	r3, [r3, #32]
 800600e:	431a      	orrs	r2, r3
 8006010:	687b      	ldr	r3, [r7, #4]
 8006012:	6a5b      	ldr	r3, [r3, #36]	@ 0x24
 8006014:	019b      	lsls	r3, r3, #6
 8006016:	431a      	orrs	r2, r3
 8006018:	687b      	ldr	r3, [r7, #4]
 800601a:	6a9b      	ldr	r3, [r3, #40]	@ 0x28
 800601c:	085b      	lsrs	r3, r3, #1
 800601e:	3b01      	subs	r3, #1
 8006020:	041b      	lsls	r3, r3, #16
 8006022:	431a      	orrs	r2, r3
 8006024:	687b      	ldr	r3, [r7, #4]
 8006026:	6adb      	ldr	r3, [r3, #44]	@ 0x2c
 8006028:	061b      	lsls	r3, r3, #24
 800602a:	491b      	ldr	r1, [pc, #108]	@ (8006098 <HAL_RCC_OscConfig+0x470>)
 800602c:	4313      	orrs	r3, r2
 800602e:	604b      	str	r3, [r1, #4]
                                 RCC_OscInitStruct->PLL.PLLM                                                 | \
                                 (RCC_OscInitStruct->PLL.PLLN << RCC_PLLCFGR_PLLN_Pos)             | \
                                 (((RCC_OscInitStruct->PLL.PLLP >> 1U) - 1U) << RCC_PLLCFGR_PLLP_Pos) | \
                                 (RCC_OscInitStruct->PLL.PLLQ << RCC_PLLCFGR_PLLQ_Pos)));
        /* Enable the main PLL. */
        __HAL_RCC_PLL_ENABLE();
 8006030:	4b1b      	ldr	r3, [pc, #108]	@ (80060a0 <HAL_RCC_OscConfig+0x478>)
 8006032:	2201      	movs	r2, #1
 8006034:	601a      	str	r2, [r3, #0]

        /* Get Start Tick */
        tickstart = HAL_GetTick();
 8006036:	f7fd feff 	bl	8003e38 <HAL_GetTick>
 800603a:	6138      	str	r0, [r7, #16]

        /* Wait till PLL is ready */
        while (__HAL_RCC_GET_FLAG(RCC_FLAG_PLLRDY) == RESET)
 800603c:	e008      	b.n	8006050 <HAL_RCC_OscConfig+0x428>
        {
          if ((HAL_GetTick() - tickstart) > PLL_TIMEOUT_VALUE)
 800603e:	f7fd fefb 	bl	8003e38 <HAL_GetTick>
 8006042:	4602      	mov	r2, r0
 8006044:	693b      	ldr	r3, [r7, #16]
 8006046:	1ad3      	subs	r3, r2, r3
 8006048:	2b02      	cmp	r3, #2
 800604a:	d901      	bls.n	8006050 <HAL_RCC_OscConfig+0x428>
          {
            return HAL_TIMEOUT;
 800604c:	2303      	movs	r3, #3
 800604e:	e05c      	b.n	800610a <HAL_RCC_OscConfig+0x4e2>
        while (__HAL_RCC_GET_FLAG(RCC_FLAG_PLLRDY) == RESET)
 8006050:	4b11      	ldr	r3, [pc, #68]	@ (8006098 <HAL_RCC_OscConfig+0x470>)
 8006052:	681b      	ldr	r3, [r3, #0]
 8006054:	f003 7300 	and.w	r3, r3, #33554432	@ 0x2000000
 8006058:	2b00      	cmp	r3, #0
 800605a:	d0f0      	beq.n	800603e <HAL_RCC_OscConfig+0x416>
 800605c:	e054      	b.n	8006108 <HAL_RCC_OscConfig+0x4e0>
        }
      }
      else
      {
        /* Disable the main PLL. */
        __HAL_RCC_PLL_DISABLE();
 800605e:	4b10      	ldr	r3, [pc, #64]	@ (80060a0 <HAL_RCC_OscConfig+0x478>)
 8006060:	2200      	movs	r2, #0
 8006062:	601a      	str	r2, [r3, #0]

        /* Get Start Tick */
        tickstart = HAL_GetTick();
 8006064:	f7fd fee8 	bl	8003e38 <HAL_GetTick>
 8006068:	6138      	str	r0, [r7, #16]

        /* Wait till PLL is disabled */
        while (__HAL_RCC_GET_FLAG(RCC_FLAG_PLLRDY) != RESET)
 800606a:	e008      	b.n	800607e <HAL_RCC_OscConfig+0x456>
        {
          if ((HAL_GetTick() - tickstart) > PLL_TIMEOUT_VALUE)
 800606c:	f7fd fee4 	bl	8003e38 <HAL_GetTick>
 8006070:	4602      	mov	r2, r0
 8006072:	693b      	ldr	r3, [r7, #16]
 8006074:	1ad3      	subs	r3, r2, r3
 8006076:	2b02      	cmp	r3, #2
 8006078:	d901      	bls.n	800607e <HAL_RCC_OscConfig+0x456>
          {
            return HAL_TIMEOUT;
 800607a:	2303      	movs	r3, #3
 800607c:	e045      	b.n	800610a <HAL_RCC_OscConfig+0x4e2>
        while (__HAL_RCC_GET_FLAG(RCC_FLAG_PLLRDY) != RESET)
 800607e:	4b06      	ldr	r3, [pc, #24]	@ (8006098 <HAL_RCC_OscConfig+0x470>)
 8006080:	681b      	ldr	r3, [r3, #0]
 8006082:	f003 7300 	and.w	r3, r3, #33554432	@ 0x2000000
 8006086:	2b00      	cmp	r3, #0
 8006088:	d1f0      	bne.n	800606c <HAL_RCC_OscConfig+0x444>
 800608a:	e03d      	b.n	8006108 <HAL_RCC_OscConfig+0x4e0>
      }
    }
    else
    {
      /* Check if there is a request to disable the PLL used as System clock source */
      if ((RCC_OscInitStruct->PLL.PLLState) == RCC_PLL_OFF)
 800608c:	687b      	ldr	r3, [r7, #4]
 800608e:	699b      	ldr	r3, [r3, #24]
 8006090:	2b01      	cmp	r3, #1
 8006092:	d107      	bne.n	80060a4 <HAL_RCC_OscConfig+0x47c>
      {
        return HAL_ERROR;
 8006094:	2301      	movs	r3, #1
 8006096:	e038      	b.n	800610a <HAL_RCC_OscConfig+0x4e2>
 8006098:	40023800 	.word	0x40023800
 800609c:	40007000 	.word	0x40007000
 80060a0:	42470060 	.word	0x42470060
      }
      else
      {
        /* Do not return HAL_ERROR if request repeats the current configuration */
        pll_config = RCC->PLLCFGR;
 80060a4:	4b1b      	ldr	r3, [pc, #108]	@ (8006114 <HAL_RCC_OscConfig+0x4ec>)
 80060a6:	685b      	ldr	r3, [r3, #4]
 80060a8:	60fb      	str	r3, [r7, #12]
            (READ_BIT(pll_config, RCC_PLLCFGR_PLLN) != (RCC_OscInitStruct->PLL.PLLN) << RCC_PLLCFGR_PLLN_Pos) ||
            (READ_BIT(pll_config, RCC_PLLCFGR_PLLP) != (((RCC_OscInitStruct->PLL.PLLP >> 1U) - 1U)) << RCC_PLLCFGR_PLLP_Pos) ||
            (READ_BIT(pll_config, RCC_PLLCFGR_PLLQ) != (RCC_OscInitStruct->PLL.PLLQ << RCC_PLLCFGR_PLLQ_Pos)) ||
            (READ_BIT(pll_config, RCC_PLLCFGR_PLLR) != (RCC_OscInitStruct->PLL.PLLR << RCC_PLLCFGR_PLLR_Pos)))
#else
        if (((RCC_OscInitStruct->PLL.PLLState) == RCC_PLL_OFF) ||
 80060aa:	687b      	ldr	r3, [r7, #4]
 80060ac:	699b      	ldr	r3, [r3, #24]
 80060ae:	2b01      	cmp	r3, #1
 80060b0:	d028      	beq.n	8006104 <HAL_RCC_OscConfig+0x4dc>
            (READ_BIT(pll_config, RCC_PLLCFGR_PLLSRC) != RCC_OscInitStruct->PLL.PLLSource) ||
 80060b2:	68fb      	ldr	r3, [r7, #12]
 80060b4:	f403 0280 	and.w	r2, r3, #4194304	@ 0x400000
 80060b8:	687b      	ldr	r3, [r7, #4]
 80060ba:	69db      	ldr	r3, [r3, #28]
        if (((RCC_OscInitStruct->PLL.PLLState) == RCC_PLL_OFF) ||
 80060bc:	429a      	cmp	r2, r3
 80060be:	d121      	bne.n	8006104 <HAL_RCC_OscConfig+0x4dc>
            (READ_BIT(pll_config, RCC_PLLCFGR_PLLM) != (RCC_OscInitStruct->PLL.PLLM) << RCC_PLLCFGR_PLLM_Pos) ||
 80060c0:	68fb      	ldr	r3, [r7, #12]
 80060c2:	f003 023f 	and.w	r2, r3, #63	@ 0x3f
 80060c6:	687b      	ldr	r3, [r7, #4]
 80060c8:	6a1b      	ldr	r3, [r3, #32]
            (READ_BIT(pll_config, RCC_PLLCFGR_PLLSRC) != RCC_OscInitStruct->PLL.PLLSource) ||
 80060ca:	429a      	cmp	r2, r3
 80060cc:	d11a      	bne.n	8006104 <HAL_RCC_OscConfig+0x4dc>
            (READ_BIT(pll_config, RCC_PLLCFGR_PLLN) != (RCC_OscInitStruct->PLL.PLLN) << RCC_PLLCFGR_PLLN_Pos) ||
 80060ce:	68fa      	ldr	r2, [r7, #12]
 80060d0:	f647 73c0 	movw	r3, #32704	@ 0x7fc0
 80060d4:	4013      	ands	r3, r2
 80060d6:	687a      	ldr	r2, [r7, #4]
 80060d8:	6a52      	ldr	r2, [r2, #36]	@ 0x24
 80060da:	0192      	lsls	r2, r2, #6
            (READ_BIT(pll_config, RCC_PLLCFGR_PLLM) != (RCC_OscInitStruct->PLL.PLLM) << RCC_PLLCFGR_PLLM_Pos) ||
 80060dc:	4293      	cmp	r3, r2
 80060de:	d111      	bne.n	8006104 <HAL_RCC_OscConfig+0x4dc>
            (READ_BIT(pll_config, RCC_PLLCFGR_PLLP) != (((RCC_OscInitStruct->PLL.PLLP >> 1U) - 1U)) << RCC_PLLCFGR_PLLP_Pos) ||
 80060e0:	68fb      	ldr	r3, [r7, #12]
 80060e2:	f403 3240 	and.w	r2, r3, #196608	@ 0x30000
 80060e6:	687b      	ldr	r3, [r7, #4]
 80060e8:	6a9b      	ldr	r3, [r3, #40]	@ 0x28
 80060ea:	085b      	lsrs	r3, r3, #1
 80060ec:	3b01      	subs	r3, #1
 80060ee:	041b      	lsls	r3, r3, #16
            (READ_BIT(pll_config, RCC_PLLCFGR_PLLN) != (RCC_OscInitStruct->PLL.PLLN) << RCC_PLLCFGR_PLLN_Pos) ||
 80060f0:	429a      	cmp	r2, r3
 80060f2:	d107      	bne.n	8006104 <HAL_RCC_OscConfig+0x4dc>
            (READ_BIT(pll_config, RCC_PLLCFGR_PLLQ) != (RCC_OscInitStruct->PLL.PLLQ << RCC_PLLCFGR_PLLQ_Pos)))
 80060f4:	68fb      	ldr	r3, [r7, #12]
 80060f6:	f003 6270 	and.w	r2, r3, #251658240	@ 0xf000000
 80060fa:	687b      	ldr	r3, [r7, #4]
 80060fc:	6adb      	ldr	r3, [r3, #44]	@ 0x2c
 80060fe:	061b      	lsls	r3, r3, #24
            (READ_BIT(pll_config, RCC_PLLCFGR_PLLP) != (((RCC_OscInitStruct->PLL.PLLP >> 1U) - 1U)) << RCC_PLLCFGR_PLLP_Pos) ||
 8006100:	429a      	cmp	r2, r3
 8006102:	d001      	beq.n	8006108 <HAL_RCC_OscConfig+0x4e0>
#endif /* RCC_PLLCFGR_PLLR */
        {
          return HAL_ERROR;
 8006104:	2301      	movs	r3, #1
 8006106:	e000      	b.n	800610a <HAL_RCC_OscConfig+0x4e2>
        }
      }
    }
  }
  return HAL_OK;
 8006108:	2300      	movs	r3, #0
}
 800610a:	4618      	mov	r0, r3
 800610c:	3718      	adds	r7, #24
 800610e:	46bd      	mov	sp, r7
 8006110:	bd80      	pop	{r7, pc}
 8006112:	bf00      	nop
 8006114:	40023800 	.word	0x40023800

08006118 <HAL_RCC_ClockConfig>:
  *         HPRE[3:0] bits to ensure that HCLK not exceed the maximum allowed frequency
  *         (for more details refer to section above "Initialization/de-initialization functions")
  * @retval None
  */
HAL_StatusTypeDef HAL_RCC_ClockConfig(const RCC_ClkInitTypeDef  *RCC_ClkInitStruct, uint32_t FLatency)
{
 8006118:	b580      	push	{r7, lr}
 800611a:	b084      	sub	sp, #16
 800611c:	af00      	add	r7, sp, #0
 800611e:	6078      	str	r0, [r7, #4]
 8006120:	6039      	str	r1, [r7, #0]
  uint32_t tickstart;

  /* Check Null pointer */
  if (RCC_ClkInitStruct == NULL)
 8006122:	687b      	ldr	r3, [r7, #4]
 8006124:	2b00      	cmp	r3, #0
 8006126:	d101      	bne.n	800612c <HAL_RCC_ClockConfig+0x14>
  {
    return HAL_ERROR;
 8006128:	2301      	movs	r3, #1
 800612a:	e0cc      	b.n	80062c6 <HAL_RCC_ClockConfig+0x1ae>
  /* To correctly read data from FLASH memory, the number of wait states (LATENCY)
    must be correctly programmed according to the frequency of the CPU clock
    (HCLK) and the supply voltage of the device. */

  /* Increasing the number of wait states because of higher CPU frequency */
  if (FLatency > __HAL_FLASH_GET_LATENCY())
 800612c:	4b68      	ldr	r3, [pc, #416]	@ (80062d0 <HAL_RCC_ClockConfig+0x1b8>)
 800612e:	681b      	ldr	r3, [r3, #0]
 8006130:	f003 030f 	and.w	r3, r3, #15
 8006134:	683a      	ldr	r2, [r7, #0]
 8006136:	429a      	cmp	r2, r3
 8006138:	d90c      	bls.n	8006154 <HAL_RCC_ClockConfig+0x3c>
  {
    /* Program the new number of wait states to the LATENCY bits in the FLASH_ACR register */
    __HAL_FLASH_SET_LATENCY(FLatency);
 800613a:	4b65      	ldr	r3, [pc, #404]	@ (80062d0 <HAL_RCC_ClockConfig+0x1b8>)
 800613c:	683a      	ldr	r2, [r7, #0]
 800613e:	b2d2      	uxtb	r2, r2
 8006140:	701a      	strb	r2, [r3, #0]

    /* Check that the new number of wait states is taken into account to access the Flash
    memory by reading the FLASH_ACR register */
    if (__HAL_FLASH_GET_LATENCY() != FLatency)
 8006142:	4b63      	ldr	r3, [pc, #396]	@ (80062d0 <HAL_RCC_ClockConfig+0x1b8>)
 8006144:	681b      	ldr	r3, [r3, #0]
 8006146:	f003 030f 	and.w	r3, r3, #15
 800614a:	683a      	ldr	r2, [r7, #0]
 800614c:	429a      	cmp	r2, r3
 800614e:	d001      	beq.n	8006154 <HAL_RCC_ClockConfig+0x3c>
    {
      return HAL_ERROR;
 8006150:	2301      	movs	r3, #1
 8006152:	e0b8      	b.n	80062c6 <HAL_RCC_ClockConfig+0x1ae>
    }
  }

  /*-------------------------- HCLK Configuration --------------------------*/
  if (((RCC_ClkInitStruct->ClockType) & RCC_CLOCKTYPE_HCLK) == RCC_CLOCKTYPE_HCLK)
 8006154:	687b      	ldr	r3, [r7, #4]
 8006156:	681b      	ldr	r3, [r3, #0]
 8006158:	f003 0302 	and.w	r3, r3, #2
 800615c:	2b00      	cmp	r3, #0
 800615e:	d020      	beq.n	80061a2 <HAL_RCC_ClockConfig+0x8a>
  {
    /* Set the highest APBx dividers in order to ensure that we do not go through
       a non-spec phase whatever we decrease or increase HCLK. */
    if (((RCC_ClkInitStruct->ClockType) & RCC_CLOCKTYPE_PCLK1) == RCC_CLOCKTYPE_PCLK1)
 8006160:	687b      	ldr	r3, [r7, #4]
 8006162:	681b      	ldr	r3, [r3, #0]
 8006164:	f003 0304 	and.w	r3, r3, #4
 8006168:	2b00      	cmp	r3, #0
 800616a:	d005      	beq.n	8006178 <HAL_RCC_ClockConfig+0x60>
    {
      MODIFY_REG(RCC->CFGR, RCC_CFGR_PPRE1, RCC_HCLK_DIV16);
 800616c:	4b59      	ldr	r3, [pc, #356]	@ (80062d4 <HAL_RCC_ClockConfig+0x1bc>)
 800616e:	689b      	ldr	r3, [r3, #8]
 8006170:	4a58      	ldr	r2, [pc, #352]	@ (80062d4 <HAL_RCC_ClockConfig+0x1bc>)
 8006172:	f443 53e0 	orr.w	r3, r3, #7168	@ 0x1c00
 8006176:	6093      	str	r3, [r2, #8]
    }

    if (((RCC_ClkInitStruct->ClockType) & RCC_CLOCKTYPE_PCLK2) == RCC_CLOCKTYPE_PCLK2)
 8006178:	687b      	ldr	r3, [r7, #4]
 800617a:	681b      	ldr	r3, [r3, #0]
 800617c:	f003 0308 	and.w	r3, r3, #8
 8006180:	2b00      	cmp	r3, #0
 8006182:	d005      	beq.n	8006190 <HAL_RCC_ClockConfig+0x78>
    {
      MODIFY_REG(RCC->CFGR, RCC_CFGR_PPRE2, (RCC_HCLK_DIV16 << 3));
 8006184:	4b53      	ldr	r3, [pc, #332]	@ (80062d4 <HAL_RCC_ClockConfig+0x1bc>)
 8006186:	689b      	ldr	r3, [r3, #8]
 8006188:	4a52      	ldr	r2, [pc, #328]	@ (80062d4 <HAL_RCC_ClockConfig+0x1bc>)
 800618a:	f443 4360 	orr.w	r3, r3, #57344	@ 0xe000
 800618e:	6093      	str	r3, [r2, #8]
    }

    assert_param(IS_RCC_HCLK(RCC_ClkInitStruct->AHBCLKDivider));
    MODIFY_REG(RCC->CFGR, RCC_CFGR_HPRE, RCC_ClkInitStruct->AHBCLKDivider);
 8006190:	4b50      	ldr	r3, [pc, #320]	@ (80062d4 <HAL_RCC_ClockConfig+0x1bc>)
 8006192:	689b      	ldr	r3, [r3, #8]
 8006194:	f023 02f0 	bic.w	r2, r3, #240	@ 0xf0
 8006198:	687b      	ldr	r3, [r7, #4]
 800619a:	689b      	ldr	r3, [r3, #8]
 800619c:	494d      	ldr	r1, [pc, #308]	@ (80062d4 <HAL_RCC_ClockConfig+0x1bc>)
 800619e:	4313      	orrs	r3, r2
 80061a0:	608b      	str	r3, [r1, #8]
  }

  /*------------------------- SYSCLK Configuration ---------------------------*/
  if (((RCC_ClkInitStruct->ClockType) & RCC_CLOCKTYPE_SYSCLK) == RCC_CLOCKTYPE_SYSCLK)
 80061a2:	687b      	ldr	r3, [r7, #4]
 80061a4:	681b      	ldr	r3, [r3, #0]
 80061a6:	f003 0301 	and.w	r3, r3, #1
 80061aa:	2b00      	cmp	r3, #0
 80061ac:	d044      	beq.n	8006238 <HAL_RCC_ClockConfig+0x120>
  {
    assert_param(IS_RCC_SYSCLKSOURCE(RCC_ClkInitStruct->SYSCLKSource));

    /* HSE is selected as System Clock Source */
    if (RCC_ClkInitStruct->SYSCLKSource == RCC_SYSCLKSOURCE_HSE)
 80061ae:	687b      	ldr	r3, [r7, #4]
 80061b0:	685b      	ldr	r3, [r3, #4]
 80061b2:	2b01      	cmp	r3, #1
 80061b4:	d107      	bne.n	80061c6 <HAL_RCC_ClockConfig+0xae>
    {
      /* Check the HSE ready flag */
      if (__HAL_RCC_GET_FLAG(RCC_FLAG_HSERDY) == RESET)
 80061b6:	4b47      	ldr	r3, [pc, #284]	@ (80062d4 <HAL_RCC_ClockConfig+0x1bc>)
 80061b8:	681b      	ldr	r3, [r3, #0]
 80061ba:	f403 3300 	and.w	r3, r3, #131072	@ 0x20000
 80061be:	2b00      	cmp	r3, #0
 80061c0:	d119      	bne.n	80061f6 <HAL_RCC_ClockConfig+0xde>
      {
        return HAL_ERROR;
 80061c2:	2301      	movs	r3, #1
 80061c4:	e07f      	b.n	80062c6 <HAL_RCC_ClockConfig+0x1ae>
      }
    }
    /* PLL is selected as System Clock Source */
    else if ((RCC_ClkInitStruct->SYSCLKSource == RCC_SYSCLKSOURCE_PLLCLK)   ||
 80061c6:	687b      	ldr	r3, [r7, #4]
 80061c8:	685b      	ldr	r3, [r3, #4]
 80061ca:	2b02      	cmp	r3, #2
 80061cc:	d003      	beq.n	80061d6 <HAL_RCC_ClockConfig+0xbe>
             (RCC_ClkInitStruct->SYSCLKSource == RCC_SYSCLKSOURCE_PLLRCLK))
 80061ce:	687b      	ldr	r3, [r7, #4]
 80061d0:	685b      	ldr	r3, [r3, #4]
    else if ((RCC_ClkInitStruct->SYSCLKSource == RCC_SYSCLKSOURCE_PLLCLK)   ||
 80061d2:	2b03      	cmp	r3, #3
 80061d4:	d107      	bne.n	80061e6 <HAL_RCC_ClockConfig+0xce>
    {
      /* Check the PLL ready flag */
      if (__HAL_RCC_GET_FLAG(RCC_FLAG_PLLRDY) == RESET)
 80061d6:	4b3f      	ldr	r3, [pc, #252]	@ (80062d4 <HAL_RCC_ClockConfig+0x1bc>)
 80061d8:	681b      	ldr	r3, [r3, #0]
 80061da:	f003 7300 	and.w	r3, r3, #33554432	@ 0x2000000
 80061de:	2b00      	cmp	r3, #0
 80061e0:	d109      	bne.n	80061f6 <HAL_RCC_ClockConfig+0xde>
      {
        return HAL_ERROR;
 80061e2:	2301      	movs	r3, #1
 80061e4:	e06f      	b.n	80062c6 <HAL_RCC_ClockConfig+0x1ae>
    }
    /* HSI is selected as System Clock Source */
    else
    {
      /* Check the HSI ready flag */
      if (__HAL_RCC_GET_FLAG(RCC_FLAG_HSIRDY) == RESET)
 80061e6:	4b3b      	ldr	r3, [pc, #236]	@ (80062d4 <HAL_RCC_ClockConfig+0x1bc>)
 80061e8:	681b      	ldr	r3, [r3, #0]
 80061ea:	f003 0302 	and.w	r3, r3, #2
 80061ee:	2b00      	cmp	r3, #0
 80061f0:	d101      	bne.n	80061f6 <HAL_RCC_ClockConfig+0xde>
      {
        return HAL_ERROR;
 80061f2:	2301      	movs	r3, #1
 80061f4:	e067      	b.n	80062c6 <HAL_RCC_ClockConfig+0x1ae>
      }
    }

    __HAL_RCC_SYSCLK_CONFIG(RCC_ClkInitStruct->SYSCLKSource);
 80061f6:	4b37      	ldr	r3, [pc, #220]	@ (80062d4 <HAL_RCC_ClockConfig+0x1bc>)
 80061f8:	689b      	ldr	r3, [r3, #8]
 80061fa:	f023 0203 	bic.w	r2, r3, #3
 80061fe:	687b      	ldr	r3, [r7, #4]
 8006200:	685b      	ldr	r3, [r3, #4]
 8006202:	4934      	ldr	r1, [pc, #208]	@ (80062d4 <HAL_RCC_ClockConfig+0x1bc>)
 8006204:	4313      	orrs	r3, r2
 8006206:	608b      	str	r3, [r1, #8]

    /* Get Start Tick */
    tickstart = HAL_GetTick();
 8006208:	f7fd fe16 	bl	8003e38 <HAL_GetTick>
 800620c:	60f8      	str	r0, [r7, #12]

    while (__HAL_RCC_GET_SYSCLK_SOURCE() != (RCC_ClkInitStruct->SYSCLKSource << RCC_CFGR_SWS_Pos))
 800620e:	e00a      	b.n	8006226 <HAL_RCC_ClockConfig+0x10e>
    {
      if ((HAL_GetTick() - tickstart) > CLOCKSWITCH_TIMEOUT_VALUE)
 8006210:	f7fd fe12 	bl	8003e38 <HAL_GetTick>
 8006214:	4602      	mov	r2, r0
 8006216:	68fb      	ldr	r3, [r7, #12]
 8006218:	1ad3      	subs	r3, r2, r3
 800621a:	f241 3288 	movw	r2, #5000	@ 0x1388
 800621e:	4293      	cmp	r3, r2
 8006220:	d901      	bls.n	8006226 <HAL_RCC_ClockConfig+0x10e>
      {
        return HAL_TIMEOUT;
 8006222:	2303      	movs	r3, #3
 8006224:	e04f      	b.n	80062c6 <HAL_RCC_ClockConfig+0x1ae>
    while (__HAL_RCC_GET_SYSCLK_SOURCE() != (RCC_ClkInitStruct->SYSCLKSource << RCC_CFGR_SWS_Pos))
 8006226:	4b2b      	ldr	r3, [pc, #172]	@ (80062d4 <HAL_RCC_ClockConfig+0x1bc>)
 8006228:	689b      	ldr	r3, [r3, #8]
 800622a:	f003 020c 	and.w	r2, r3, #12
 800622e:	687b      	ldr	r3, [r7, #4]
 8006230:	685b      	ldr	r3, [r3, #4]
 8006232:	009b      	lsls	r3, r3, #2
 8006234:	429a      	cmp	r2, r3
 8006236:	d1eb      	bne.n	8006210 <HAL_RCC_ClockConfig+0xf8>
      }
    }
  }

  /* Decreasing the number of wait states because of lower CPU frequency */
  if (FLatency < __HAL_FLASH_GET_LATENCY())
 8006238:	4b25      	ldr	r3, [pc, #148]	@ (80062d0 <HAL_RCC_ClockConfig+0x1b8>)
 800623a:	681b      	ldr	r3, [r3, #0]
 800623c:	f003 030f 	and.w	r3, r3, #15
 8006240:	683a      	ldr	r2, [r7, #0]
 8006242:	429a      	cmp	r2, r3
 8006244:	d20c      	bcs.n	8006260 <HAL_RCC_ClockConfig+0x148>
  {
    /* Program the new number of wait states to the LATENCY bits in the FLASH_ACR register */
    __HAL_FLASH_SET_LATENCY(FLatency);
 8006246:	4b22      	ldr	r3, [pc, #136]	@ (80062d0 <HAL_RCC_ClockConfig+0x1b8>)
 8006248:	683a      	ldr	r2, [r7, #0]
 800624a:	b2d2      	uxtb	r2, r2
 800624c:	701a      	strb	r2, [r3, #0]

    /* Check that the new number of wait states is taken into account to access the Flash
    memory by reading the FLASH_ACR register */
    if (__HAL_FLASH_GET_LATENCY() != FLatency)
 800624e:	4b20      	ldr	r3, [pc, #128]	@ (80062d0 <HAL_RCC_ClockConfig+0x1b8>)
 8006250:	681b      	ldr	r3, [r3, #0]
 8006252:	f003 030f 	and.w	r3, r3, #15
 8006256:	683a      	ldr	r2, [r7, #0]
 8006258:	429a      	cmp	r2, r3
 800625a:	d001      	beq.n	8006260 <HAL_RCC_ClockConfig+0x148>
    {
      return HAL_ERROR;
 800625c:	2301      	movs	r3, #1
 800625e:	e032      	b.n	80062c6 <HAL_RCC_ClockConfig+0x1ae>
    }
  }

  /*-------------------------- PCLK1 Configuration ---------------------------*/
  if (((RCC_ClkInitStruct->ClockType) & RCC_CLOCKTYPE_PCLK1) == RCC_CLOCKTYPE_PCLK1)
 8006260:	687b      	ldr	r3, [r7, #4]
 8006262:	681b      	ldr	r3, [r3, #0]
 8006264:	f003 0304 	and.w	r3, r3, #4
 8006268:	2b00      	cmp	r3, #0
 800626a:	d008      	beq.n	800627e <HAL_RCC_ClockConfig+0x166>
  {
    assert_param(IS_RCC_PCLK(RCC_ClkInitStruct->APB1CLKDivider));
    MODIFY_REG(RCC->CFGR, RCC_CFGR_PPRE1, RCC_ClkInitStruct->APB1CLKDivider);
 800626c:	4b19      	ldr	r3, [pc, #100]	@ (80062d4 <HAL_RCC_ClockConfig+0x1bc>)
 800626e:	689b      	ldr	r3, [r3, #8]
 8006270:	f423 52e0 	bic.w	r2, r3, #7168	@ 0x1c00
 8006274:	687b      	ldr	r3, [r7, #4]
 8006276:	68db      	ldr	r3, [r3, #12]
 8006278:	4916      	ldr	r1, [pc, #88]	@ (80062d4 <HAL_RCC_ClockConfig+0x1bc>)
 800627a:	4313      	orrs	r3, r2
 800627c:	608b      	str	r3, [r1, #8]
  }

  /*-------------------------- PCLK2 Configuration ---------------------------*/
  if (((RCC_ClkInitStruct->ClockType) & RCC_CLOCKTYPE_PCLK2) == RCC_CLOCKTYPE_PCLK2)
 800627e:	687b      	ldr	r3, [r7, #4]
 8006280:	681b      	ldr	r3, [r3, #0]
 8006282:	f003 0308 	and.w	r3, r3, #8
 8006286:	2b00      	cmp	r3, #0
 8006288:	d009      	beq.n	800629e <HAL_RCC_ClockConfig+0x186>
  {
    assert_param(IS_RCC_PCLK(RCC_ClkInitStruct->APB2CLKDivider));
    MODIFY_REG(RCC->CFGR, RCC_CFGR_PPRE2, ((RCC_ClkInitStruct->APB2CLKDivider) << 3U));
 800628a:	4b12      	ldr	r3, [pc, #72]	@ (80062d4 <HAL_RCC_ClockConfig+0x1bc>)
 800628c:	689b      	ldr	r3, [r3, #8]
 800628e:	f423 4260 	bic.w	r2, r3, #57344	@ 0xe000
 8006292:	687b      	ldr	r3, [r7, #4]
 8006294:	691b      	ldr	r3, [r3, #16]
 8006296:	00db      	lsls	r3, r3, #3
 8006298:	490e      	ldr	r1, [pc, #56]	@ (80062d4 <HAL_RCC_ClockConfig+0x1bc>)
 800629a:	4313      	orrs	r3, r2
 800629c:	608b      	str	r3, [r1, #8]
  }

  /* Update the SystemCoreClock global variable */
  SystemCoreClock = HAL_RCC_GetSysClockFreq() >> AHBPrescTable[(RCC->CFGR & RCC_CFGR_HPRE) >> RCC_CFGR_HPRE_Pos];
 800629e:	f000 f889 	bl	80063b4 <HAL_RCC_GetSysClockFreq>
 80062a2:	4602      	mov	r2, r0
 80062a4:	4b0b      	ldr	r3, [pc, #44]	@ (80062d4 <HAL_RCC_ClockConfig+0x1bc>)
 80062a6:	689b      	ldr	r3, [r3, #8]
 80062a8:	091b      	lsrs	r3, r3, #4
 80062aa:	f003 030f 	and.w	r3, r3, #15
 80062ae:	490a      	ldr	r1, [pc, #40]	@ (80062d8 <HAL_RCC_ClockConfig+0x1c0>)
 80062b0:	5ccb      	ldrb	r3, [r1, r3]
 80062b2:	fa22 f303 	lsr.w	r3, r2, r3
 80062b6:	4a09      	ldr	r2, [pc, #36]	@ (80062dc <HAL_RCC_ClockConfig+0x1c4>)
 80062b8:	6013      	str	r3, [r2, #0]

  /* Configure the source of time base considering new system clocks settings */
  HAL_InitTick(uwTickPrio);
 80062ba:	4b09      	ldr	r3, [pc, #36]	@ (80062e0 <HAL_RCC_ClockConfig+0x1c8>)
 80062bc:	681b      	ldr	r3, [r3, #0]
 80062be:	4618      	mov	r0, r3
 80062c0:	f7fd fd76 	bl	8003db0 <HAL_InitTick>

  return HAL_OK;
 80062c4:	2300      	movs	r3, #0
}
 80062c6:	4618      	mov	r0, r3
 80062c8:	3710      	adds	r7, #16
 80062ca:	46bd      	mov	sp, r7
 80062cc:	bd80      	pop	{r7, pc}
 80062ce:	bf00      	nop
 80062d0:	40023c00 	.word	0x40023c00
 80062d4:	40023800 	.word	0x40023800
 80062d8:	0800a82c 	.word	0x0800a82c
 80062dc:	20000000 	.word	0x20000000
 80062e0:	20000004 	.word	0x20000004

080062e4 <HAL_RCC_MCOConfig>:
  * @note  For STM32F410Rx devices to output I2SCLK clock on MCO2 you should have
  *        at last one of the SPI clocks enabled (SPI1, SPI2 or SPI5).
  * @retval None
  */
void HAL_RCC_MCOConfig(uint32_t RCC_MCOx, uint32_t RCC_MCOSource, uint32_t RCC_MCODiv)
{
 80062e4:	b580      	push	{r7, lr}
 80062e6:	b08c      	sub	sp, #48	@ 0x30
 80062e8:	af00      	add	r7, sp, #0
 80062ea:	60f8      	str	r0, [r7, #12]
 80062ec:	60b9      	str	r1, [r7, #8]
 80062ee:	607a      	str	r2, [r7, #4]
  GPIO_InitTypeDef GPIO_InitStruct;
  /* Check the parameters */
  assert_param(IS_RCC_MCO(RCC_MCOx));
  assert_param(IS_RCC_MCODIV(RCC_MCODiv));
  /* RCC_MCO1 */
  if (RCC_MCOx == RCC_MCO1)
 80062f0:	68fb      	ldr	r3, [r7, #12]
 80062f2:	2b00      	cmp	r3, #0
 80062f4:	d129      	bne.n	800634a <HAL_RCC_MCOConfig+0x66>
  {
    assert_param(IS_RCC_MCO1SOURCE(RCC_MCOSource));

    /* MCO1 Clock Enable */
    __MCO1_CLK_ENABLE();
 80062f6:	2300      	movs	r3, #0
 80062f8:	61bb      	str	r3, [r7, #24]
 80062fa:	4b2b      	ldr	r3, [pc, #172]	@ (80063a8 <HAL_RCC_MCOConfig+0xc4>)
 80062fc:	6b1b      	ldr	r3, [r3, #48]	@ 0x30
 80062fe:	4a2a      	ldr	r2, [pc, #168]	@ (80063a8 <HAL_RCC_MCOConfig+0xc4>)
 8006300:	f043 0301 	orr.w	r3, r3, #1
 8006304:	6313      	str	r3, [r2, #48]	@ 0x30
 8006306:	4b28      	ldr	r3, [pc, #160]	@ (80063a8 <HAL_RCC_MCOConfig+0xc4>)
 8006308:	6b1b      	ldr	r3, [r3, #48]	@ 0x30
 800630a:	f003 0301 	and.w	r3, r3, #1
 800630e:	61bb      	str	r3, [r7, #24]
 8006310:	69bb      	ldr	r3, [r7, #24]

    /* Configure the MCO1 pin in alternate function mode */
    GPIO_InitStruct.Pin = MCO1_PIN;
 8006312:	f44f 7380 	mov.w	r3, #256	@ 0x100
 8006316:	61fb      	str	r3, [r7, #28]
    GPIO_InitStruct.Mode = GPIO_MODE_AF_PP;
 8006318:	2302      	movs	r3, #2
 800631a:	623b      	str	r3, [r7, #32]
    GPIO_InitStruct.Speed = GPIO_SPEED_FREQ_VERY_HIGH;
 800631c:	2303      	movs	r3, #3
 800631e:	62bb      	str	r3, [r7, #40]	@ 0x28
    GPIO_InitStruct.Pull = GPIO_NOPULL;
 8006320:	2300      	movs	r3, #0
 8006322:	627b      	str	r3, [r7, #36]	@ 0x24
    GPIO_InitStruct.Alternate = GPIO_AF0_MCO;
 8006324:	2300      	movs	r3, #0
 8006326:	62fb      	str	r3, [r7, #44]	@ 0x2c
    HAL_GPIO_Init(MCO1_GPIO_PORT, &GPIO_InitStruct);
 8006328:	f107 031c 	add.w	r3, r7, #28
 800632c:	4619      	mov	r1, r3
 800632e:	481f      	ldr	r0, [pc, #124]	@ (80063ac <HAL_RCC_MCOConfig+0xc8>)
 8006330:	f7fe f84e 	bl	80043d0 <HAL_GPIO_Init>

    /* Mask MCO1 and MCO1PRE[2:0] bits then Select MCO1 clock source and prescaler */
    MODIFY_REG(RCC->CFGR, (RCC_CFGR_MCO1 | RCC_CFGR_MCO1PRE), (RCC_MCOSource | RCC_MCODiv));
 8006334:	4b1c      	ldr	r3, [pc, #112]	@ (80063a8 <HAL_RCC_MCOConfig+0xc4>)
 8006336:	689b      	ldr	r3, [r3, #8]
 8006338:	f023 62ec 	bic.w	r2, r3, #123731968	@ 0x7600000
 800633c:	68b9      	ldr	r1, [r7, #8]
 800633e:	687b      	ldr	r3, [r7, #4]
 8006340:	430b      	orrs	r3, r1
 8006342:	4919      	ldr	r1, [pc, #100]	@ (80063a8 <HAL_RCC_MCOConfig+0xc4>)
 8006344:	4313      	orrs	r3, r2
 8006346:	608b      	str	r3, [r1, #8]
#if defined(RCC_CFGR_MCO2EN)
    __HAL_RCC_MCO2_ENABLE();
#endif /* RCC_CFGR_MCO2EN */
  }
#endif /* RCC_CFGR_MCO2 */
}
 8006348:	e029      	b.n	800639e <HAL_RCC_MCOConfig+0xba>
    __MCO2_CLK_ENABLE();
 800634a:	2300      	movs	r3, #0
 800634c:	617b      	str	r3, [r7, #20]
 800634e:	4b16      	ldr	r3, [pc, #88]	@ (80063a8 <HAL_RCC_MCOConfig+0xc4>)
 8006350:	6b1b      	ldr	r3, [r3, #48]	@ 0x30
 8006352:	4a15      	ldr	r2, [pc, #84]	@ (80063a8 <HAL_RCC_MCOConfig+0xc4>)
 8006354:	f043 0304 	orr.w	r3, r3, #4
 8006358:	6313      	str	r3, [r2, #48]	@ 0x30
 800635a:	4b13      	ldr	r3, [pc, #76]	@ (80063a8 <HAL_RCC_MCOConfig+0xc4>)
 800635c:	6b1b      	ldr	r3, [r3, #48]	@ 0x30
 800635e:	f003 0304 	and.w	r3, r3, #4
 8006362:	617b      	str	r3, [r7, #20]
 8006364:	697b      	ldr	r3, [r7, #20]
    GPIO_InitStruct.Pin = MCO2_PIN;
 8006366:	f44f 7300 	mov.w	r3, #512	@ 0x200
 800636a:	61fb      	str	r3, [r7, #28]
    GPIO_InitStruct.Mode = GPIO_MODE_AF_PP;
 800636c:	2302      	movs	r3, #2
 800636e:	623b      	str	r3, [r7, #32]
    GPIO_InitStruct.Speed = GPIO_SPEED_FREQ_VERY_HIGH;
 8006370:	2303      	movs	r3, #3
 8006372:	62bb      	str	r3, [r7, #40]	@ 0x28
    GPIO_InitStruct.Pull = GPIO_NOPULL;
 8006374:	2300      	movs	r3, #0
 8006376:	627b      	str	r3, [r7, #36]	@ 0x24
    GPIO_InitStruct.Alternate = GPIO_AF0_MCO;
 8006378:	2300      	movs	r3, #0
 800637a:	62fb      	str	r3, [r7, #44]	@ 0x2c
    HAL_GPIO_Init(MCO2_GPIO_PORT, &GPIO_InitStruct);
 800637c:	f107 031c 	add.w	r3, r7, #28
 8006380:	4619      	mov	r1, r3
 8006382:	480b      	ldr	r0, [pc, #44]	@ (80063b0 <HAL_RCC_MCOConfig+0xcc>)
 8006384:	f7fe f824 	bl	80043d0 <HAL_GPIO_Init>
    MODIFY_REG(RCC->CFGR, (RCC_CFGR_MCO2 | RCC_CFGR_MCO2PRE), (RCC_MCOSource | (RCC_MCODiv << 3U)));
 8006388:	4b07      	ldr	r3, [pc, #28]	@ (80063a8 <HAL_RCC_MCOConfig+0xc4>)
 800638a:	689b      	ldr	r3, [r3, #8]
 800638c:	f023 4278 	bic.w	r2, r3, #4160749568	@ 0xf8000000
 8006390:	687b      	ldr	r3, [r7, #4]
 8006392:	00d9      	lsls	r1, r3, #3
 8006394:	68bb      	ldr	r3, [r7, #8]
 8006396:	430b      	orrs	r3, r1
 8006398:	4903      	ldr	r1, [pc, #12]	@ (80063a8 <HAL_RCC_MCOConfig+0xc4>)
 800639a:	4313      	orrs	r3, r2
 800639c:	608b      	str	r3, [r1, #8]
}
 800639e:	bf00      	nop
 80063a0:	3730      	adds	r7, #48	@ 0x30
 80063a2:	46bd      	mov	sp, r7
 80063a4:	bd80      	pop	{r7, pc}
 80063a6:	bf00      	nop
 80063a8:	40023800 	.word	0x40023800
 80063ac:	40020000 	.word	0x40020000
 80063b0:	40020800 	.word	0x40020800

080063b4 <HAL_RCC_GetSysClockFreq>:
  *
  *
  * @retval SYSCLK frequency
  */
__weak uint32_t HAL_RCC_GetSysClockFreq(void)
{
 80063b4:	e92d 4fb0 	stmdb	sp!, {r4, r5, r7, r8, r9, sl, fp, lr}
 80063b8:	b090      	sub	sp, #64	@ 0x40
 80063ba:	af00      	add	r7, sp, #0
  uint32_t pllm = 0U;
 80063bc:	2300      	movs	r3, #0
 80063be:	637b      	str	r3, [r7, #52]	@ 0x34
  uint32_t pllvco = 0U;
 80063c0:	2300      	movs	r3, #0
 80063c2:	63fb      	str	r3, [r7, #60]	@ 0x3c
  uint32_t pllp = 0U;
 80063c4:	2300      	movs	r3, #0
 80063c6:	633b      	str	r3, [r7, #48]	@ 0x30
  uint32_t sysclockfreq = 0U;
 80063c8:	2300      	movs	r3, #0
 80063ca:	63bb      	str	r3, [r7, #56]	@ 0x38

  /* Get SYSCLK source -------------------------------------------------------*/
  switch (RCC->CFGR & RCC_CFGR_SWS)
 80063cc:	4b59      	ldr	r3, [pc, #356]	@ (8006534 <HAL_RCC_GetSysClockFreq+0x180>)
 80063ce:	689b      	ldr	r3, [r3, #8]
 80063d0:	f003 030c 	and.w	r3, r3, #12
 80063d4:	2b08      	cmp	r3, #8
 80063d6:	d00d      	beq.n	80063f4 <HAL_RCC_GetSysClockFreq+0x40>
 80063d8:	2b08      	cmp	r3, #8
 80063da:	f200 80a1 	bhi.w	8006520 <HAL_RCC_GetSysClockFreq+0x16c>
 80063de:	2b00      	cmp	r3, #0
 80063e0:	d002      	beq.n	80063e8 <HAL_RCC_GetSysClockFreq+0x34>
 80063e2:	2b04      	cmp	r3, #4
 80063e4:	d003      	beq.n	80063ee <HAL_RCC_GetSysClockFreq+0x3a>
 80063e6:	e09b      	b.n	8006520 <HAL_RCC_GetSysClockFreq+0x16c>
  {
    case RCC_CFGR_SWS_HSI:  /* HSI used as system clock source */
    {
      sysclockfreq = HSI_VALUE;
 80063e8:	4b53      	ldr	r3, [pc, #332]	@ (8006538 <HAL_RCC_GetSysClockFreq+0x184>)
 80063ea:	63bb      	str	r3, [r7, #56]	@ 0x38
      break;
 80063ec:	e09b      	b.n	8006526 <HAL_RCC_GetSysClockFreq+0x172>
    }
    case RCC_CFGR_SWS_HSE:  /* HSE used as system clock  source */
    {
      sysclockfreq = HSE_VALUE;
 80063ee:	4b53      	ldr	r3, [pc, #332]	@ (800653c <HAL_RCC_GetSysClockFreq+0x188>)
 80063f0:	63bb      	str	r3, [r7, #56]	@ 0x38
      break;
 80063f2:	e098      	b.n	8006526 <HAL_RCC_GetSysClockFreq+0x172>
    }
    case RCC_CFGR_SWS_PLL:  /* PLL used as system clock  source */
    {
      /* PLL_VCO = (HSE_VALUE or HSI_VALUE / PLLM) * PLLN
      SYSCLK = PLL_VCO / PLLP */
      pllm = RCC->PLLCFGR & RCC_PLLCFGR_PLLM;
 80063f4:	4b4f      	ldr	r3, [pc, #316]	@ (8006534 <HAL_RCC_GetSysClockFreq+0x180>)
 80063f6:	685b      	ldr	r3, [r3, #4]
 80063f8:	f003 033f 	and.w	r3, r3, #63	@ 0x3f
 80063fc:	637b      	str	r3, [r7, #52]	@ 0x34
      if (__HAL_RCC_GET_PLL_OSCSOURCE() != RCC_PLLSOURCE_HSI)
 80063fe:	4b4d      	ldr	r3, [pc, #308]	@ (8006534 <HAL_RCC_GetSysClockFreq+0x180>)
 8006400:	685b      	ldr	r3, [r3, #4]
 8006402:	f403 0380 	and.w	r3, r3, #4194304	@ 0x400000
 8006406:	2b00      	cmp	r3, #0
 8006408:	d028      	beq.n	800645c <HAL_RCC_GetSysClockFreq+0xa8>
      {
        /* HSE used as PLL clock source */
        pllvco = (uint32_t)((((uint64_t) HSE_VALUE * ((uint64_t)((RCC->PLLCFGR & RCC_PLLCFGR_PLLN) >> RCC_PLLCFGR_PLLN_Pos)))) / (uint64_t)pllm);
 800640a:	4b4a      	ldr	r3, [pc, #296]	@ (8006534 <HAL_RCC_GetSysClockFreq+0x180>)
 800640c:	685b      	ldr	r3, [r3, #4]
 800640e:	099b      	lsrs	r3, r3, #6
 8006410:	2200      	movs	r2, #0
 8006412:	623b      	str	r3, [r7, #32]
 8006414:	627a      	str	r2, [r7, #36]	@ 0x24
 8006416:	6a3b      	ldr	r3, [r7, #32]
 8006418:	f3c3 0008 	ubfx	r0, r3, #0, #9
 800641c:	2100      	movs	r1, #0
 800641e:	4b47      	ldr	r3, [pc, #284]	@ (800653c <HAL_RCC_GetSysClockFreq+0x188>)
 8006420:	fb03 f201 	mul.w	r2, r3, r1
 8006424:	2300      	movs	r3, #0
 8006426:	fb00 f303 	mul.w	r3, r0, r3
 800642a:	4413      	add	r3, r2
 800642c:	4a43      	ldr	r2, [pc, #268]	@ (800653c <HAL_RCC_GetSysClockFreq+0x188>)
 800642e:	fba0 1202 	umull	r1, r2, r0, r2
 8006432:	62fa      	str	r2, [r7, #44]	@ 0x2c
 8006434:	460a      	mov	r2, r1
 8006436:	62ba      	str	r2, [r7, #40]	@ 0x28
 8006438:	6afa      	ldr	r2, [r7, #44]	@ 0x2c
 800643a:	4413      	add	r3, r2
 800643c:	62fb      	str	r3, [r7, #44]	@ 0x2c
 800643e:	6b7b      	ldr	r3, [r7, #52]	@ 0x34
 8006440:	2200      	movs	r2, #0
 8006442:	61bb      	str	r3, [r7, #24]
 8006444:	61fa      	str	r2, [r7, #28]
 8006446:	e9d7 2306 	ldrd	r2, r3, [r7, #24]
 800644a:	e9d7 010a 	ldrd	r0, r1, [r7, #40]	@ 0x28
 800644e:	f7f9 ff1f 	bl	8000290 <__aeabi_uldivmod>
 8006452:	4602      	mov	r2, r0
 8006454:	460b      	mov	r3, r1
 8006456:	4613      	mov	r3, r2
 8006458:	63fb      	str	r3, [r7, #60]	@ 0x3c
 800645a:	e053      	b.n	8006504 <HAL_RCC_GetSysClockFreq+0x150>
      }
      else
      {
        /* HSI used as PLL clock source */
        pllvco = (uint32_t)((((uint64_t) HSI_VALUE * ((uint64_t)((RCC->PLLCFGR & RCC_PLLCFGR_PLLN) >> RCC_PLLCFGR_PLLN_Pos)))) / (uint64_t)pllm);
 800645c:	4b35      	ldr	r3, [pc, #212]	@ (8006534 <HAL_RCC_GetSysClockFreq+0x180>)
 800645e:	685b      	ldr	r3, [r3, #4]
 8006460:	099b      	lsrs	r3, r3, #6
 8006462:	2200      	movs	r2, #0
 8006464:	613b      	str	r3, [r7, #16]
 8006466:	617a      	str	r2, [r7, #20]
 8006468:	693b      	ldr	r3, [r7, #16]
 800646a:	f3c3 0a08 	ubfx	sl, r3, #0, #9
 800646e:	f04f 0b00 	mov.w	fp, #0
 8006472:	4652      	mov	r2, sl
 8006474:	465b      	mov	r3, fp
 8006476:	f04f 0000 	mov.w	r0, #0
 800647a:	f04f 0100 	mov.w	r1, #0
 800647e:	0159      	lsls	r1, r3, #5
 8006480:	ea41 61d2 	orr.w	r1, r1, r2, lsr #27
 8006484:	0150      	lsls	r0, r2, #5
 8006486:	4602      	mov	r2, r0
 8006488:	460b      	mov	r3, r1
 800648a:	ebb2 080a 	subs.w	r8, r2, sl
 800648e:	eb63 090b 	sbc.w	r9, r3, fp
 8006492:	f04f 0200 	mov.w	r2, #0
 8006496:	f04f 0300 	mov.w	r3, #0
 800649a:	ea4f 1389 	mov.w	r3, r9, lsl #6
 800649e:	ea43 6398 	orr.w	r3, r3, r8, lsr #26
 80064a2:	ea4f 1288 	mov.w	r2, r8, lsl #6
 80064a6:	ebb2 0408 	subs.w	r4, r2, r8
 80064aa:	eb63 0509 	sbc.w	r5, r3, r9
 80064ae:	f04f 0200 	mov.w	r2, #0
 80064b2:	f04f 0300 	mov.w	r3, #0
 80064b6:	00eb      	lsls	r3, r5, #3
 80064b8:	ea43 7354 	orr.w	r3, r3, r4, lsr #29
 80064bc:	00e2      	lsls	r2, r4, #3
 80064be:	4614      	mov	r4, r2
 80064c0:	461d      	mov	r5, r3
 80064c2:	eb14 030a 	adds.w	r3, r4, sl
 80064c6:	603b      	str	r3, [r7, #0]
 80064c8:	eb45 030b 	adc.w	r3, r5, fp
 80064cc:	607b      	str	r3, [r7, #4]
 80064ce:	f04f 0200 	mov.w	r2, #0
 80064d2:	f04f 0300 	mov.w	r3, #0
 80064d6:	e9d7 4500 	ldrd	r4, r5, [r7]
 80064da:	4629      	mov	r1, r5
 80064dc:	028b      	lsls	r3, r1, #10
 80064de:	4621      	mov	r1, r4
 80064e0:	ea43 5391 	orr.w	r3, r3, r1, lsr #22
 80064e4:	4621      	mov	r1, r4
 80064e6:	028a      	lsls	r2, r1, #10
 80064e8:	4610      	mov	r0, r2
 80064ea:	4619      	mov	r1, r3
 80064ec:	6b7b      	ldr	r3, [r7, #52]	@ 0x34
 80064ee:	2200      	movs	r2, #0
 80064f0:	60bb      	str	r3, [r7, #8]
 80064f2:	60fa      	str	r2, [r7, #12]
 80064f4:	e9d7 2302 	ldrd	r2, r3, [r7, #8]
 80064f8:	f7f9 feca 	bl	8000290 <__aeabi_uldivmod>
 80064fc:	4602      	mov	r2, r0
 80064fe:	460b      	mov	r3, r1
 8006500:	4613      	mov	r3, r2
 8006502:	63fb      	str	r3, [r7, #60]	@ 0x3c
      }
      pllp = ((((RCC->PLLCFGR & RCC_PLLCFGR_PLLP) >> RCC_PLLCFGR_PLLP_Pos) + 1U) * 2U);
 8006504:	4b0b      	ldr	r3, [pc, #44]	@ (8006534 <HAL_RCC_GetSysClockFreq+0x180>)
 8006506:	685b      	ldr	r3, [r3, #4]
 8006508:	0c1b      	lsrs	r3, r3, #16
 800650a:	f003 0303 	and.w	r3, r3, #3
 800650e:	3301      	adds	r3, #1
 8006510:	005b      	lsls	r3, r3, #1
 8006512:	633b      	str	r3, [r7, #48]	@ 0x30

      sysclockfreq = pllvco / pllp;
 8006514:	6bfa      	ldr	r2, [r7, #60]	@ 0x3c
 8006516:	6b3b      	ldr	r3, [r7, #48]	@ 0x30
 8006518:	fbb2 f3f3 	udiv	r3, r2, r3
 800651c:	63bb      	str	r3, [r7, #56]	@ 0x38
      break;
 800651e:	e002      	b.n	8006526 <HAL_RCC_GetSysClockFreq+0x172>
    }
    default:
    {
      sysclockfreq = HSI_VALUE;
 8006520:	4b05      	ldr	r3, [pc, #20]	@ (8006538 <HAL_RCC_GetSysClockFreq+0x184>)
 8006522:	63bb      	str	r3, [r7, #56]	@ 0x38
      break;
 8006524:	bf00      	nop
    }
  }
  return sysclockfreq;
 8006526:	6bbb      	ldr	r3, [r7, #56]	@ 0x38
}
 8006528:	4618      	mov	r0, r3
 800652a:	3740      	adds	r7, #64	@ 0x40
 800652c:	46bd      	mov	sp, r7
 800652e:	e8bd 8fb0 	ldmia.w	sp!, {r4, r5, r7, r8, r9, sl, fp, pc}
 8006532:	bf00      	nop
 8006534:	40023800 	.word	0x40023800
 8006538:	00f42400 	.word	0x00f42400
 800653c:	01312d00 	.word	0x01312d00

08006540 <HAL_RCC_GetHCLKFreq>:
  * @note   The SystemCoreClock CMSIS variable is used to store System Clock Frequency
  *         and updated within this function
  * @retval HCLK frequency
  */
uint32_t HAL_RCC_GetHCLKFreq(void)
{
 8006540:	b480      	push	{r7}
 8006542:	af00      	add	r7, sp, #0
  return SystemCoreClock;
 8006544:	4b03      	ldr	r3, [pc, #12]	@ (8006554 <HAL_RCC_GetHCLKFreq+0x14>)
 8006546:	681b      	ldr	r3, [r3, #0]
}
 8006548:	4618      	mov	r0, r3
 800654a:	46bd      	mov	sp, r7
 800654c:	f85d 7b04 	ldr.w	r7, [sp], #4
 8006550:	4770      	bx	lr
 8006552:	bf00      	nop
 8006554:	20000000 	.word	0x20000000

08006558 <HAL_SPI_Init>:
  * @param  hspi pointer to a SPI_HandleTypeDef structure that contains
  *               the configuration information for SPI module.
  * @retval HAL status
  */
HAL_StatusTypeDef HAL_SPI_Init(SPI_HandleTypeDef *hspi)
{
 8006558:	b580      	push	{r7, lr}
 800655a:	b082      	sub	sp, #8
 800655c:	af00      	add	r7, sp, #0
 800655e:	6078      	str	r0, [r7, #4]
  /* Check the SPI handle allocation */
  if (hspi == NULL)
 8006560:	687b      	ldr	r3, [r7, #4]
 8006562:	2b00      	cmp	r3, #0
 8006564:	d101      	bne.n	800656a <HAL_SPI_Init+0x12>
  {
    return HAL_ERROR;
 8006566:	2301      	movs	r3, #1
 8006568:	e07b      	b.n	8006662 <HAL_SPI_Init+0x10a>
  assert_param(IS_SPI_DATASIZE(hspi->Init.DataSize));
  assert_param(IS_SPI_NSS(hspi->Init.NSS));
  assert_param(IS_SPI_BAUDRATE_PRESCALER(hspi->Init.BaudRatePrescaler));
  assert_param(IS_SPI_FIRST_BIT(hspi->Init.FirstBit));
  assert_param(IS_SPI_TIMODE(hspi->Init.TIMode));
  if (hspi->Init.TIMode == SPI_TIMODE_DISABLE)
 800656a:	687b      	ldr	r3, [r7, #4]
 800656c:	6a5b      	ldr	r3, [r3, #36]	@ 0x24
 800656e:	2b00      	cmp	r3, #0
 8006570:	d108      	bne.n	8006584 <HAL_SPI_Init+0x2c>
  {
    assert_param(IS_SPI_CPOL(hspi->Init.CLKPolarity));
    assert_param(IS_SPI_CPHA(hspi->Init.CLKPhase));

    if (hspi->Init.Mode == SPI_MODE_MASTER)
 8006572:	687b      	ldr	r3, [r7, #4]
 8006574:	685b      	ldr	r3, [r3, #4]
 8006576:	f5b3 7f82 	cmp.w	r3, #260	@ 0x104
 800657a:	d009      	beq.n	8006590 <HAL_SPI_Init+0x38>
      assert_param(IS_SPI_BAUDRATE_PRESCALER(hspi->Init.BaudRatePrescaler));
    }
    else
    {
      /* Baudrate prescaler not use in Motoraola Slave mode. force to default value */
      hspi->Init.BaudRatePrescaler = SPI_BAUDRATEPRESCALER_2;
 800657c:	687b      	ldr	r3, [r7, #4]
 800657e:	2200      	movs	r2, #0
 8006580:	61da      	str	r2, [r3, #28]
 8006582:	e005      	b.n	8006590 <HAL_SPI_Init+0x38>
  else
  {
    assert_param(IS_SPI_BAUDRATE_PRESCALER(hspi->Init.BaudRatePrescaler));

    /* Force polarity and phase to TI protocaol requirements */
    hspi->Init.CLKPolarity = SPI_POLARITY_LOW;
 8006584:	687b      	ldr	r3, [r7, #4]
 8006586:	2200      	movs	r2, #0
 8006588:	611a      	str	r2, [r3, #16]
    hspi->Init.CLKPhase    = SPI_PHASE_1EDGE;
 800658a:	687b      	ldr	r3, [r7, #4]
 800658c:	2200      	movs	r2, #0
 800658e:	615a      	str	r2, [r3, #20]
  if (hspi->Init.CRCCalculation == SPI_CRCCALCULATION_ENABLE)
  {
    assert_param(IS_SPI_CRC_POLYNOMIAL(hspi->Init.CRCPolynomial));
  }
#else
  hspi->Init.CRCCalculation = SPI_CRCCALCULATION_DISABLE;
 8006590:	687b      	ldr	r3, [r7, #4]
 8006592:	2200      	movs	r2, #0
 8006594:	629a      	str	r2, [r3, #40]	@ 0x28
#endif /* USE_SPI_CRC */

  if (hspi->State == HAL_SPI_STATE_RESET)
 8006596:	687b      	ldr	r3, [r7, #4]
 8006598:	f893 3051 	ldrb.w	r3, [r3, #81]	@ 0x51
 800659c:	b2db      	uxtb	r3, r3
 800659e:	2b00      	cmp	r3, #0
 80065a0:	d106      	bne.n	80065b0 <HAL_SPI_Init+0x58>
  {
    /* Allocate lock resource and initialize it */
    hspi->Lock = HAL_UNLOCKED;
 80065a2:	687b      	ldr	r3, [r7, #4]
 80065a4:	2200      	movs	r2, #0
 80065a6:	f883 2050 	strb.w	r2, [r3, #80]	@ 0x50

    /* Init the low level hardware : GPIO, CLOCK, NVIC... */
    hspi->MspInitCallback(hspi);
#else
    /* Init the low level hardware : GPIO, CLOCK, NVIC... */
    HAL_SPI_MspInit(hspi);
 80065aa:	6878      	ldr	r0, [r7, #4]
 80065ac:	f000 f85d 	bl	800666a <HAL_SPI_MspInit>
#endif /* USE_HAL_SPI_REGISTER_CALLBACKS */
  }

  hspi->State = HAL_SPI_STATE_BUSY;
 80065b0:	687b      	ldr	r3, [r7, #4]
 80065b2:	2202      	movs	r2, #2
 80065b4:	f883 2051 	strb.w	r2, [r3, #81]	@ 0x51

  /* Disable the selected SPI peripheral */
  __HAL_SPI_DISABLE(hspi);
 80065b8:	687b      	ldr	r3, [r7, #4]
 80065ba:	681b      	ldr	r3, [r3, #0]
 80065bc:	681a      	ldr	r2, [r3, #0]
 80065be:	687b      	ldr	r3, [r7, #4]
 80065c0:	681b      	ldr	r3, [r3, #0]
 80065c2:	f022 0240 	bic.w	r2, r2, #64	@ 0x40
 80065c6:	601a      	str	r2, [r3, #0]

  /*----------------------- SPIx CR1 & CR2 Configuration ---------------------*/
  /* Configure : SPI Mode, Communication Mode, Data size, Clock polarity and phase, NSS management,
  Communication speed, First bit and CRC calculation state */
  WRITE_REG(hspi->Instance->CR1, ((hspi->Init.Mode & (SPI_CR1_MSTR | SPI_CR1_SSI)) |
 80065c8:	687b      	ldr	r3, [r7, #4]
 80065ca:	685b      	ldr	r3, [r3, #4]
 80065cc:	f403 7282 	and.w	r2, r3, #260	@ 0x104
 80065d0:	687b      	ldr	r3, [r7, #4]
 80065d2:	689b      	ldr	r3, [r3, #8]
 80065d4:	f403 4304 	and.w	r3, r3, #33792	@ 0x8400
 80065d8:	431a      	orrs	r2, r3
 80065da:	687b      	ldr	r3, [r7, #4]
 80065dc:	68db      	ldr	r3, [r3, #12]
 80065de:	f403 6300 	and.w	r3, r3, #2048	@ 0x800
 80065e2:	431a      	orrs	r2, r3
 80065e4:	687b      	ldr	r3, [r7, #4]
 80065e6:	691b      	ldr	r3, [r3, #16]
 80065e8:	f003 0302 	and.w	r3, r3, #2
 80065ec:	431a      	orrs	r2, r3
 80065ee:	687b      	ldr	r3, [r7, #4]
 80065f0:	695b      	ldr	r3, [r3, #20]
 80065f2:	f003 0301 	and.w	r3, r3, #1
 80065f6:	431a      	orrs	r2, r3
 80065f8:	687b      	ldr	r3, [r7, #4]
 80065fa:	699b      	ldr	r3, [r3, #24]
 80065fc:	f403 7300 	and.w	r3, r3, #512	@ 0x200
 8006600:	431a      	orrs	r2, r3
 8006602:	687b      	ldr	r3, [r7, #4]
 8006604:	69db      	ldr	r3, [r3, #28]
 8006606:	f003 0338 	and.w	r3, r3, #56	@ 0x38
 800660a:	431a      	orrs	r2, r3
 800660c:	687b      	ldr	r3, [r7, #4]
 800660e:	6a1b      	ldr	r3, [r3, #32]
 8006610:	f003 0380 	and.w	r3, r3, #128	@ 0x80
 8006614:	ea42 0103 	orr.w	r1, r2, r3
 8006618:	687b      	ldr	r3, [r7, #4]
 800661a:	6a9b      	ldr	r3, [r3, #40]	@ 0x28
 800661c:	f403 5200 	and.w	r2, r3, #8192	@ 0x2000
 8006620:	687b      	ldr	r3, [r7, #4]
 8006622:	681b      	ldr	r3, [r3, #0]
 8006624:	430a      	orrs	r2, r1
 8006626:	601a      	str	r2, [r3, #0]
                                  (hspi->Init.BaudRatePrescaler & SPI_CR1_BR_Msk) |
                                  (hspi->Init.FirstBit  & SPI_CR1_LSBFIRST) |
                                  (hspi->Init.CRCCalculation & SPI_CR1_CRCEN)));

  /* Configure : NSS management, TI Mode */
  WRITE_REG(hspi->Instance->CR2, (((hspi->Init.NSS >> 16U) & SPI_CR2_SSOE) | (hspi->Init.TIMode & SPI_CR2_FRF)));
 8006628:	687b      	ldr	r3, [r7, #4]
 800662a:	699b      	ldr	r3, [r3, #24]
 800662c:	0c1b      	lsrs	r3, r3, #16
 800662e:	f003 0104 	and.w	r1, r3, #4
 8006632:	687b      	ldr	r3, [r7, #4]
 8006634:	6a5b      	ldr	r3, [r3, #36]	@ 0x24
 8006636:	f003 0210 	and.w	r2, r3, #16
 800663a:	687b      	ldr	r3, [r7, #4]
 800663c:	681b      	ldr	r3, [r3, #0]
 800663e:	430a      	orrs	r2, r1
 8006640:	605a      	str	r2, [r3, #4]
  }
#endif /* USE_SPI_CRC */

#if defined(SPI_I2SCFGR_I2SMOD)
  /* Activate the SPI mode (Make sure that I2SMOD bit in I2SCFGR register is reset) */
  CLEAR_BIT(hspi->Instance->I2SCFGR, SPI_I2SCFGR_I2SMOD);
 8006642:	687b      	ldr	r3, [r7, #4]
 8006644:	681b      	ldr	r3, [r3, #0]
 8006646:	69da      	ldr	r2, [r3, #28]
 8006648:	687b      	ldr	r3, [r7, #4]
 800664a:	681b      	ldr	r3, [r3, #0]
 800664c:	f422 6200 	bic.w	r2, r2, #2048	@ 0x800
 8006650:	61da      	str	r2, [r3, #28]
#endif /* SPI_I2SCFGR_I2SMOD */

  hspi->ErrorCode = HAL_SPI_ERROR_NONE;
 8006652:	687b      	ldr	r3, [r7, #4]
 8006654:	2200      	movs	r2, #0
 8006656:	655a      	str	r2, [r3, #84]	@ 0x54
  hspi->State     = HAL_SPI_STATE_READY;
 8006658:	687b      	ldr	r3, [r7, #4]
 800665a:	2201      	movs	r2, #1
 800665c:	f883 2051 	strb.w	r2, [r3, #81]	@ 0x51

  return HAL_OK;
 8006660:	2300      	movs	r3, #0
}
 8006662:	4618      	mov	r0, r3
 8006664:	3708      	adds	r7, #8
 8006666:	46bd      	mov	sp, r7
 8006668:	bd80      	pop	{r7, pc}

0800666a <HAL_SPI_MspInit>:
  * @param  hspi pointer to a SPI_HandleTypeDef structure that contains
  *               the configuration information for SPI module.
  * @retval None
  */
__weak void HAL_SPI_MspInit(SPI_HandleTypeDef *hspi)
{
 800666a:	b480      	push	{r7}
 800666c:	b083      	sub	sp, #12
 800666e:	af00      	add	r7, sp, #0
 8006670:	6078      	str	r0, [r7, #4]
  UNUSED(hspi);

  /* NOTE : This function should not be modified, when the callback is needed,
            the HAL_SPI_MspInit should be implemented in the user file
   */
}
 8006672:	bf00      	nop
 8006674:	370c      	adds	r7, #12
 8006676:	46bd      	mov	sp, r7
 8006678:	f85d 7b04 	ldr.w	r7, [sp], #4
 800667c:	4770      	bx	lr

0800667e <HAL_SPI_Transmit>:
  * @param  Size amount of data elements (u8 or u16) to be sent
  * @param  Timeout Timeout duration in ms
  * @retval HAL status
  */
HAL_StatusTypeDef HAL_SPI_Transmit(SPI_HandleTypeDef *hspi, const uint8_t *pData, uint16_t Size, uint32_t Timeout)
{
 800667e:	b580      	push	{r7, lr}
 8006680:	b088      	sub	sp, #32
 8006682:	af00      	add	r7, sp, #0
 8006684:	60f8      	str	r0, [r7, #12]
 8006686:	60b9      	str	r1, [r7, #8]
 8006688:	603b      	str	r3, [r7, #0]
 800668a:	4613      	mov	r3, r2
 800668c:	80fb      	strh	r3, [r7, #6]

  /* Check Direction parameter */
  assert_param(IS_SPI_DIRECTION_2LINES_OR_1LINE(hspi->Init.Direction));

  /* Init tickstart for timeout management*/
  tickstart = HAL_GetTick();
 800668e:	f7fd fbd3 	bl	8003e38 <HAL_GetTick>
 8006692:	61f8      	str	r0, [r7, #28]
  initial_TxXferCount = Size;
 8006694:	88fb      	ldrh	r3, [r7, #6]
 8006696:	837b      	strh	r3, [r7, #26]

  if (hspi->State != HAL_SPI_STATE_READY)
 8006698:	68fb      	ldr	r3, [r7, #12]
 800669a:	f893 3051 	ldrb.w	r3, [r3, #81]	@ 0x51
 800669e:	b2db      	uxtb	r3, r3
 80066a0:	2b01      	cmp	r3, #1
 80066a2:	d001      	beq.n	80066a8 <HAL_SPI_Transmit+0x2a>
  {
    return HAL_BUSY;
 80066a4:	2302      	movs	r3, #2
 80066a6:	e12a      	b.n	80068fe <HAL_SPI_Transmit+0x280>
  }

  if ((pData == NULL) || (Size == 0U))
 80066a8:	68bb      	ldr	r3, [r7, #8]
 80066aa:	2b00      	cmp	r3, #0
 80066ac:	d002      	beq.n	80066b4 <HAL_SPI_Transmit+0x36>
 80066ae:	88fb      	ldrh	r3, [r7, #6]
 80066b0:	2b00      	cmp	r3, #0
 80066b2:	d101      	bne.n	80066b8 <HAL_SPI_Transmit+0x3a>
  {
    return HAL_ERROR;
 80066b4:	2301      	movs	r3, #1
 80066b6:	e122      	b.n	80068fe <HAL_SPI_Transmit+0x280>
  }

  /* Process Locked */
  __HAL_LOCK(hspi);
 80066b8:	68fb      	ldr	r3, [r7, #12]
 80066ba:	f893 3050 	ldrb.w	r3, [r3, #80]	@ 0x50
 80066be:	2b01      	cmp	r3, #1
 80066c0:	d101      	bne.n	80066c6 <HAL_SPI_Transmit+0x48>
 80066c2:	2302      	movs	r3, #2
 80066c4:	e11b      	b.n	80068fe <HAL_SPI_Transmit+0x280>
 80066c6:	68fb      	ldr	r3, [r7, #12]
 80066c8:	2201      	movs	r2, #1
 80066ca:	f883 2050 	strb.w	r2, [r3, #80]	@ 0x50

  /* Set the transaction information */
  hspi->State       = HAL_SPI_STATE_BUSY_TX;
 80066ce:	68fb      	ldr	r3, [r7, #12]
 80066d0:	2203      	movs	r2, #3
 80066d2:	f883 2051 	strb.w	r2, [r3, #81]	@ 0x51
  hspi->ErrorCode   = HAL_SPI_ERROR_NONE;
 80066d6:	68fb      	ldr	r3, [r7, #12]
 80066d8:	2200      	movs	r2, #0
 80066da:	655a      	str	r2, [r3, #84]	@ 0x54
  hspi->pTxBuffPtr  = (const uint8_t *)pData;
 80066dc:	68fb      	ldr	r3, [r7, #12]
 80066de:	68ba      	ldr	r2, [r7, #8]
 80066e0:	631a      	str	r2, [r3, #48]	@ 0x30
  hspi->TxXferSize  = Size;
 80066e2:	68fb      	ldr	r3, [r7, #12]
 80066e4:	88fa      	ldrh	r2, [r7, #6]
 80066e6:	869a      	strh	r2, [r3, #52]	@ 0x34
  hspi->TxXferCount = Size;
 80066e8:	68fb      	ldr	r3, [r7, #12]
 80066ea:	88fa      	ldrh	r2, [r7, #6]
 80066ec:	86da      	strh	r2, [r3, #54]	@ 0x36

  /*Init field not used in handle to zero */
  hspi->pRxBuffPtr  = (uint8_t *)NULL;
 80066ee:	68fb      	ldr	r3, [r7, #12]
 80066f0:	2200      	movs	r2, #0
 80066f2:	639a      	str	r2, [r3, #56]	@ 0x38
  hspi->RxXferSize  = 0U;
 80066f4:	68fb      	ldr	r3, [r7, #12]
 80066f6:	2200      	movs	r2, #0
 80066f8:	879a      	strh	r2, [r3, #60]	@ 0x3c
  hspi->RxXferCount = 0U;
 80066fa:	68fb      	ldr	r3, [r7, #12]
 80066fc:	2200      	movs	r2, #0
 80066fe:	87da      	strh	r2, [r3, #62]	@ 0x3e
  hspi->TxISR       = NULL;
 8006700:	68fb      	ldr	r3, [r7, #12]
 8006702:	2200      	movs	r2, #0
 8006704:	645a      	str	r2, [r3, #68]	@ 0x44
  hspi->RxISR       = NULL;
 8006706:	68fb      	ldr	r3, [r7, #12]
 8006708:	2200      	movs	r2, #0
 800670a:	641a      	str	r2, [r3, #64]	@ 0x40

  /* Configure communication direction : 1Line */
  if (hspi->Init.Direction == SPI_DIRECTION_1LINE)
 800670c:	68fb      	ldr	r3, [r7, #12]
 800670e:	689b      	ldr	r3, [r3, #8]
 8006710:	f5b3 4f00 	cmp.w	r3, #32768	@ 0x8000
 8006714:	d10f      	bne.n	8006736 <HAL_SPI_Transmit+0xb8>
  {
    /* Disable SPI Peripheral before set 1Line direction (BIDIOE bit) */
    __HAL_SPI_DISABLE(hspi);
 8006716:	68fb      	ldr	r3, [r7, #12]
 8006718:	681b      	ldr	r3, [r3, #0]
 800671a:	681a      	ldr	r2, [r3, #0]
 800671c:	68fb      	ldr	r3, [r7, #12]
 800671e:	681b      	ldr	r3, [r3, #0]
 8006720:	f022 0240 	bic.w	r2, r2, #64	@ 0x40
 8006724:	601a      	str	r2, [r3, #0]
    SPI_1LINE_TX(hspi);
 8006726:	68fb      	ldr	r3, [r7, #12]
 8006728:	681b      	ldr	r3, [r3, #0]
 800672a:	681a      	ldr	r2, [r3, #0]
 800672c:	68fb      	ldr	r3, [r7, #12]
 800672e:	681b      	ldr	r3, [r3, #0]
 8006730:	f442 4280 	orr.w	r2, r2, #16384	@ 0x4000
 8006734:	601a      	str	r2, [r3, #0]
    SPI_RESET_CRC(hspi);
  }
#endif /* USE_SPI_CRC */

  /* Check if the SPI is already enabled */
  if ((hspi->Instance->CR1 & SPI_CR1_SPE) != SPI_CR1_SPE)
 8006736:	68fb      	ldr	r3, [r7, #12]
 8006738:	681b      	ldr	r3, [r3, #0]
 800673a:	681b      	ldr	r3, [r3, #0]
 800673c:	f003 0340 	and.w	r3, r3, #64	@ 0x40
 8006740:	2b40      	cmp	r3, #64	@ 0x40
 8006742:	d007      	beq.n	8006754 <HAL_SPI_Transmit+0xd6>
  {
    /* Enable SPI peripheral */
    __HAL_SPI_ENABLE(hspi);
 8006744:	68fb      	ldr	r3, [r7, #12]
 8006746:	681b      	ldr	r3, [r3, #0]
 8006748:	681a      	ldr	r2, [r3, #0]
 800674a:	68fb      	ldr	r3, [r7, #12]
 800674c:	681b      	ldr	r3, [r3, #0]
 800674e:	f042 0240 	orr.w	r2, r2, #64	@ 0x40
 8006752:	601a      	str	r2, [r3, #0]
  }

  /* Transmit data in 16 Bit mode */
  if (hspi->Init.DataSize == SPI_DATASIZE_16BIT)
 8006754:	68fb      	ldr	r3, [r7, #12]
 8006756:	68db      	ldr	r3, [r3, #12]
 8006758:	f5b3 6f00 	cmp.w	r3, #2048	@ 0x800
 800675c:	d152      	bne.n	8006804 <HAL_SPI_Transmit+0x186>
  {
    if ((hspi->Init.Mode == SPI_MODE_SLAVE) || (initial_TxXferCount == 0x01U))
 800675e:	68fb      	ldr	r3, [r7, #12]
 8006760:	685b      	ldr	r3, [r3, #4]
 8006762:	2b00      	cmp	r3, #0
 8006764:	d002      	beq.n	800676c <HAL_SPI_Transmit+0xee>
 8006766:	8b7b      	ldrh	r3, [r7, #26]
 8006768:	2b01      	cmp	r3, #1
 800676a:	d145      	bne.n	80067f8 <HAL_SPI_Transmit+0x17a>
    {
      hspi->Instance->DR = *((const uint16_t *)hspi->pTxBuffPtr);
 800676c:	68fb      	ldr	r3, [r7, #12]
 800676e:	6b1b      	ldr	r3, [r3, #48]	@ 0x30
 8006770:	881a      	ldrh	r2, [r3, #0]
 8006772:	68fb      	ldr	r3, [r7, #12]
 8006774:	681b      	ldr	r3, [r3, #0]
 8006776:	60da      	str	r2, [r3, #12]
      hspi->pTxBuffPtr += sizeof(uint16_t);
 8006778:	68fb      	ldr	r3, [r7, #12]
 800677a:	6b1b      	ldr	r3, [r3, #48]	@ 0x30
 800677c:	1c9a      	adds	r2, r3, #2
 800677e:	68fb      	ldr	r3, [r7, #12]
 8006780:	631a      	str	r2, [r3, #48]	@ 0x30
      hspi->TxXferCount--;
 8006782:	68fb      	ldr	r3, [r7, #12]
 8006784:	8edb      	ldrh	r3, [r3, #54]	@ 0x36
 8006786:	b29b      	uxth	r3, r3
 8006788:	3b01      	subs	r3, #1
 800678a:	b29a      	uxth	r2, r3
 800678c:	68fb      	ldr	r3, [r7, #12]
 800678e:	86da      	strh	r2, [r3, #54]	@ 0x36
    }
    /* Transmit data in 16 Bit mode */
    while (hspi->TxXferCount > 0U)
 8006790:	e032      	b.n	80067f8 <HAL_SPI_Transmit+0x17a>
    {
      /* Wait until TXE flag is set to send data */
      if (__HAL_SPI_GET_FLAG(hspi, SPI_FLAG_TXE))
 8006792:	68fb      	ldr	r3, [r7, #12]
 8006794:	681b      	ldr	r3, [r3, #0]
 8006796:	689b      	ldr	r3, [r3, #8]
 8006798:	f003 0302 	and.w	r3, r3, #2
 800679c:	2b02      	cmp	r3, #2
 800679e:	d112      	bne.n	80067c6 <HAL_SPI_Transmit+0x148>
      {
        hspi->Instance->DR = *((const uint16_t *)hspi->pTxBuffPtr);
 80067a0:	68fb      	ldr	r3, [r7, #12]
 80067a2:	6b1b      	ldr	r3, [r3, #48]	@ 0x30
 80067a4:	881a      	ldrh	r2, [r3, #0]
 80067a6:	68fb      	ldr	r3, [r7, #12]
 80067a8:	681b      	ldr	r3, [r3, #0]
 80067aa:	60da      	str	r2, [r3, #12]
        hspi->pTxBuffPtr += sizeof(uint16_t);
 80067ac:	68fb      	ldr	r3, [r7, #12]
 80067ae:	6b1b      	ldr	r3, [r3, #48]	@ 0x30
 80067b0:	1c9a      	adds	r2, r3, #2
 80067b2:	68fb      	ldr	r3, [r7, #12]
 80067b4:	631a      	str	r2, [r3, #48]	@ 0x30
        hspi->TxXferCount--;
 80067b6:	68fb      	ldr	r3, [r7, #12]
 80067b8:	8edb      	ldrh	r3, [r3, #54]	@ 0x36
 80067ba:	b29b      	uxth	r3, r3
 80067bc:	3b01      	subs	r3, #1
 80067be:	b29a      	uxth	r2, r3
 80067c0:	68fb      	ldr	r3, [r7, #12]
 80067c2:	86da      	strh	r2, [r3, #54]	@ 0x36
 80067c4:	e018      	b.n	80067f8 <HAL_SPI_Transmit+0x17a>
      }
      else
      {
        /* Timeout management */
        if ((((HAL_GetTick() - tickstart) >=  Timeout) && (Timeout != HAL_MAX_DELAY)) || (Timeout == 0U))
 80067c6:	f7fd fb37 	bl	8003e38 <HAL_GetTick>
 80067ca:	4602      	mov	r2, r0
 80067cc:	69fb      	ldr	r3, [r7, #28]
 80067ce:	1ad3      	subs	r3, r2, r3
 80067d0:	683a      	ldr	r2, [r7, #0]
 80067d2:	429a      	cmp	r2, r3
 80067d4:	d803      	bhi.n	80067de <HAL_SPI_Transmit+0x160>
 80067d6:	683b      	ldr	r3, [r7, #0]
 80067d8:	f1b3 3fff 	cmp.w	r3, #4294967295
 80067dc:	d102      	bne.n	80067e4 <HAL_SPI_Transmit+0x166>
 80067de:	683b      	ldr	r3, [r7, #0]
 80067e0:	2b00      	cmp	r3, #0
 80067e2:	d109      	bne.n	80067f8 <HAL_SPI_Transmit+0x17a>
        {
          hspi->State = HAL_SPI_STATE_READY;
 80067e4:	68fb      	ldr	r3, [r7, #12]
 80067e6:	2201      	movs	r2, #1
 80067e8:	f883 2051 	strb.w	r2, [r3, #81]	@ 0x51
          __HAL_UNLOCK(hspi);
 80067ec:	68fb      	ldr	r3, [r7, #12]
 80067ee:	2200      	movs	r2, #0
 80067f0:	f883 2050 	strb.w	r2, [r3, #80]	@ 0x50
          return HAL_TIMEOUT;
 80067f4:	2303      	movs	r3, #3
 80067f6:	e082      	b.n	80068fe <HAL_SPI_Transmit+0x280>
    while (hspi->TxXferCount > 0U)
 80067f8:	68fb      	ldr	r3, [r7, #12]
 80067fa:	8edb      	ldrh	r3, [r3, #54]	@ 0x36
 80067fc:	b29b      	uxth	r3, r3
 80067fe:	2b00      	cmp	r3, #0
 8006800:	d1c7      	bne.n	8006792 <HAL_SPI_Transmit+0x114>
 8006802:	e053      	b.n	80068ac <HAL_SPI_Transmit+0x22e>
    }
  }
  /* Transmit data in 8 Bit mode */
  else
  {
    if ((hspi->Init.Mode == SPI_MODE_SLAVE) || (initial_TxXferCount == 0x01U))
 8006804:	68fb      	ldr	r3, [r7, #12]
 8006806:	685b      	ldr	r3, [r3, #4]
 8006808:	2b00      	cmp	r3, #0
 800680a:	d002      	beq.n	8006812 <HAL_SPI_Transmit+0x194>
 800680c:	8b7b      	ldrh	r3, [r7, #26]
 800680e:	2b01      	cmp	r3, #1
 8006810:	d147      	bne.n	80068a2 <HAL_SPI_Transmit+0x224>
    {
      *((__IO uint8_t *)&hspi->Instance->DR) = *((const uint8_t *)hspi->pTxBuffPtr);
 8006812:	68fb      	ldr	r3, [r7, #12]
 8006814:	6b1a      	ldr	r2, [r3, #48]	@ 0x30
 8006816:	68fb      	ldr	r3, [r7, #12]
 8006818:	681b      	ldr	r3, [r3, #0]
 800681a:	330c      	adds	r3, #12
 800681c:	7812      	ldrb	r2, [r2, #0]
 800681e:	701a      	strb	r2, [r3, #0]
      hspi->pTxBuffPtr += sizeof(uint8_t);
 8006820:	68fb      	ldr	r3, [r7, #12]
 8006822:	6b1b      	ldr	r3, [r3, #48]	@ 0x30
 8006824:	1c5a      	adds	r2, r3, #1
 8006826:	68fb      	ldr	r3, [r7, #12]
 8006828:	631a      	str	r2, [r3, #48]	@ 0x30
      hspi->TxXferCount--;
 800682a:	68fb      	ldr	r3, [r7, #12]
 800682c:	8edb      	ldrh	r3, [r3, #54]	@ 0x36
 800682e:	b29b      	uxth	r3, r3
 8006830:	3b01      	subs	r3, #1
 8006832:	b29a      	uxth	r2, r3
 8006834:	68fb      	ldr	r3, [r7, #12]
 8006836:	86da      	strh	r2, [r3, #54]	@ 0x36
    }
    while (hspi->TxXferCount > 0U)
 8006838:	e033      	b.n	80068a2 <HAL_SPI_Transmit+0x224>
    {
      /* Wait until TXE flag is set to send data */
      if (__HAL_SPI_GET_FLAG(hspi, SPI_FLAG_TXE))
 800683a:	68fb      	ldr	r3, [r7, #12]
 800683c:	681b      	ldr	r3, [r3, #0]
 800683e:	689b      	ldr	r3, [r3, #8]
 8006840:	f003 0302 	and.w	r3, r3, #2
 8006844:	2b02      	cmp	r3, #2
 8006846:	d113      	bne.n	8006870 <HAL_SPI_Transmit+0x1f2>
      {
        *((__IO uint8_t *)&hspi->Instance->DR) = *((const uint8_t *)hspi->pTxBuffPtr);
 8006848:	68fb      	ldr	r3, [r7, #12]
 800684a:	6b1a      	ldr	r2, [r3, #48]	@ 0x30
 800684c:	68fb      	ldr	r3, [r7, #12]
 800684e:	681b      	ldr	r3, [r3, #0]
 8006850:	330c      	adds	r3, #12
 8006852:	7812      	ldrb	r2, [r2, #0]
 8006854:	701a      	strb	r2, [r3, #0]
        hspi->pTxBuffPtr += sizeof(uint8_t);
 8006856:	68fb      	ldr	r3, [r7, #12]
 8006858:	6b1b      	ldr	r3, [r3, #48]	@ 0x30
 800685a:	1c5a      	adds	r2, r3, #1
 800685c:	68fb      	ldr	r3, [r7, #12]
 800685e:	631a      	str	r2, [r3, #48]	@ 0x30
        hspi->TxXferCount--;
 8006860:	68fb      	ldr	r3, [r7, #12]
 8006862:	8edb      	ldrh	r3, [r3, #54]	@ 0x36
 8006864:	b29b      	uxth	r3, r3
 8006866:	3b01      	subs	r3, #1
 8006868:	b29a      	uxth	r2, r3
 800686a:	68fb      	ldr	r3, [r7, #12]
 800686c:	86da      	strh	r2, [r3, #54]	@ 0x36
 800686e:	e018      	b.n	80068a2 <HAL_SPI_Transmit+0x224>
      }
      else
      {
        /* Timeout management */
        if ((((HAL_GetTick() - tickstart) >=  Timeout) && (Timeout != HAL_MAX_DELAY)) || (Timeout == 0U))
 8006870:	f7fd fae2 	bl	8003e38 <HAL_GetTick>
 8006874:	4602      	mov	r2, r0
 8006876:	69fb      	ldr	r3, [r7, #28]
 8006878:	1ad3      	subs	r3, r2, r3
 800687a:	683a      	ldr	r2, [r7, #0]
 800687c:	429a      	cmp	r2, r3
 800687e:	d803      	bhi.n	8006888 <HAL_SPI_Transmit+0x20a>
 8006880:	683b      	ldr	r3, [r7, #0]
 8006882:	f1b3 3fff 	cmp.w	r3, #4294967295
 8006886:	d102      	bne.n	800688e <HAL_SPI_Transmit+0x210>
 8006888:	683b      	ldr	r3, [r7, #0]
 800688a:	2b00      	cmp	r3, #0
 800688c:	d109      	bne.n	80068a2 <HAL_SPI_Transmit+0x224>
        {
          hspi->State = HAL_SPI_STATE_READY;
 800688e:	68fb      	ldr	r3, [r7, #12]
 8006890:	2201      	movs	r2, #1
 8006892:	f883 2051 	strb.w	r2, [r3, #81]	@ 0x51
          __HAL_UNLOCK(hspi);
 8006896:	68fb      	ldr	r3, [r7, #12]
 8006898:	2200      	movs	r2, #0
 800689a:	f883 2050 	strb.w	r2, [r3, #80]	@ 0x50
          return HAL_TIMEOUT;
 800689e:	2303      	movs	r3, #3
 80068a0:	e02d      	b.n	80068fe <HAL_SPI_Transmit+0x280>
    while (hspi->TxXferCount > 0U)
 80068a2:	68fb      	ldr	r3, [r7, #12]
 80068a4:	8edb      	ldrh	r3, [r3, #54]	@ 0x36
 80068a6:	b29b      	uxth	r3, r3
 80068a8:	2b00      	cmp	r3, #0
 80068aa:	d1c6      	bne.n	800683a <HAL_SPI_Transmit+0x1bc>
    SET_BIT(hspi->Instance->CR1, SPI_CR1_CRCNEXT);
  }
#endif /* USE_SPI_CRC */

  /* Check the end of the transaction */
  if (SPI_EndRxTxTransaction(hspi, Timeout, tickstart) != HAL_OK)
 80068ac:	69fa      	ldr	r2, [r7, #28]
 80068ae:	6839      	ldr	r1, [r7, #0]
 80068b0:	68f8      	ldr	r0, [r7, #12]
 80068b2:	f000 f8b1 	bl	8006a18 <SPI_EndRxTxTransaction>
 80068b6:	4603      	mov	r3, r0
 80068b8:	2b00      	cmp	r3, #0
 80068ba:	d002      	beq.n	80068c2 <HAL_SPI_Transmit+0x244>
  {
    hspi->ErrorCode = HAL_SPI_ERROR_FLAG;
 80068bc:	68fb      	ldr	r3, [r7, #12]
 80068be:	2220      	movs	r2, #32
 80068c0:	655a      	str	r2, [r3, #84]	@ 0x54
  }

  /* Clear overrun flag in 2 Lines communication mode because received is not read */
  if (hspi->Init.Direction == SPI_DIRECTION_2LINES)
 80068c2:	68fb      	ldr	r3, [r7, #12]
 80068c4:	689b      	ldr	r3, [r3, #8]
 80068c6:	2b00      	cmp	r3, #0
 80068c8:	d10a      	bne.n	80068e0 <HAL_SPI_Transmit+0x262>
  {
    __HAL_SPI_CLEAR_OVRFLAG(hspi);
 80068ca:	2300      	movs	r3, #0
 80068cc:	617b      	str	r3, [r7, #20]
 80068ce:	68fb      	ldr	r3, [r7, #12]
 80068d0:	681b      	ldr	r3, [r3, #0]
 80068d2:	68db      	ldr	r3, [r3, #12]
 80068d4:	617b      	str	r3, [r7, #20]
 80068d6:	68fb      	ldr	r3, [r7, #12]
 80068d8:	681b      	ldr	r3, [r3, #0]
 80068da:	689b      	ldr	r3, [r3, #8]
 80068dc:	617b      	str	r3, [r7, #20]
 80068de:	697b      	ldr	r3, [r7, #20]
  }

  hspi->State = HAL_SPI_STATE_READY;
 80068e0:	68fb      	ldr	r3, [r7, #12]
 80068e2:	2201      	movs	r2, #1
 80068e4:	f883 2051 	strb.w	r2, [r3, #81]	@ 0x51
  /* Process Unlocked */
  __HAL_UNLOCK(hspi);
 80068e8:	68fb      	ldr	r3, [r7, #12]
 80068ea:	2200      	movs	r2, #0
 80068ec:	f883 2050 	strb.w	r2, [r3, #80]	@ 0x50

  if (hspi->ErrorCode != HAL_SPI_ERROR_NONE)
 80068f0:	68fb      	ldr	r3, [r7, #12]
 80068f2:	6d5b      	ldr	r3, [r3, #84]	@ 0x54
 80068f4:	2b00      	cmp	r3, #0
 80068f6:	d001      	beq.n	80068fc <HAL_SPI_Transmit+0x27e>
  {
    return HAL_ERROR;
 80068f8:	2301      	movs	r3, #1
 80068fa:	e000      	b.n	80068fe <HAL_SPI_Transmit+0x280>
  }
  else
  {
    return HAL_OK;
 80068fc:	2300      	movs	r3, #0
  }
}
 80068fe:	4618      	mov	r0, r3
 8006900:	3720      	adds	r7, #32
 8006902:	46bd      	mov	sp, r7
 8006904:	bd80      	pop	{r7, pc}
	...

08006908 <SPI_WaitFlagStateUntilTimeout>:
  * @param  Tickstart tick start value
  * @retval HAL status
  */
static HAL_StatusTypeDef SPI_WaitFlagStateUntilTimeout(SPI_HandleTypeDef *hspi, uint32_t Flag, FlagStatus State,
                                                       uint32_t Timeout, uint32_t Tickstart)
{
 8006908:	b580      	push	{r7, lr}
 800690a:	b088      	sub	sp, #32
 800690c:	af00      	add	r7, sp, #0
 800690e:	60f8      	str	r0, [r7, #12]
 8006910:	60b9      	str	r1, [r7, #8]
 8006912:	603b      	str	r3, [r7, #0]
 8006914:	4613      	mov	r3, r2
 8006916:	71fb      	strb	r3, [r7, #7]
  __IO uint32_t count;
  uint32_t tmp_timeout;
  uint32_t tmp_tickstart;

  /* Adjust Timeout value  in case of end of transfer */
  tmp_timeout   = Timeout - (HAL_GetTick() - Tickstart);
 8006918:	f7fd fa8e 	bl	8003e38 <HAL_GetTick>
 800691c:	4602      	mov	r2, r0
 800691e:	6abb      	ldr	r3, [r7, #40]	@ 0x28
 8006920:	1a9b      	subs	r3, r3, r2
 8006922:	683a      	ldr	r2, [r7, #0]
 8006924:	4413      	add	r3, r2
 8006926:	61fb      	str	r3, [r7, #28]
  tmp_tickstart = HAL_GetTick();
 8006928:	f7fd fa86 	bl	8003e38 <HAL_GetTick>
 800692c:	61b8      	str	r0, [r7, #24]

  /* Calculate Timeout based on a software loop to avoid blocking issue if Systick is disabled */
  count = tmp_timeout * ((SystemCoreClock * 32U) >> 20U);
 800692e:	4b39      	ldr	r3, [pc, #228]	@ (8006a14 <SPI_WaitFlagStateUntilTimeout+0x10c>)
 8006930:	681b      	ldr	r3, [r3, #0]
 8006932:	015b      	lsls	r3, r3, #5
 8006934:	0d1b      	lsrs	r3, r3, #20
 8006936:	69fa      	ldr	r2, [r7, #28]
 8006938:	fb02 f303 	mul.w	r3, r2, r3
 800693c:	617b      	str	r3, [r7, #20]

  while ((__HAL_SPI_GET_FLAG(hspi, Flag) ? SET : RESET) != State)
 800693e:	e055      	b.n	80069ec <SPI_WaitFlagStateUntilTimeout+0xe4>
  {
    if (Timeout != HAL_MAX_DELAY)
 8006940:	683b      	ldr	r3, [r7, #0]
 8006942:	f1b3 3fff 	cmp.w	r3, #4294967295
 8006946:	d051      	beq.n	80069ec <SPI_WaitFlagStateUntilTimeout+0xe4>
    {
      if (((HAL_GetTick() - tmp_tickstart) >= tmp_timeout) || (tmp_timeout == 0U))
 8006948:	f7fd fa76 	bl	8003e38 <HAL_GetTick>
 800694c:	4602      	mov	r2, r0
 800694e:	69bb      	ldr	r3, [r7, #24]
 8006950:	1ad3      	subs	r3, r2, r3
 8006952:	69fa      	ldr	r2, [r7, #28]
 8006954:	429a      	cmp	r2, r3
 8006956:	d902      	bls.n	800695e <SPI_WaitFlagStateUntilTimeout+0x56>
 8006958:	69fb      	ldr	r3, [r7, #28]
 800695a:	2b00      	cmp	r3, #0
 800695c:	d13d      	bne.n	80069da <SPI_WaitFlagStateUntilTimeout+0xd2>
        /* Disable the SPI and reset the CRC: the CRC value should be cleared
           on both master and slave sides in order to resynchronize the master
           and slave for their respective CRC calculation */

        /* Disable TXE, RXNE and ERR interrupts for the interrupt process */
        __HAL_SPI_DISABLE_IT(hspi, (SPI_IT_TXE | SPI_IT_RXNE | SPI_IT_ERR));
 800695e:	68fb      	ldr	r3, [r7, #12]
 8006960:	681b      	ldr	r3, [r3, #0]
 8006962:	685a      	ldr	r2, [r3, #4]
 8006964:	68fb      	ldr	r3, [r7, #12]
 8006966:	681b      	ldr	r3, [r3, #0]
 8006968:	f022 02e0 	bic.w	r2, r2, #224	@ 0xe0
 800696c:	605a      	str	r2, [r3, #4]

        if ((hspi->Init.Mode == SPI_MODE_MASTER) && ((hspi->Init.Direction == SPI_DIRECTION_1LINE)
 800696e:	68fb      	ldr	r3, [r7, #12]
 8006970:	685b      	ldr	r3, [r3, #4]
 8006972:	f5b3 7f82 	cmp.w	r3, #260	@ 0x104
 8006976:	d111      	bne.n	800699c <SPI_WaitFlagStateUntilTimeout+0x94>
 8006978:	68fb      	ldr	r3, [r7, #12]
 800697a:	689b      	ldr	r3, [r3, #8]
 800697c:	f5b3 4f00 	cmp.w	r3, #32768	@ 0x8000
 8006980:	d004      	beq.n	800698c <SPI_WaitFlagStateUntilTimeout+0x84>
                                                     || (hspi->Init.Direction == SPI_DIRECTION_2LINES_RXONLY)))
 8006982:	68fb      	ldr	r3, [r7, #12]
 8006984:	689b      	ldr	r3, [r3, #8]
 8006986:	f5b3 6f80 	cmp.w	r3, #1024	@ 0x400
 800698a:	d107      	bne.n	800699c <SPI_WaitFlagStateUntilTimeout+0x94>
        {
          /* Disable SPI peripheral */
          __HAL_SPI_DISABLE(hspi);
 800698c:	68fb      	ldr	r3, [r7, #12]
 800698e:	681b      	ldr	r3, [r3, #0]
 8006990:	681a      	ldr	r2, [r3, #0]
 8006992:	68fb      	ldr	r3, [r7, #12]
 8006994:	681b      	ldr	r3, [r3, #0]
 8006996:	f022 0240 	bic.w	r2, r2, #64	@ 0x40
 800699a:	601a      	str	r2, [r3, #0]
        }

        /* Reset CRC Calculation */
        if (hspi->Init.CRCCalculation == SPI_CRCCALCULATION_ENABLE)
 800699c:	68fb      	ldr	r3, [r7, #12]
 800699e:	6a9b      	ldr	r3, [r3, #40]	@ 0x28
 80069a0:	f5b3 5f00 	cmp.w	r3, #8192	@ 0x2000
 80069a4:	d10f      	bne.n	80069c6 <SPI_WaitFlagStateUntilTimeout+0xbe>
        {
          SPI_RESET_CRC(hspi);
 80069a6:	68fb      	ldr	r3, [r7, #12]
 80069a8:	681b      	ldr	r3, [r3, #0]
 80069aa:	681a      	ldr	r2, [r3, #0]
 80069ac:	68fb      	ldr	r3, [r7, #12]
 80069ae:	681b      	ldr	r3, [r3, #0]
 80069b0:	f422 5200 	bic.w	r2, r2, #8192	@ 0x2000
 80069b4:	601a      	str	r2, [r3, #0]
 80069b6:	68fb      	ldr	r3, [r7, #12]
 80069b8:	681b      	ldr	r3, [r3, #0]
 80069ba:	681a      	ldr	r2, [r3, #0]
 80069bc:	68fb      	ldr	r3, [r7, #12]
 80069be:	681b      	ldr	r3, [r3, #0]
 80069c0:	f442 5200 	orr.w	r2, r2, #8192	@ 0x2000
 80069c4:	601a      	str	r2, [r3, #0]
        }

        hspi->State = HAL_SPI_STATE_READY;
 80069c6:	68fb      	ldr	r3, [r7, #12]
 80069c8:	2201      	movs	r2, #1
 80069ca:	f883 2051 	strb.w	r2, [r3, #81]	@ 0x51

        /* Process Unlocked */
        __HAL_UNLOCK(hspi);
 80069ce:	68fb      	ldr	r3, [r7, #12]
 80069d0:	2200      	movs	r2, #0
 80069d2:	f883 2050 	strb.w	r2, [r3, #80]	@ 0x50

        return HAL_TIMEOUT;
 80069d6:	2303      	movs	r3, #3
 80069d8:	e018      	b.n	8006a0c <SPI_WaitFlagStateUntilTimeout+0x104>
      }
      /* If Systick is disabled or not incremented, deactivate timeout to go in disable loop procedure */
      if (count == 0U)
 80069da:	697b      	ldr	r3, [r7, #20]
 80069dc:	2b00      	cmp	r3, #0
 80069de:	d102      	bne.n	80069e6 <SPI_WaitFlagStateUntilTimeout+0xde>
      {
        tmp_timeout = 0U;
 80069e0:	2300      	movs	r3, #0
 80069e2:	61fb      	str	r3, [r7, #28]
 80069e4:	e002      	b.n	80069ec <SPI_WaitFlagStateUntilTimeout+0xe4>
      }
      else
      {
        count--;
 80069e6:	697b      	ldr	r3, [r7, #20]
 80069e8:	3b01      	subs	r3, #1
 80069ea:	617b      	str	r3, [r7, #20]
  while ((__HAL_SPI_GET_FLAG(hspi, Flag) ? SET : RESET) != State)
 80069ec:	68fb      	ldr	r3, [r7, #12]
 80069ee:	681b      	ldr	r3, [r3, #0]
 80069f0:	689a      	ldr	r2, [r3, #8]
 80069f2:	68bb      	ldr	r3, [r7, #8]
 80069f4:	4013      	ands	r3, r2
 80069f6:	68ba      	ldr	r2, [r7, #8]
 80069f8:	429a      	cmp	r2, r3
 80069fa:	bf0c      	ite	eq
 80069fc:	2301      	moveq	r3, #1
 80069fe:	2300      	movne	r3, #0
 8006a00:	b2db      	uxtb	r3, r3
 8006a02:	461a      	mov	r2, r3
 8006a04:	79fb      	ldrb	r3, [r7, #7]
 8006a06:	429a      	cmp	r2, r3
 8006a08:	d19a      	bne.n	8006940 <SPI_WaitFlagStateUntilTimeout+0x38>
      }
    }
  }

  return HAL_OK;
 8006a0a:	2300      	movs	r3, #0
}
 8006a0c:	4618      	mov	r0, r3
 8006a0e:	3720      	adds	r7, #32
 8006a10:	46bd      	mov	sp, r7
 8006a12:	bd80      	pop	{r7, pc}
 8006a14:	20000000 	.word	0x20000000

08006a18 <SPI_EndRxTxTransaction>:
  * @param  Timeout Timeout duration
  * @param  Tickstart tick start value
  * @retval HAL status
  */
static HAL_StatusTypeDef SPI_EndRxTxTransaction(SPI_HandleTypeDef *hspi, uint32_t Timeout, uint32_t Tickstart)
{
 8006a18:	b580      	push	{r7, lr}
 8006a1a:	b088      	sub	sp, #32
 8006a1c:	af02      	add	r7, sp, #8
 8006a1e:	60f8      	str	r0, [r7, #12]
 8006a20:	60b9      	str	r1, [r7, #8]
 8006a22:	607a      	str	r2, [r7, #4]
  __IO uint32_t count;

  /* Wait until TXE flag */
  if (SPI_WaitFlagStateUntilTimeout(hspi, SPI_FLAG_TXE, SET, Timeout, Tickstart) != HAL_OK)
 8006a24:	687b      	ldr	r3, [r7, #4]
 8006a26:	9300      	str	r3, [sp, #0]
 8006a28:	68bb      	ldr	r3, [r7, #8]
 8006a2a:	2201      	movs	r2, #1
 8006a2c:	2102      	movs	r1, #2
 8006a2e:	68f8      	ldr	r0, [r7, #12]
 8006a30:	f7ff ff6a 	bl	8006908 <SPI_WaitFlagStateUntilTimeout>
 8006a34:	4603      	mov	r3, r0
 8006a36:	2b00      	cmp	r3, #0
 8006a38:	d007      	beq.n	8006a4a <SPI_EndRxTxTransaction+0x32>
  {
    SET_BIT(hspi->ErrorCode, HAL_SPI_ERROR_FLAG);
 8006a3a:	68fb      	ldr	r3, [r7, #12]
 8006a3c:	6d5b      	ldr	r3, [r3, #84]	@ 0x54
 8006a3e:	f043 0220 	orr.w	r2, r3, #32
 8006a42:	68fb      	ldr	r3, [r7, #12]
 8006a44:	655a      	str	r2, [r3, #84]	@ 0x54
    return HAL_TIMEOUT;
 8006a46:	2303      	movs	r3, #3
 8006a48:	e032      	b.n	8006ab0 <SPI_EndRxTxTransaction+0x98>
  }

  /* Timeout in us */
  count = SPI_BSY_FLAG_WORKAROUND_TIMEOUT * (SystemCoreClock / 24U / 1000000U);
 8006a4a:	4b1b      	ldr	r3, [pc, #108]	@ (8006ab8 <SPI_EndRxTxTransaction+0xa0>)
 8006a4c:	681b      	ldr	r3, [r3, #0]
 8006a4e:	4a1b      	ldr	r2, [pc, #108]	@ (8006abc <SPI_EndRxTxTransaction+0xa4>)
 8006a50:	fba2 2303 	umull	r2, r3, r2, r3
 8006a54:	0d5b      	lsrs	r3, r3, #21
 8006a56:	f44f 727a 	mov.w	r2, #1000	@ 0x3e8
 8006a5a:	fb02 f303 	mul.w	r3, r2, r3
 8006a5e:	617b      	str	r3, [r7, #20]
  /* Erratasheet: BSY bit may stay high at the end of a data transfer in Slave mode */
  if (hspi->Init.Mode == SPI_MODE_MASTER)
 8006a60:	68fb      	ldr	r3, [r7, #12]
 8006a62:	685b      	ldr	r3, [r3, #4]
 8006a64:	f5b3 7f82 	cmp.w	r3, #260	@ 0x104
 8006a68:	d112      	bne.n	8006a90 <SPI_EndRxTxTransaction+0x78>
  {
    /* Control the BSY flag */
    if (SPI_WaitFlagStateUntilTimeout(hspi, SPI_FLAG_BSY, RESET, Timeout, Tickstart) != HAL_OK)
 8006a6a:	687b      	ldr	r3, [r7, #4]
 8006a6c:	9300      	str	r3, [sp, #0]
 8006a6e:	68bb      	ldr	r3, [r7, #8]
 8006a70:	2200      	movs	r2, #0
 8006a72:	2180      	movs	r1, #128	@ 0x80
 8006a74:	68f8      	ldr	r0, [r7, #12]
 8006a76:	f7ff ff47 	bl	8006908 <SPI_WaitFlagStateUntilTimeout>
 8006a7a:	4603      	mov	r3, r0
 8006a7c:	2b00      	cmp	r3, #0
 8006a7e:	d016      	beq.n	8006aae <SPI_EndRxTxTransaction+0x96>
    {
      SET_BIT(hspi->ErrorCode, HAL_SPI_ERROR_FLAG);
 8006a80:	68fb      	ldr	r3, [r7, #12]
 8006a82:	6d5b      	ldr	r3, [r3, #84]	@ 0x54
 8006a84:	f043 0220 	orr.w	r2, r3, #32
 8006a88:	68fb      	ldr	r3, [r7, #12]
 8006a8a:	655a      	str	r2, [r3, #84]	@ 0x54
      return HAL_TIMEOUT;
 8006a8c:	2303      	movs	r3, #3
 8006a8e:	e00f      	b.n	8006ab0 <SPI_EndRxTxTransaction+0x98>
    * User have to calculate the timeout value to fit with the time of 1 byte transfer.
    * This time is directly link with the SPI clock from Master device.
    */
    do
    {
      if (count == 0U)
 8006a90:	697b      	ldr	r3, [r7, #20]
 8006a92:	2b00      	cmp	r3, #0
 8006a94:	d00a      	beq.n	8006aac <SPI_EndRxTxTransaction+0x94>
      {
        break;
      }
      count--;
 8006a96:	697b      	ldr	r3, [r7, #20]
 8006a98:	3b01      	subs	r3, #1
 8006a9a:	617b      	str	r3, [r7, #20]
    } while (__HAL_SPI_GET_FLAG(hspi, SPI_FLAG_BSY) != RESET);
 8006a9c:	68fb      	ldr	r3, [r7, #12]
 8006a9e:	681b      	ldr	r3, [r3, #0]
 8006aa0:	689b      	ldr	r3, [r3, #8]
 8006aa2:	f003 0380 	and.w	r3, r3, #128	@ 0x80
 8006aa6:	2b80      	cmp	r3, #128	@ 0x80
 8006aa8:	d0f2      	beq.n	8006a90 <SPI_EndRxTxTransaction+0x78>
 8006aaa:	e000      	b.n	8006aae <SPI_EndRxTxTransaction+0x96>
        break;
 8006aac:	bf00      	nop
  }

  return HAL_OK;
 8006aae:	2300      	movs	r3, #0
}
 8006ab0:	4618      	mov	r0, r3
 8006ab2:	3718      	adds	r7, #24
 8006ab4:	46bd      	mov	sp, r7
 8006ab6:	bd80      	pop	{r7, pc}
 8006ab8:	20000000 	.word	0x20000000
 8006abc:	165e9f81 	.word	0x165e9f81

08006ac0 <USB_CoreInit>:
  * @param  cfg pointer to a USB_OTG_CfgTypeDef structure that contains
  *         the configuration information for the specified USBx peripheral.
  * @retval HAL status
  */
HAL_StatusTypeDef USB_CoreInit(USB_OTG_GlobalTypeDef *USBx, USB_OTG_CfgTypeDef cfg)
{
 8006ac0:	b084      	sub	sp, #16
 8006ac2:	b580      	push	{r7, lr}
 8006ac4:	b084      	sub	sp, #16
 8006ac6:	af00      	add	r7, sp, #0
 8006ac8:	6078      	str	r0, [r7, #4]
 8006aca:	f107 001c 	add.w	r0, r7, #28
 8006ace:	e880 000e 	stmia.w	r0, {r1, r2, r3}
  HAL_StatusTypeDef ret;
  if (cfg.phy_itface == USB_OTG_ULPI_PHY)
 8006ad2:	f897 3021 	ldrb.w	r3, [r7, #33]	@ 0x21
 8006ad6:	2b01      	cmp	r3, #1
 8006ad8:	d123      	bne.n	8006b22 <USB_CoreInit+0x62>
  {
    USBx->GCCFG &= ~(USB_OTG_GCCFG_PWRDWN);
 8006ada:	687b      	ldr	r3, [r7, #4]
 8006adc:	6b9b      	ldr	r3, [r3, #56]	@ 0x38
 8006ade:	f423 3280 	bic.w	r2, r3, #65536	@ 0x10000
 8006ae2:	687b      	ldr	r3, [r7, #4]
 8006ae4:	639a      	str	r2, [r3, #56]	@ 0x38

    /* Init The ULPI Interface */
    USBx->GUSBCFG &= ~(USB_OTG_GUSBCFG_TSDPS | USB_OTG_GUSBCFG_ULPIFSLS | USB_OTG_GUSBCFG_PHYSEL);
 8006ae6:	687b      	ldr	r3, [r7, #4]
 8006ae8:	68db      	ldr	r3, [r3, #12]
 8006aea:	f423 0384 	bic.w	r3, r3, #4325376	@ 0x420000
 8006aee:	f023 0340 	bic.w	r3, r3, #64	@ 0x40
 8006af2:	687a      	ldr	r2, [r7, #4]
 8006af4:	60d3      	str	r3, [r2, #12]

    /* Select vbus source */
    USBx->GUSBCFG &= ~(USB_OTG_GUSBCFG_ULPIEVBUSD | USB_OTG_GUSBCFG_ULPIEVBUSI);
 8006af6:	687b      	ldr	r3, [r7, #4]
 8006af8:	68db      	ldr	r3, [r3, #12]
 8006afa:	f423 1240 	bic.w	r2, r3, #3145728	@ 0x300000
 8006afe:	687b      	ldr	r3, [r7, #4]
 8006b00:	60da      	str	r2, [r3, #12]
    if (cfg.use_external_vbus == 1U)
 8006b02:	f897 3028 	ldrb.w	r3, [r7, #40]	@ 0x28
 8006b06:	2b01      	cmp	r3, #1
 8006b08:	d105      	bne.n	8006b16 <USB_CoreInit+0x56>
    {
      USBx->GUSBCFG |= USB_OTG_GUSBCFG_ULPIEVBUSD;
 8006b0a:	687b      	ldr	r3, [r7, #4]
 8006b0c:	68db      	ldr	r3, [r3, #12]
 8006b0e:	f443 1280 	orr.w	r2, r3, #1048576	@ 0x100000
 8006b12:	687b      	ldr	r3, [r7, #4]
 8006b14:	60da      	str	r2, [r3, #12]
    }

    /* Reset after a PHY select */
    ret = USB_CoreReset(USBx);
 8006b16:	6878      	ldr	r0, [r7, #4]
 8006b18:	f001 fa82 	bl	8008020 <USB_CoreReset>
 8006b1c:	4603      	mov	r3, r0
 8006b1e:	73fb      	strb	r3, [r7, #15]
 8006b20:	e01b      	b.n	8006b5a <USB_CoreInit+0x9a>
  }
  else /* FS interface (embedded Phy) */
  {
    /* Select FS Embedded PHY */
    USBx->GUSBCFG |= USB_OTG_GUSBCFG_PHYSEL;
 8006b22:	687b      	ldr	r3, [r7, #4]
 8006b24:	68db      	ldr	r3, [r3, #12]
 8006b26:	f043 0240 	orr.w	r2, r3, #64	@ 0x40
 8006b2a:	687b      	ldr	r3, [r7, #4]
 8006b2c:	60da      	str	r2, [r3, #12]

    /* Reset after a PHY select */
    ret = USB_CoreReset(USBx);
 8006b2e:	6878      	ldr	r0, [r7, #4]
 8006b30:	f001 fa76 	bl	8008020 <USB_CoreReset>
 8006b34:	4603      	mov	r3, r0
 8006b36:	73fb      	strb	r3, [r7, #15]

    if (cfg.battery_charging_enable == 0U)
 8006b38:	f897 3025 	ldrb.w	r3, [r7, #37]	@ 0x25
 8006b3c:	2b00      	cmp	r3, #0
 8006b3e:	d106      	bne.n	8006b4e <USB_CoreInit+0x8e>
    {
      /* Activate the USB Transceiver */
      USBx->GCCFG |= USB_OTG_GCCFG_PWRDWN;
 8006b40:	687b      	ldr	r3, [r7, #4]
 8006b42:	6b9b      	ldr	r3, [r3, #56]	@ 0x38
 8006b44:	f443 3280 	orr.w	r2, r3, #65536	@ 0x10000
 8006b48:	687b      	ldr	r3, [r7, #4]
 8006b4a:	639a      	str	r2, [r3, #56]	@ 0x38
 8006b4c:	e005      	b.n	8006b5a <USB_CoreInit+0x9a>
    }
    else
    {
      /* Deactivate the USB Transceiver */
      USBx->GCCFG &= ~(USB_OTG_GCCFG_PWRDWN);
 8006b4e:	687b      	ldr	r3, [r7, #4]
 8006b50:	6b9b      	ldr	r3, [r3, #56]	@ 0x38
 8006b52:	f423 3280 	bic.w	r2, r3, #65536	@ 0x10000
 8006b56:	687b      	ldr	r3, [r7, #4]
 8006b58:	639a      	str	r2, [r3, #56]	@ 0x38
    }
  }

  if (cfg.dma_enable == 1U)
 8006b5a:	7fbb      	ldrb	r3, [r7, #30]
 8006b5c:	2b01      	cmp	r3, #1
 8006b5e:	d10b      	bne.n	8006b78 <USB_CoreInit+0xb8>
  {
    USBx->GAHBCFG |= USB_OTG_GAHBCFG_HBSTLEN_2;
 8006b60:	687b      	ldr	r3, [r7, #4]
 8006b62:	689b      	ldr	r3, [r3, #8]
 8006b64:	f043 0206 	orr.w	r2, r3, #6
 8006b68:	687b      	ldr	r3, [r7, #4]
 8006b6a:	609a      	str	r2, [r3, #8]
    USBx->GAHBCFG |= USB_OTG_GAHBCFG_DMAEN;
 8006b6c:	687b      	ldr	r3, [r7, #4]
 8006b6e:	689b      	ldr	r3, [r3, #8]
 8006b70:	f043 0220 	orr.w	r2, r3, #32
 8006b74:	687b      	ldr	r3, [r7, #4]
 8006b76:	609a      	str	r2, [r3, #8]
  }

  return ret;
 8006b78:	7bfb      	ldrb	r3, [r7, #15]
}
 8006b7a:	4618      	mov	r0, r3
 8006b7c:	3710      	adds	r7, #16
 8006b7e:	46bd      	mov	sp, r7
 8006b80:	e8bd 4080 	ldmia.w	sp!, {r7, lr}
 8006b84:	b004      	add	sp, #16
 8006b86:	4770      	bx	lr

08006b88 <USB_SetTurnaroundTime>:
  * @param  hclk: AHB clock frequency
  * @retval USB turnaround time In PHY Clocks number
  */
HAL_StatusTypeDef USB_SetTurnaroundTime(USB_OTG_GlobalTypeDef *USBx,
                                        uint32_t hclk, uint8_t speed)
{
 8006b88:	b480      	push	{r7}
 8006b8a:	b087      	sub	sp, #28
 8006b8c:	af00      	add	r7, sp, #0
 8006b8e:	60f8      	str	r0, [r7, #12]
 8006b90:	60b9      	str	r1, [r7, #8]
 8006b92:	4613      	mov	r3, r2
 8006b94:	71fb      	strb	r3, [r7, #7]

  /* The USBTRD is configured according to the tables below, depending on AHB frequency
  used by application. In the low AHB frequency range it is used to stretch enough the USB response
  time to IN tokens, the USB turnaround time, so to compensate for the longer AHB read access
  latency to the Data FIFO */
  if (speed == USBD_FS_SPEED)
 8006b96:	79fb      	ldrb	r3, [r7, #7]
 8006b98:	2b02      	cmp	r3, #2
 8006b9a:	d165      	bne.n	8006c68 <USB_SetTurnaroundTime+0xe0>
  {
    if ((hclk >= 14200000U) && (hclk < 15000000U))
 8006b9c:	68bb      	ldr	r3, [r7, #8]
 8006b9e:	4a41      	ldr	r2, [pc, #260]	@ (8006ca4 <USB_SetTurnaroundTime+0x11c>)
 8006ba0:	4293      	cmp	r3, r2
 8006ba2:	d906      	bls.n	8006bb2 <USB_SetTurnaroundTime+0x2a>
 8006ba4:	68bb      	ldr	r3, [r7, #8]
 8006ba6:	4a40      	ldr	r2, [pc, #256]	@ (8006ca8 <USB_SetTurnaroundTime+0x120>)
 8006ba8:	4293      	cmp	r3, r2
 8006baa:	d202      	bcs.n	8006bb2 <USB_SetTurnaroundTime+0x2a>
    {
      /* hclk Clock Range between 14.2-15 MHz */
      UsbTrd = 0xFU;
 8006bac:	230f      	movs	r3, #15
 8006bae:	617b      	str	r3, [r7, #20]
 8006bb0:	e062      	b.n	8006c78 <USB_SetTurnaroundTime+0xf0>
    }
    else if ((hclk >= 15000000U) && (hclk < 16000000U))
 8006bb2:	68bb      	ldr	r3, [r7, #8]
 8006bb4:	4a3c      	ldr	r2, [pc, #240]	@ (8006ca8 <USB_SetTurnaroundTime+0x120>)
 8006bb6:	4293      	cmp	r3, r2
 8006bb8:	d306      	bcc.n	8006bc8 <USB_SetTurnaroundTime+0x40>
 8006bba:	68bb      	ldr	r3, [r7, #8]
 8006bbc:	4a3b      	ldr	r2, [pc, #236]	@ (8006cac <USB_SetTurnaroundTime+0x124>)
 8006bbe:	4293      	cmp	r3, r2
 8006bc0:	d202      	bcs.n	8006bc8 <USB_SetTurnaroundTime+0x40>
    {
      /* hclk Clock Range between 15-16 MHz */
      UsbTrd = 0xEU;
 8006bc2:	230e      	movs	r3, #14
 8006bc4:	617b      	str	r3, [r7, #20]
 8006bc6:	e057      	b.n	8006c78 <USB_SetTurnaroundTime+0xf0>
    }
    else if ((hclk >= 16000000U) && (hclk < 17200000U))
 8006bc8:	68bb      	ldr	r3, [r7, #8]
 8006bca:	4a38      	ldr	r2, [pc, #224]	@ (8006cac <USB_SetTurnaroundTime+0x124>)
 8006bcc:	4293      	cmp	r3, r2
 8006bce:	d306      	bcc.n	8006bde <USB_SetTurnaroundTime+0x56>
 8006bd0:	68bb      	ldr	r3, [r7, #8]
 8006bd2:	4a37      	ldr	r2, [pc, #220]	@ (8006cb0 <USB_SetTurnaroundTime+0x128>)
 8006bd4:	4293      	cmp	r3, r2
 8006bd6:	d202      	bcs.n	8006bde <USB_SetTurnaroundTime+0x56>
    {
      /* hclk Clock Range between 16-17.2 MHz */
      UsbTrd = 0xDU;
 8006bd8:	230d      	movs	r3, #13
 8006bda:	617b      	str	r3, [r7, #20]
 8006bdc:	e04c      	b.n	8006c78 <USB_SetTurnaroundTime+0xf0>
    }
    else if ((hclk >= 17200000U) && (hclk < 18500000U))
 8006bde:	68bb      	ldr	r3, [r7, #8]
 8006be0:	4a33      	ldr	r2, [pc, #204]	@ (8006cb0 <USB_SetTurnaroundTime+0x128>)
 8006be2:	4293      	cmp	r3, r2
 8006be4:	d306      	bcc.n	8006bf4 <USB_SetTurnaroundTime+0x6c>
 8006be6:	68bb      	ldr	r3, [r7, #8]
 8006be8:	4a32      	ldr	r2, [pc, #200]	@ (8006cb4 <USB_SetTurnaroundTime+0x12c>)
 8006bea:	4293      	cmp	r3, r2
 8006bec:	d802      	bhi.n	8006bf4 <USB_SetTurnaroundTime+0x6c>
    {
      /* hclk Clock Range between 17.2-18.5 MHz */
      UsbTrd = 0xCU;
 8006bee:	230c      	movs	r3, #12
 8006bf0:	617b      	str	r3, [r7, #20]
 8006bf2:	e041      	b.n	8006c78 <USB_SetTurnaroundTime+0xf0>
    }
    else if ((hclk >= 18500000U) && (hclk < 20000000U))
 8006bf4:	68bb      	ldr	r3, [r7, #8]
 8006bf6:	4a2f      	ldr	r2, [pc, #188]	@ (8006cb4 <USB_SetTurnaroundTime+0x12c>)
 8006bf8:	4293      	cmp	r3, r2
 8006bfa:	d906      	bls.n	8006c0a <USB_SetTurnaroundTime+0x82>
 8006bfc:	68bb      	ldr	r3, [r7, #8]
 8006bfe:	4a2e      	ldr	r2, [pc, #184]	@ (8006cb8 <USB_SetTurnaroundTime+0x130>)
 8006c00:	4293      	cmp	r3, r2
 8006c02:	d802      	bhi.n	8006c0a <USB_SetTurnaroundTime+0x82>
    {
      /* hclk Clock Range between 18.5-20 MHz */
      UsbTrd = 0xBU;
 8006c04:	230b      	movs	r3, #11
 8006c06:	617b      	str	r3, [r7, #20]
 8006c08:	e036      	b.n	8006c78 <USB_SetTurnaroundTime+0xf0>
    }
    else if ((hclk >= 20000000U) && (hclk < 21800000U))
 8006c0a:	68bb      	ldr	r3, [r7, #8]
 8006c0c:	4a2a      	ldr	r2, [pc, #168]	@ (8006cb8 <USB_SetTurnaroundTime+0x130>)
 8006c0e:	4293      	cmp	r3, r2
 8006c10:	d906      	bls.n	8006c20 <USB_SetTurnaroundTime+0x98>
 8006c12:	68bb      	ldr	r3, [r7, #8]
 8006c14:	4a29      	ldr	r2, [pc, #164]	@ (8006cbc <USB_SetTurnaroundTime+0x134>)
 8006c16:	4293      	cmp	r3, r2
 8006c18:	d802      	bhi.n	8006c20 <USB_SetTurnaroundTime+0x98>
    {
      /* hclk Clock Range between 20-21.8 MHz */
      UsbTrd = 0xAU;
 8006c1a:	230a      	movs	r3, #10
 8006c1c:	617b      	str	r3, [r7, #20]
 8006c1e:	e02b      	b.n	8006c78 <USB_SetTurnaroundTime+0xf0>
    }
    else if ((hclk >= 21800000U) && (hclk < 24000000U))
 8006c20:	68bb      	ldr	r3, [r7, #8]
 8006c22:	4a26      	ldr	r2, [pc, #152]	@ (8006cbc <USB_SetTurnaroundTime+0x134>)
 8006c24:	4293      	cmp	r3, r2
 8006c26:	d906      	bls.n	8006c36 <USB_SetTurnaroundTime+0xae>
 8006c28:	68bb      	ldr	r3, [r7, #8]
 8006c2a:	4a25      	ldr	r2, [pc, #148]	@ (8006cc0 <USB_SetTurnaroundTime+0x138>)
 8006c2c:	4293      	cmp	r3, r2
 8006c2e:	d202      	bcs.n	8006c36 <USB_SetTurnaroundTime+0xae>
    {
      /* hclk Clock Range between 21.8-24 MHz */
      UsbTrd = 0x9U;
 8006c30:	2309      	movs	r3, #9
 8006c32:	617b      	str	r3, [r7, #20]
 8006c34:	e020      	b.n	8006c78 <USB_SetTurnaroundTime+0xf0>
    }
    else if ((hclk >= 24000000U) && (hclk < 27700000U))
 8006c36:	68bb      	ldr	r3, [r7, #8]
 8006c38:	4a21      	ldr	r2, [pc, #132]	@ (8006cc0 <USB_SetTurnaroundTime+0x138>)
 8006c3a:	4293      	cmp	r3, r2
 8006c3c:	d306      	bcc.n	8006c4c <USB_SetTurnaroundTime+0xc4>
 8006c3e:	68bb      	ldr	r3, [r7, #8]
 8006c40:	4a20      	ldr	r2, [pc, #128]	@ (8006cc4 <USB_SetTurnaroundTime+0x13c>)
 8006c42:	4293      	cmp	r3, r2
 8006c44:	d802      	bhi.n	8006c4c <USB_SetTurnaroundTime+0xc4>
    {
      /* hclk Clock Range between 24-27.7 MHz */
      UsbTrd = 0x8U;
 8006c46:	2308      	movs	r3, #8
 8006c48:	617b      	str	r3, [r7, #20]
 8006c4a:	e015      	b.n	8006c78 <USB_SetTurnaroundTime+0xf0>
    }
    else if ((hclk >= 27700000U) && (hclk < 32000000U))
 8006c4c:	68bb      	ldr	r3, [r7, #8]
 8006c4e:	4a1d      	ldr	r2, [pc, #116]	@ (8006cc4 <USB_SetTurnaroundTime+0x13c>)
 8006c50:	4293      	cmp	r3, r2
 8006c52:	d906      	bls.n	8006c62 <USB_SetTurnaroundTime+0xda>
 8006c54:	68bb      	ldr	r3, [r7, #8]
 8006c56:	4a1c      	ldr	r2, [pc, #112]	@ (8006cc8 <USB_SetTurnaroundTime+0x140>)
 8006c58:	4293      	cmp	r3, r2
 8006c5a:	d202      	bcs.n	8006c62 <USB_SetTurnaroundTime+0xda>
    {
      /* hclk Clock Range between 27.7-32 MHz */
      UsbTrd = 0x7U;
 8006c5c:	2307      	movs	r3, #7
 8006c5e:	617b      	str	r3, [r7, #20]
 8006c60:	e00a      	b.n	8006c78 <USB_SetTurnaroundTime+0xf0>
    }
    else /* if(hclk >= 32000000) */
    {
      /* hclk Clock Range between 32-200 MHz */
      UsbTrd = 0x6U;
 8006c62:	2306      	movs	r3, #6
 8006c64:	617b      	str	r3, [r7, #20]
 8006c66:	e007      	b.n	8006c78 <USB_SetTurnaroundTime+0xf0>
    }
  }
  else if (speed == USBD_HS_SPEED)
 8006c68:	79fb      	ldrb	r3, [r7, #7]
 8006c6a:	2b00      	cmp	r3, #0
 8006c6c:	d102      	bne.n	8006c74 <USB_SetTurnaroundTime+0xec>
  {
    UsbTrd = USBD_HS_TRDT_VALUE;
 8006c6e:	2309      	movs	r3, #9
 8006c70:	617b      	str	r3, [r7, #20]
 8006c72:	e001      	b.n	8006c78 <USB_SetTurnaroundTime+0xf0>
  }
  else
  {
    UsbTrd = USBD_DEFAULT_TRDT_VALUE;
 8006c74:	2309      	movs	r3, #9
 8006c76:	617b      	str	r3, [r7, #20]
  }

  USBx->GUSBCFG &= ~USB_OTG_GUSBCFG_TRDT;
 8006c78:	68fb      	ldr	r3, [r7, #12]
 8006c7a:	68db      	ldr	r3, [r3, #12]
 8006c7c:	f423 5270 	bic.w	r2, r3, #15360	@ 0x3c00
 8006c80:	68fb      	ldr	r3, [r7, #12]
 8006c82:	60da      	str	r2, [r3, #12]
  USBx->GUSBCFG |= (uint32_t)((UsbTrd << 10) & USB_OTG_GUSBCFG_TRDT);
 8006c84:	68fb      	ldr	r3, [r7, #12]
 8006c86:	68da      	ldr	r2, [r3, #12]
 8006c88:	697b      	ldr	r3, [r7, #20]
 8006c8a:	029b      	lsls	r3, r3, #10
 8006c8c:	f403 5370 	and.w	r3, r3, #15360	@ 0x3c00
 8006c90:	431a      	orrs	r2, r3
 8006c92:	68fb      	ldr	r3, [r7, #12]
 8006c94:	60da      	str	r2, [r3, #12]

  return HAL_OK;
 8006c96:	2300      	movs	r3, #0
}
 8006c98:	4618      	mov	r0, r3
 8006c9a:	371c      	adds	r7, #28
 8006c9c:	46bd      	mov	sp, r7
 8006c9e:	f85d 7b04 	ldr.w	r7, [sp], #4
 8006ca2:	4770      	bx	lr
 8006ca4:	00d8acbf 	.word	0x00d8acbf
 8006ca8:	00e4e1c0 	.word	0x00e4e1c0
 8006cac:	00f42400 	.word	0x00f42400
 8006cb0:	01067380 	.word	0x01067380
 8006cb4:	011a499f 	.word	0x011a499f
 8006cb8:	01312cff 	.word	0x01312cff
 8006cbc:	014ca43f 	.word	0x014ca43f
 8006cc0:	016e3600 	.word	0x016e3600
 8006cc4:	01a6ab1f 	.word	0x01a6ab1f
 8006cc8:	01e84800 	.word	0x01e84800

08006ccc <USB_EnableGlobalInt>:
  *         Enables the controller's Global Int in the AHB Config reg
  * @param  USBx  Selected device
  * @retval HAL status
  */
HAL_StatusTypeDef USB_EnableGlobalInt(USB_OTG_GlobalTypeDef *USBx)
{
 8006ccc:	b480      	push	{r7}
 8006cce:	b083      	sub	sp, #12
 8006cd0:	af00      	add	r7, sp, #0
 8006cd2:	6078      	str	r0, [r7, #4]
  USBx->GAHBCFG |= USB_OTG_GAHBCFG_GINT;
 8006cd4:	687b      	ldr	r3, [r7, #4]
 8006cd6:	689b      	ldr	r3, [r3, #8]
 8006cd8:	f043 0201 	orr.w	r2, r3, #1
 8006cdc:	687b      	ldr	r3, [r7, #4]
 8006cde:	609a      	str	r2, [r3, #8]
  return HAL_OK;
 8006ce0:	2300      	movs	r3, #0
}
 8006ce2:	4618      	mov	r0, r3
 8006ce4:	370c      	adds	r7, #12
 8006ce6:	46bd      	mov	sp, r7
 8006ce8:	f85d 7b04 	ldr.w	r7, [sp], #4
 8006cec:	4770      	bx	lr

08006cee <USB_DisableGlobalInt>:
  *         Disable the controller's Global Int in the AHB Config reg
  * @param  USBx  Selected device
  * @retval HAL status
  */
HAL_StatusTypeDef USB_DisableGlobalInt(USB_OTG_GlobalTypeDef *USBx)
{
 8006cee:	b480      	push	{r7}
 8006cf0:	b083      	sub	sp, #12
 8006cf2:	af00      	add	r7, sp, #0
 8006cf4:	6078      	str	r0, [r7, #4]
  USBx->GAHBCFG &= ~USB_OTG_GAHBCFG_GINT;
 8006cf6:	687b      	ldr	r3, [r7, #4]
 8006cf8:	689b      	ldr	r3, [r3, #8]
 8006cfa:	f023 0201 	bic.w	r2, r3, #1
 8006cfe:	687b      	ldr	r3, [r7, #4]
 8006d00:	609a      	str	r2, [r3, #8]
  return HAL_OK;
 8006d02:	2300      	movs	r3, #0
}
 8006d04:	4618      	mov	r0, r3
 8006d06:	370c      	adds	r7, #12
 8006d08:	46bd      	mov	sp, r7
 8006d0a:	f85d 7b04 	ldr.w	r7, [sp], #4
 8006d0e:	4770      	bx	lr

08006d10 <USB_SetCurrentMode>:
  *            @arg USB_DEVICE_MODE Peripheral mode
  *            @arg USB_HOST_MODE Host mode
  * @retval HAL status
  */
HAL_StatusTypeDef USB_SetCurrentMode(USB_OTG_GlobalTypeDef *USBx, USB_OTG_ModeTypeDef mode)
{
 8006d10:	b580      	push	{r7, lr}
 8006d12:	b084      	sub	sp, #16
 8006d14:	af00      	add	r7, sp, #0
 8006d16:	6078      	str	r0, [r7, #4]
 8006d18:	460b      	mov	r3, r1
 8006d1a:	70fb      	strb	r3, [r7, #3]
  uint32_t ms = 0U;
 8006d1c:	2300      	movs	r3, #0
 8006d1e:	60fb      	str	r3, [r7, #12]

  USBx->GUSBCFG &= ~(USB_OTG_GUSBCFG_FHMOD | USB_OTG_GUSBCFG_FDMOD);
 8006d20:	687b      	ldr	r3, [r7, #4]
 8006d22:	68db      	ldr	r3, [r3, #12]
 8006d24:	f023 42c0 	bic.w	r2, r3, #1610612736	@ 0x60000000
 8006d28:	687b      	ldr	r3, [r7, #4]
 8006d2a:	60da      	str	r2, [r3, #12]

  if (mode == USB_HOST_MODE)
 8006d2c:	78fb      	ldrb	r3, [r7, #3]
 8006d2e:	2b01      	cmp	r3, #1
 8006d30:	d115      	bne.n	8006d5e <USB_SetCurrentMode+0x4e>
  {
    USBx->GUSBCFG |= USB_OTG_GUSBCFG_FHMOD;
 8006d32:	687b      	ldr	r3, [r7, #4]
 8006d34:	68db      	ldr	r3, [r3, #12]
 8006d36:	f043 5200 	orr.w	r2, r3, #536870912	@ 0x20000000
 8006d3a:	687b      	ldr	r3, [r7, #4]
 8006d3c:	60da      	str	r2, [r3, #12]

    do
    {
      HAL_Delay(10U);
 8006d3e:	200a      	movs	r0, #10
 8006d40:	f7fd f886 	bl	8003e50 <HAL_Delay>
      ms += 10U;
 8006d44:	68fb      	ldr	r3, [r7, #12]
 8006d46:	330a      	adds	r3, #10
 8006d48:	60fb      	str	r3, [r7, #12]
    } while ((USB_GetMode(USBx) != (uint32_t)USB_HOST_MODE) && (ms < HAL_USB_CURRENT_MODE_MAX_DELAY_MS));
 8006d4a:	6878      	ldr	r0, [r7, #4]
 8006d4c:	f001 f8d9 	bl	8007f02 <USB_GetMode>
 8006d50:	4603      	mov	r3, r0
 8006d52:	2b01      	cmp	r3, #1
 8006d54:	d01e      	beq.n	8006d94 <USB_SetCurrentMode+0x84>
 8006d56:	68fb      	ldr	r3, [r7, #12]
 8006d58:	2bc7      	cmp	r3, #199	@ 0xc7
 8006d5a:	d9f0      	bls.n	8006d3e <USB_SetCurrentMode+0x2e>
 8006d5c:	e01a      	b.n	8006d94 <USB_SetCurrentMode+0x84>
  }
  else if (mode == USB_DEVICE_MODE)
 8006d5e:	78fb      	ldrb	r3, [r7, #3]
 8006d60:	2b00      	cmp	r3, #0
 8006d62:	d115      	bne.n	8006d90 <USB_SetCurrentMode+0x80>
  {
    USBx->GUSBCFG |= USB_OTG_GUSBCFG_FDMOD;
 8006d64:	687b      	ldr	r3, [r7, #4]
 8006d66:	68db      	ldr	r3, [r3, #12]
 8006d68:	f043 4280 	orr.w	r2, r3, #1073741824	@ 0x40000000
 8006d6c:	687b      	ldr	r3, [r7, #4]
 8006d6e:	60da      	str	r2, [r3, #12]

    do
    {
      HAL_Delay(10U);
 8006d70:	200a      	movs	r0, #10
 8006d72:	f7fd f86d 	bl	8003e50 <HAL_Delay>
      ms += 10U;
 8006d76:	68fb      	ldr	r3, [r7, #12]
 8006d78:	330a      	adds	r3, #10
 8006d7a:	60fb      	str	r3, [r7, #12]
    } while ((USB_GetMode(USBx) != (uint32_t)USB_DEVICE_MODE) && (ms < HAL_USB_CURRENT_MODE_MAX_DELAY_MS));
 8006d7c:	6878      	ldr	r0, [r7, #4]
 8006d7e:	f001 f8c0 	bl	8007f02 <USB_GetMode>
 8006d82:	4603      	mov	r3, r0
 8006d84:	2b00      	cmp	r3, #0
 8006d86:	d005      	beq.n	8006d94 <USB_SetCurrentMode+0x84>
 8006d88:	68fb      	ldr	r3, [r7, #12]
 8006d8a:	2bc7      	cmp	r3, #199	@ 0xc7
 8006d8c:	d9f0      	bls.n	8006d70 <USB_SetCurrentMode+0x60>
 8006d8e:	e001      	b.n	8006d94 <USB_SetCurrentMode+0x84>
  }
  else
  {
    return HAL_ERROR;
 8006d90:	2301      	movs	r3, #1
 8006d92:	e005      	b.n	8006da0 <USB_SetCurrentMode+0x90>
  }

  if (ms == HAL_USB_CURRENT_MODE_MAX_DELAY_MS)
 8006d94:	68fb      	ldr	r3, [r7, #12]
 8006d96:	2bc8      	cmp	r3, #200	@ 0xc8
 8006d98:	d101      	bne.n	8006d9e <USB_SetCurrentMode+0x8e>
  {
    return HAL_ERROR;
 8006d9a:	2301      	movs	r3, #1
 8006d9c:	e000      	b.n	8006da0 <USB_SetCurrentMode+0x90>
  }

  return HAL_OK;
 8006d9e:	2300      	movs	r3, #0
}
 8006da0:	4618      	mov	r0, r3
 8006da2:	3710      	adds	r7, #16
 8006da4:	46bd      	mov	sp, r7
 8006da6:	bd80      	pop	{r7, pc}

08006da8 <USB_DevInit>:
  * @param  cfg   pointer to a USB_OTG_CfgTypeDef structure that contains
  *         the configuration information for the specified USBx peripheral.
  * @retval HAL status
  */
HAL_StatusTypeDef USB_DevInit(USB_OTG_GlobalTypeDef *USBx, USB_OTG_CfgTypeDef cfg)
{
 8006da8:	b084      	sub	sp, #16
 8006daa:	b580      	push	{r7, lr}
 8006dac:	b086      	sub	sp, #24
 8006dae:	af00      	add	r7, sp, #0
 8006db0:	6078      	str	r0, [r7, #4]
 8006db2:	f107 0024 	add.w	r0, r7, #36	@ 0x24
 8006db6:	e880 000e 	stmia.w	r0, {r1, r2, r3}
  HAL_StatusTypeDef ret = HAL_OK;
 8006dba:	2300      	movs	r3, #0
 8006dbc:	75fb      	strb	r3, [r7, #23]
  uint32_t USBx_BASE = (uint32_t)USBx;
 8006dbe:	687b      	ldr	r3, [r7, #4]
 8006dc0:	60fb      	str	r3, [r7, #12]
  uint32_t i;

  for (i = 0U; i < 15U; i++)
 8006dc2:	2300      	movs	r3, #0
 8006dc4:	613b      	str	r3, [r7, #16]
 8006dc6:	e009      	b.n	8006ddc <USB_DevInit+0x34>
  {
    USBx->DIEPTXF[i] = 0U;
 8006dc8:	687a      	ldr	r2, [r7, #4]
 8006dca:	693b      	ldr	r3, [r7, #16]
 8006dcc:	3340      	adds	r3, #64	@ 0x40
 8006dce:	009b      	lsls	r3, r3, #2
 8006dd0:	4413      	add	r3, r2
 8006dd2:	2200      	movs	r2, #0
 8006dd4:	605a      	str	r2, [r3, #4]
  for (i = 0U; i < 15U; i++)
 8006dd6:	693b      	ldr	r3, [r7, #16]
 8006dd8:	3301      	adds	r3, #1
 8006dda:	613b      	str	r3, [r7, #16]
 8006ddc:	693b      	ldr	r3, [r7, #16]
 8006dde:	2b0e      	cmp	r3, #14
 8006de0:	d9f2      	bls.n	8006dc8 <USB_DevInit+0x20>
    /* Enable HW VBUS sensing */
    USBx->GCCFG |= USB_OTG_GCCFG_VBDEN;
  }
#else
  /* VBUS Sensing setup */
  if (cfg.vbus_sensing_enable == 0U)
 8006de2:	f897 302e 	ldrb.w	r3, [r7, #46]	@ 0x2e
 8006de6:	2b00      	cmp	r3, #0
 8006de8:	d11c      	bne.n	8006e24 <USB_DevInit+0x7c>
  {
    /*
     * Disable HW VBUS sensing. VBUS is internally considered to be always
     * at VBUS-Valid level (5V).
     */
    USBx_DEVICE->DCTL |= USB_OTG_DCTL_SDIS;
 8006dea:	68fb      	ldr	r3, [r7, #12]
 8006dec:	f503 6300 	add.w	r3, r3, #2048	@ 0x800
 8006df0:	685b      	ldr	r3, [r3, #4]
 8006df2:	68fa      	ldr	r2, [r7, #12]
 8006df4:	f502 6200 	add.w	r2, r2, #2048	@ 0x800
 8006df8:	f043 0302 	orr.w	r3, r3, #2
 8006dfc:	6053      	str	r3, [r2, #4]
    USBx->GCCFG |= USB_OTG_GCCFG_NOVBUSSENS;
 8006dfe:	687b      	ldr	r3, [r7, #4]
 8006e00:	6b9b      	ldr	r3, [r3, #56]	@ 0x38
 8006e02:	f443 1200 	orr.w	r2, r3, #2097152	@ 0x200000
 8006e06:	687b      	ldr	r3, [r7, #4]
 8006e08:	639a      	str	r2, [r3, #56]	@ 0x38
    USBx->GCCFG &= ~USB_OTG_GCCFG_VBUSBSEN;
 8006e0a:	687b      	ldr	r3, [r7, #4]
 8006e0c:	6b9b      	ldr	r3, [r3, #56]	@ 0x38
 8006e0e:	f423 2200 	bic.w	r2, r3, #524288	@ 0x80000
 8006e12:	687b      	ldr	r3, [r7, #4]
 8006e14:	639a      	str	r2, [r3, #56]	@ 0x38
    USBx->GCCFG &= ~USB_OTG_GCCFG_VBUSASEN;
 8006e16:	687b      	ldr	r3, [r7, #4]
 8006e18:	6b9b      	ldr	r3, [r3, #56]	@ 0x38
 8006e1a:	f423 2280 	bic.w	r2, r3, #262144	@ 0x40000
 8006e1e:	687b      	ldr	r3, [r7, #4]
 8006e20:	639a      	str	r2, [r3, #56]	@ 0x38
 8006e22:	e00b      	b.n	8006e3c <USB_DevInit+0x94>
  }
  else
  {
    /* Enable HW VBUS sensing */
    USBx->GCCFG &= ~USB_OTG_GCCFG_NOVBUSSENS;
 8006e24:	687b      	ldr	r3, [r7, #4]
 8006e26:	6b9b      	ldr	r3, [r3, #56]	@ 0x38
 8006e28:	f423 1200 	bic.w	r2, r3, #2097152	@ 0x200000
 8006e2c:	687b      	ldr	r3, [r7, #4]
 8006e2e:	639a      	str	r2, [r3, #56]	@ 0x38
    USBx->GCCFG |= USB_OTG_GCCFG_VBUSBSEN;
 8006e30:	687b      	ldr	r3, [r7, #4]
 8006e32:	6b9b      	ldr	r3, [r3, #56]	@ 0x38
 8006e34:	f443 2200 	orr.w	r2, r3, #524288	@ 0x80000
 8006e38:	687b      	ldr	r3, [r7, #4]
 8006e3a:	639a      	str	r2, [r3, #56]	@ 0x38
#endif /* defined(STM32F446xx) || defined(STM32F469xx) || defined(STM32F479xx) || defined(STM32F412Zx) ||
          defined(STM32F412Vx) || defined(STM32F412Rx) || defined(STM32F412Cx) || defined(STM32F413xx) ||
          defined(STM32F423xx) */

  /* Restart the Phy Clock */
  USBx_PCGCCTL = 0U;
 8006e3c:	68fb      	ldr	r3, [r7, #12]
 8006e3e:	f503 6360 	add.w	r3, r3, #3584	@ 0xe00
 8006e42:	461a      	mov	r2, r3
 8006e44:	2300      	movs	r3, #0
 8006e46:	6013      	str	r3, [r2, #0]

  if (cfg.phy_itface == USB_OTG_ULPI_PHY)
 8006e48:	f897 3029 	ldrb.w	r3, [r7, #41]	@ 0x29
 8006e4c:	2b01      	cmp	r3, #1
 8006e4e:	d10d      	bne.n	8006e6c <USB_DevInit+0xc4>
  {
    if (cfg.speed == USBD_HS_SPEED)
 8006e50:	f897 3027 	ldrb.w	r3, [r7, #39]	@ 0x27
 8006e54:	2b00      	cmp	r3, #0
 8006e56:	d104      	bne.n	8006e62 <USB_DevInit+0xba>
    {
      /* Set Core speed to High speed mode */
      (void)USB_SetDevSpeed(USBx, USB_OTG_SPEED_HIGH);
 8006e58:	2100      	movs	r1, #0
 8006e5a:	6878      	ldr	r0, [r7, #4]
 8006e5c:	f000 f968 	bl	8007130 <USB_SetDevSpeed>
 8006e60:	e008      	b.n	8006e74 <USB_DevInit+0xcc>
    }
    else
    {
      /* Set Core speed to Full speed mode */
      (void)USB_SetDevSpeed(USBx, USB_OTG_SPEED_HIGH_IN_FULL);
 8006e62:	2101      	movs	r1, #1
 8006e64:	6878      	ldr	r0, [r7, #4]
 8006e66:	f000 f963 	bl	8007130 <USB_SetDevSpeed>
 8006e6a:	e003      	b.n	8006e74 <USB_DevInit+0xcc>
    }
  }
  else
  {
    /* Set Core speed to Full speed mode */
    (void)USB_SetDevSpeed(USBx, USB_OTG_SPEED_FULL);
 8006e6c:	2103      	movs	r1, #3
 8006e6e:	6878      	ldr	r0, [r7, #4]
 8006e70:	f000 f95e 	bl	8007130 <USB_SetDevSpeed>
  }

  /* Flush the FIFOs */
  if (USB_FlushTxFifo(USBx, 0x10U) != HAL_OK) /* all Tx FIFOs */
 8006e74:	2110      	movs	r1, #16
 8006e76:	6878      	ldr	r0, [r7, #4]
 8006e78:	f000 f8fa 	bl	8007070 <USB_FlushTxFifo>
 8006e7c:	4603      	mov	r3, r0
 8006e7e:	2b00      	cmp	r3, #0
 8006e80:	d001      	beq.n	8006e86 <USB_DevInit+0xde>
  {
    ret = HAL_ERROR;
 8006e82:	2301      	movs	r3, #1
 8006e84:	75fb      	strb	r3, [r7, #23]
  }

  if (USB_FlushRxFifo(USBx) != HAL_OK)
 8006e86:	6878      	ldr	r0, [r7, #4]
 8006e88:	f000 f924 	bl	80070d4 <USB_FlushRxFifo>
 8006e8c:	4603      	mov	r3, r0
 8006e8e:	2b00      	cmp	r3, #0
 8006e90:	d001      	beq.n	8006e96 <USB_DevInit+0xee>
  {
    ret = HAL_ERROR;
 8006e92:	2301      	movs	r3, #1
 8006e94:	75fb      	strb	r3, [r7, #23]
  }

  /* Clear all pending Device Interrupts */
  USBx_DEVICE->DIEPMSK = 0U;
 8006e96:	68fb      	ldr	r3, [r7, #12]
 8006e98:	f503 6300 	add.w	r3, r3, #2048	@ 0x800
 8006e9c:	461a      	mov	r2, r3
 8006e9e:	2300      	movs	r3, #0
 8006ea0:	6113      	str	r3, [r2, #16]
  USBx_DEVICE->DOEPMSK = 0U;
 8006ea2:	68fb      	ldr	r3, [r7, #12]
 8006ea4:	f503 6300 	add.w	r3, r3, #2048	@ 0x800
 8006ea8:	461a      	mov	r2, r3
 8006eaa:	2300      	movs	r3, #0
 8006eac:	6153      	str	r3, [r2, #20]
  USBx_DEVICE->DAINTMSK = 0U;
 8006eae:	68fb      	ldr	r3, [r7, #12]
 8006eb0:	f503 6300 	add.w	r3, r3, #2048	@ 0x800
 8006eb4:	461a      	mov	r2, r3
 8006eb6:	2300      	movs	r3, #0
 8006eb8:	61d3      	str	r3, [r2, #28]

  for (i = 0U; i < cfg.dev_endpoints; i++)
 8006eba:	2300      	movs	r3, #0
 8006ebc:	613b      	str	r3, [r7, #16]
 8006ebe:	e043      	b.n	8006f48 <USB_DevInit+0x1a0>
  {
    if ((USBx_INEP(i)->DIEPCTL & USB_OTG_DIEPCTL_EPENA) == USB_OTG_DIEPCTL_EPENA)
 8006ec0:	693b      	ldr	r3, [r7, #16]
 8006ec2:	015a      	lsls	r2, r3, #5
 8006ec4:	68fb      	ldr	r3, [r7, #12]
 8006ec6:	4413      	add	r3, r2
 8006ec8:	f503 6310 	add.w	r3, r3, #2304	@ 0x900
 8006ecc:	681b      	ldr	r3, [r3, #0]
 8006ece:	f003 4300 	and.w	r3, r3, #2147483648	@ 0x80000000
 8006ed2:	f1b3 4f00 	cmp.w	r3, #2147483648	@ 0x80000000
 8006ed6:	d118      	bne.n	8006f0a <USB_DevInit+0x162>
    {
      if (i == 0U)
 8006ed8:	693b      	ldr	r3, [r7, #16]
 8006eda:	2b00      	cmp	r3, #0
 8006edc:	d10a      	bne.n	8006ef4 <USB_DevInit+0x14c>
      {
        USBx_INEP(i)->DIEPCTL = USB_OTG_DIEPCTL_SNAK;
 8006ede:	693b      	ldr	r3, [r7, #16]
 8006ee0:	015a      	lsls	r2, r3, #5
 8006ee2:	68fb      	ldr	r3, [r7, #12]
 8006ee4:	4413      	add	r3, r2
 8006ee6:	f503 6310 	add.w	r3, r3, #2304	@ 0x900
 8006eea:	461a      	mov	r2, r3
 8006eec:	f04f 6300 	mov.w	r3, #134217728	@ 0x8000000
 8006ef0:	6013      	str	r3, [r2, #0]
 8006ef2:	e013      	b.n	8006f1c <USB_DevInit+0x174>
      }
      else
      {
        USBx_INEP(i)->DIEPCTL = USB_OTG_DIEPCTL_EPDIS | USB_OTG_DIEPCTL_SNAK;
 8006ef4:	693b      	ldr	r3, [r7, #16]
 8006ef6:	015a      	lsls	r2, r3, #5
 8006ef8:	68fb      	ldr	r3, [r7, #12]
 8006efa:	4413      	add	r3, r2
 8006efc:	f503 6310 	add.w	r3, r3, #2304	@ 0x900
 8006f00:	461a      	mov	r2, r3
 8006f02:	f04f 4390 	mov.w	r3, #1207959552	@ 0x48000000
 8006f06:	6013      	str	r3, [r2, #0]
 8006f08:	e008      	b.n	8006f1c <USB_DevInit+0x174>
      }
    }
    else
    {
      USBx_INEP(i)->DIEPCTL = 0U;
 8006f0a:	693b      	ldr	r3, [r7, #16]
 8006f0c:	015a      	lsls	r2, r3, #5
 8006f0e:	68fb      	ldr	r3, [r7, #12]
 8006f10:	4413      	add	r3, r2
 8006f12:	f503 6310 	add.w	r3, r3, #2304	@ 0x900
 8006f16:	461a      	mov	r2, r3
 8006f18:	2300      	movs	r3, #0
 8006f1a:	6013      	str	r3, [r2, #0]
    }

    USBx_INEP(i)->DIEPTSIZ = 0U;
 8006f1c:	693b      	ldr	r3, [r7, #16]
 8006f1e:	015a      	lsls	r2, r3, #5
 8006f20:	68fb      	ldr	r3, [r7, #12]
 8006f22:	4413      	add	r3, r2
 8006f24:	f503 6310 	add.w	r3, r3, #2304	@ 0x900
 8006f28:	461a      	mov	r2, r3
 8006f2a:	2300      	movs	r3, #0
 8006f2c:	6113      	str	r3, [r2, #16]
    USBx_INEP(i)->DIEPINT  = 0xFB7FU;
 8006f2e:	693b      	ldr	r3, [r7, #16]
 8006f30:	015a      	lsls	r2, r3, #5
 8006f32:	68fb      	ldr	r3, [r7, #12]
 8006f34:	4413      	add	r3, r2
 8006f36:	f503 6310 	add.w	r3, r3, #2304	@ 0x900
 8006f3a:	461a      	mov	r2, r3
 8006f3c:	f64f 337f 	movw	r3, #64383	@ 0xfb7f
 8006f40:	6093      	str	r3, [r2, #8]
  for (i = 0U; i < cfg.dev_endpoints; i++)
 8006f42:	693b      	ldr	r3, [r7, #16]
 8006f44:	3301      	adds	r3, #1
 8006f46:	613b      	str	r3, [r7, #16]
 8006f48:	f897 3024 	ldrb.w	r3, [r7, #36]	@ 0x24
 8006f4c:	461a      	mov	r2, r3
 8006f4e:	693b      	ldr	r3, [r7, #16]
 8006f50:	4293      	cmp	r3, r2
 8006f52:	d3b5      	bcc.n	8006ec0 <USB_DevInit+0x118>
  }

  for (i = 0U; i < cfg.dev_endpoints; i++)
 8006f54:	2300      	movs	r3, #0
 8006f56:	613b      	str	r3, [r7, #16]
 8006f58:	e043      	b.n	8006fe2 <USB_DevInit+0x23a>
  {
    if ((USBx_OUTEP(i)->DOEPCTL & USB_OTG_DOEPCTL_EPENA) == USB_OTG_DOEPCTL_EPENA)
 8006f5a:	693b      	ldr	r3, [r7, #16]
 8006f5c:	015a      	lsls	r2, r3, #5
 8006f5e:	68fb      	ldr	r3, [r7, #12]
 8006f60:	4413      	add	r3, r2
 8006f62:	f503 6330 	add.w	r3, r3, #2816	@ 0xb00
 8006f66:	681b      	ldr	r3, [r3, #0]
 8006f68:	f003 4300 	and.w	r3, r3, #2147483648	@ 0x80000000
 8006f6c:	f1b3 4f00 	cmp.w	r3, #2147483648	@ 0x80000000
 8006f70:	d118      	bne.n	8006fa4 <USB_DevInit+0x1fc>
    {
      if (i == 0U)
 8006f72:	693b      	ldr	r3, [r7, #16]
 8006f74:	2b00      	cmp	r3, #0
 8006f76:	d10a      	bne.n	8006f8e <USB_DevInit+0x1e6>
      {
        USBx_OUTEP(i)->DOEPCTL = USB_OTG_DOEPCTL_SNAK;
 8006f78:	693b      	ldr	r3, [r7, #16]
 8006f7a:	015a      	lsls	r2, r3, #5
 8006f7c:	68fb      	ldr	r3, [r7, #12]
 8006f7e:	4413      	add	r3, r2
 8006f80:	f503 6330 	add.w	r3, r3, #2816	@ 0xb00
 8006f84:	461a      	mov	r2, r3
 8006f86:	f04f 6300 	mov.w	r3, #134217728	@ 0x8000000
 8006f8a:	6013      	str	r3, [r2, #0]
 8006f8c:	e013      	b.n	8006fb6 <USB_DevInit+0x20e>
      }
      else
      {
        USBx_OUTEP(i)->DOEPCTL = USB_OTG_DOEPCTL_EPDIS | USB_OTG_DOEPCTL_SNAK;
 8006f8e:	693b      	ldr	r3, [r7, #16]
 8006f90:	015a      	lsls	r2, r3, #5
 8006f92:	68fb      	ldr	r3, [r7, #12]
 8006f94:	4413      	add	r3, r2
 8006f96:	f503 6330 	add.w	r3, r3, #2816	@ 0xb00
 8006f9a:	461a      	mov	r2, r3
 8006f9c:	f04f 4390 	mov.w	r3, #1207959552	@ 0x48000000
 8006fa0:	6013      	str	r3, [r2, #0]
 8006fa2:	e008      	b.n	8006fb6 <USB_DevInit+0x20e>
      }
    }
    else
    {
      USBx_OUTEP(i)->DOEPCTL = 0U;
 8006fa4:	693b      	ldr	r3, [r7, #16]
 8006fa6:	015a      	lsls	r2, r3, #5
 8006fa8:	68fb      	ldr	r3, [r7, #12]
 8006faa:	4413      	add	r3, r2
 8006fac:	f503 6330 	add.w	r3, r3, #2816	@ 0xb00
 8006fb0:	461a      	mov	r2, r3
 8006fb2:	2300      	movs	r3, #0
 8006fb4:	6013      	str	r3, [r2, #0]
    }

    USBx_OUTEP(i)->DOEPTSIZ = 0U;
 8006fb6:	693b      	ldr	r3, [r7, #16]
 8006fb8:	015a      	lsls	r2, r3, #5
 8006fba:	68fb      	ldr	r3, [r7, #12]
 8006fbc:	4413      	add	r3, r2
 8006fbe:	f503 6330 	add.w	r3, r3, #2816	@ 0xb00
 8006fc2:	461a      	mov	r2, r3
 8006fc4:	2300      	movs	r3, #0
 8006fc6:	6113      	str	r3, [r2, #16]
    USBx_OUTEP(i)->DOEPINT  = 0xFB7FU;
 8006fc8:	693b      	ldr	r3, [r7, #16]
 8006fca:	015a      	lsls	r2, r3, #5
 8006fcc:	68fb      	ldr	r3, [r7, #12]
 8006fce:	4413      	add	r3, r2
 8006fd0:	f503 6330 	add.w	r3, r3, #2816	@ 0xb00
 8006fd4:	461a      	mov	r2, r3
 8006fd6:	f64f 337f 	movw	r3, #64383	@ 0xfb7f
 8006fda:	6093      	str	r3, [r2, #8]
  for (i = 0U; i < cfg.dev_endpoints; i++)
 8006fdc:	693b      	ldr	r3, [r7, #16]
 8006fde:	3301      	adds	r3, #1
 8006fe0:	613b      	str	r3, [r7, #16]
 8006fe2:	f897 3024 	ldrb.w	r3, [r7, #36]	@ 0x24
 8006fe6:	461a      	mov	r2, r3
 8006fe8:	693b      	ldr	r3, [r7, #16]
 8006fea:	4293      	cmp	r3, r2
 8006fec:	d3b5      	bcc.n	8006f5a <USB_DevInit+0x1b2>
  }

  USBx_DEVICE->DIEPMSK &= ~(USB_OTG_DIEPMSK_TXFURM);
 8006fee:	68fb      	ldr	r3, [r7, #12]
 8006ff0:	f503 6300 	add.w	r3, r3, #2048	@ 0x800
 8006ff4:	691b      	ldr	r3, [r3, #16]
 8006ff6:	68fa      	ldr	r2, [r7, #12]
 8006ff8:	f502 6200 	add.w	r2, r2, #2048	@ 0x800
 8006ffc:	f423 7380 	bic.w	r3, r3, #256	@ 0x100
 8007000:	6113      	str	r3, [r2, #16]

  /* Disable all interrupts. */
  USBx->GINTMSK = 0U;
 8007002:	687b      	ldr	r3, [r7, #4]
 8007004:	2200      	movs	r2, #0
 8007006:	619a      	str	r2, [r3, #24]

  /* Clear any pending interrupts */
  USBx->GINTSTS = 0xBFFFFFFFU;
 8007008:	687b      	ldr	r3, [r7, #4]
 800700a:	f06f 4280 	mvn.w	r2, #1073741824	@ 0x40000000
 800700e:	615a      	str	r2, [r3, #20]

  /* Enable the common interrupts */
  if (cfg.dma_enable == 0U)
 8007010:	f897 3026 	ldrb.w	r3, [r7, #38]	@ 0x26
 8007014:	2b00      	cmp	r3, #0
 8007016:	d105      	bne.n	8007024 <USB_DevInit+0x27c>
  {
    USBx->GINTMSK |= USB_OTG_GINTMSK_RXFLVLM;
 8007018:	687b      	ldr	r3, [r7, #4]
 800701a:	699b      	ldr	r3, [r3, #24]
 800701c:	f043 0210 	orr.w	r2, r3, #16
 8007020:	687b      	ldr	r3, [r7, #4]
 8007022:	619a      	str	r2, [r3, #24]
  }

  /* Enable interrupts matching to the Device mode ONLY */
  USBx->GINTMSK |= USB_OTG_GINTMSK_USBSUSPM | USB_OTG_GINTMSK_USBRST |
 8007024:	687b      	ldr	r3, [r7, #4]
 8007026:	699a      	ldr	r2, [r3, #24]
 8007028:	4b10      	ldr	r3, [pc, #64]	@ (800706c <USB_DevInit+0x2c4>)
 800702a:	4313      	orrs	r3, r2
 800702c:	687a      	ldr	r2, [r7, #4]
 800702e:	6193      	str	r3, [r2, #24]
                   USB_OTG_GINTMSK_ENUMDNEM | USB_OTG_GINTMSK_IEPINT |
                   USB_OTG_GINTMSK_OEPINT   | USB_OTG_GINTMSK_IISOIXFRM |
                   USB_OTG_GINTMSK_PXFRM_IISOOXFRM | USB_OTG_GINTMSK_WUIM;

  if (cfg.Sof_enable != 0U)
 8007030:	f897 302a 	ldrb.w	r3, [r7, #42]	@ 0x2a
 8007034:	2b00      	cmp	r3, #0
 8007036:	d005      	beq.n	8007044 <USB_DevInit+0x29c>
  {
    USBx->GINTMSK |= USB_OTG_GINTMSK_SOFM;
 8007038:	687b      	ldr	r3, [r7, #4]
 800703a:	699b      	ldr	r3, [r3, #24]
 800703c:	f043 0208 	orr.w	r2, r3, #8
 8007040:	687b      	ldr	r3, [r7, #4]
 8007042:	619a      	str	r2, [r3, #24]
  }

  if (cfg.vbus_sensing_enable == 1U)
 8007044:	f897 302e 	ldrb.w	r3, [r7, #46]	@ 0x2e
 8007048:	2b01      	cmp	r3, #1
 800704a:	d107      	bne.n	800705c <USB_DevInit+0x2b4>
  {
    USBx->GINTMSK |= (USB_OTG_GINTMSK_SRQIM | USB_OTG_GINTMSK_OTGINT);
 800704c:	687b      	ldr	r3, [r7, #4]
 800704e:	699b      	ldr	r3, [r3, #24]
 8007050:	f043 4380 	orr.w	r3, r3, #1073741824	@ 0x40000000
 8007054:	f043 0304 	orr.w	r3, r3, #4
 8007058:	687a      	ldr	r2, [r7, #4]
 800705a:	6193      	str	r3, [r2, #24]
  }

  return ret;
 800705c:	7dfb      	ldrb	r3, [r7, #23]
}
 800705e:	4618      	mov	r0, r3
 8007060:	3718      	adds	r7, #24
 8007062:	46bd      	mov	sp, r7
 8007064:	e8bd 4080 	ldmia.w	sp!, {r7, lr}
 8007068:	b004      	add	sp, #16
 800706a:	4770      	bx	lr
 800706c:	803c3800 	.word	0x803c3800

08007070 <USB_FlushTxFifo>:
  *         This parameter can be a value from 1 to 15
            15 means Flush all Tx FIFOs
  * @retval HAL status
  */
HAL_StatusTypeDef USB_FlushTxFifo(USB_OTG_GlobalTypeDef *USBx, uint32_t num)
{
 8007070:	b480      	push	{r7}
 8007072:	b085      	sub	sp, #20
 8007074:	af00      	add	r7, sp, #0
 8007076:	6078      	str	r0, [r7, #4]
 8007078:	6039      	str	r1, [r7, #0]
  __IO uint32_t count = 0U;
 800707a:	2300      	movs	r3, #0
 800707c:	60fb      	str	r3, [r7, #12]

  /* Wait for AHB master IDLE state. */
  do
  {
    count++;
 800707e:	68fb      	ldr	r3, [r7, #12]
 8007080:	3301      	adds	r3, #1
 8007082:	60fb      	str	r3, [r7, #12]

    if (count > HAL_USB_TIMEOUT)
 8007084:	68fb      	ldr	r3, [r7, #12]
 8007086:	f1b3 6f70 	cmp.w	r3, #251658240	@ 0xf000000
 800708a:	d901      	bls.n	8007090 <USB_FlushTxFifo+0x20>
    {
      return HAL_TIMEOUT;
 800708c:	2303      	movs	r3, #3
 800708e:	e01b      	b.n	80070c8 <USB_FlushTxFifo+0x58>
    }
  } while ((USBx->GRSTCTL & USB_OTG_GRSTCTL_AHBIDL) == 0U);
 8007090:	687b      	ldr	r3, [r7, #4]
 8007092:	691b      	ldr	r3, [r3, #16]
 8007094:	2b00      	cmp	r3, #0
 8007096:	daf2      	bge.n	800707e <USB_FlushTxFifo+0xe>

  /* Flush TX Fifo */
  count = 0U;
 8007098:	2300      	movs	r3, #0
 800709a:	60fb      	str	r3, [r7, #12]
  USBx->GRSTCTL = (USB_OTG_GRSTCTL_TXFFLSH | (num << 6));
 800709c:	683b      	ldr	r3, [r7, #0]
 800709e:	019b      	lsls	r3, r3, #6
 80070a0:	f043 0220 	orr.w	r2, r3, #32
 80070a4:	687b      	ldr	r3, [r7, #4]
 80070a6:	611a      	str	r2, [r3, #16]

  do
  {
    count++;
 80070a8:	68fb      	ldr	r3, [r7, #12]
 80070aa:	3301      	adds	r3, #1
 80070ac:	60fb      	str	r3, [r7, #12]

    if (count > HAL_USB_TIMEOUT)
 80070ae:	68fb      	ldr	r3, [r7, #12]
 80070b0:	f1b3 6f70 	cmp.w	r3, #251658240	@ 0xf000000
 80070b4:	d901      	bls.n	80070ba <USB_FlushTxFifo+0x4a>
    {
      return HAL_TIMEOUT;
 80070b6:	2303      	movs	r3, #3
 80070b8:	e006      	b.n	80070c8 <USB_FlushTxFifo+0x58>
    }
  } while ((USBx->GRSTCTL & USB_OTG_GRSTCTL_TXFFLSH) == USB_OTG_GRSTCTL_TXFFLSH);
 80070ba:	687b      	ldr	r3, [r7, #4]
 80070bc:	691b      	ldr	r3, [r3, #16]
 80070be:	f003 0320 	and.w	r3, r3, #32
 80070c2:	2b20      	cmp	r3, #32
 80070c4:	d0f0      	beq.n	80070a8 <USB_FlushTxFifo+0x38>

  return HAL_OK;
 80070c6:	2300      	movs	r3, #0
}
 80070c8:	4618      	mov	r0, r3
 80070ca:	3714      	adds	r7, #20
 80070cc:	46bd      	mov	sp, r7
 80070ce:	f85d 7b04 	ldr.w	r7, [sp], #4
 80070d2:	4770      	bx	lr

080070d4 <USB_FlushRxFifo>:
  * @brief  USB_FlushRxFifo  Flush Rx FIFO
  * @param  USBx  Selected device
  * @retval HAL status
  */
HAL_StatusTypeDef USB_FlushRxFifo(USB_OTG_GlobalTypeDef *USBx)
{
 80070d4:	b480      	push	{r7}
 80070d6:	b085      	sub	sp, #20
 80070d8:	af00      	add	r7, sp, #0
 80070da:	6078      	str	r0, [r7, #4]
  __IO uint32_t count = 0U;
 80070dc:	2300      	movs	r3, #0
 80070de:	60fb      	str	r3, [r7, #12]

  /* Wait for AHB master IDLE state. */
  do
  {
    count++;
 80070e0:	68fb      	ldr	r3, [r7, #12]
 80070e2:	3301      	adds	r3, #1
 80070e4:	60fb      	str	r3, [r7, #12]

    if (count > HAL_USB_TIMEOUT)
 80070e6:	68fb      	ldr	r3, [r7, #12]
 80070e8:	f1b3 6f70 	cmp.w	r3, #251658240	@ 0xf000000
 80070ec:	d901      	bls.n	80070f2 <USB_FlushRxFifo+0x1e>
    {
      return HAL_TIMEOUT;
 80070ee:	2303      	movs	r3, #3
 80070f0:	e018      	b.n	8007124 <USB_FlushRxFifo+0x50>
    }
  } while ((USBx->GRSTCTL & USB_OTG_GRSTCTL_AHBIDL) == 0U);
 80070f2:	687b      	ldr	r3, [r7, #4]
 80070f4:	691b      	ldr	r3, [r3, #16]
 80070f6:	2b00      	cmp	r3, #0
 80070f8:	daf2      	bge.n	80070e0 <USB_FlushRxFifo+0xc>

  /* Flush RX Fifo */
  count = 0U;
 80070fa:	2300      	movs	r3, #0
 80070fc:	60fb      	str	r3, [r7, #12]
  USBx->GRSTCTL = USB_OTG_GRSTCTL_RXFFLSH;
 80070fe:	687b      	ldr	r3, [r7, #4]
 8007100:	2210      	movs	r2, #16
 8007102:	611a      	str	r2, [r3, #16]

  do
  {
    count++;
 8007104:	68fb      	ldr	r3, [r7, #12]
 8007106:	3301      	adds	r3, #1
 8007108:	60fb      	str	r3, [r7, #12]

    if (count > HAL_USB_TIMEOUT)
 800710a:	68fb      	ldr	r3, [r7, #12]
 800710c:	f1b3 6f70 	cmp.w	r3, #251658240	@ 0xf000000
 8007110:	d901      	bls.n	8007116 <USB_FlushRxFifo+0x42>
    {
      return HAL_TIMEOUT;
 8007112:	2303      	movs	r3, #3
 8007114:	e006      	b.n	8007124 <USB_FlushRxFifo+0x50>
    }
  } while ((USBx->GRSTCTL & USB_OTG_GRSTCTL_RXFFLSH) == USB_OTG_GRSTCTL_RXFFLSH);
 8007116:	687b      	ldr	r3, [r7, #4]
 8007118:	691b      	ldr	r3, [r3, #16]
 800711a:	f003 0310 	and.w	r3, r3, #16
 800711e:	2b10      	cmp	r3, #16
 8007120:	d0f0      	beq.n	8007104 <USB_FlushRxFifo+0x30>

  return HAL_OK;
 8007122:	2300      	movs	r3, #0
}
 8007124:	4618      	mov	r0, r3
 8007126:	3714      	adds	r7, #20
 8007128:	46bd      	mov	sp, r7
 800712a:	f85d 7b04 	ldr.w	r7, [sp], #4
 800712e:	4770      	bx	lr

08007130 <USB_SetDevSpeed>:
  *            @arg USB_OTG_SPEED_HIGH_IN_FULL: High speed core in Full Speed mode
  *            @arg USB_OTG_SPEED_FULL: Full speed mode
  * @retval  Hal status
  */
HAL_StatusTypeDef USB_SetDevSpeed(const USB_OTG_GlobalTypeDef *USBx, uint8_t speed)
{
 8007130:	b480      	push	{r7}
 8007132:	b085      	sub	sp, #20
 8007134:	af00      	add	r7, sp, #0
 8007136:	6078      	str	r0, [r7, #4]
 8007138:	460b      	mov	r3, r1
 800713a:	70fb      	strb	r3, [r7, #3]
  uint32_t USBx_BASE = (uint32_t)USBx;
 800713c:	687b      	ldr	r3, [r7, #4]
 800713e:	60fb      	str	r3, [r7, #12]

  USBx_DEVICE->DCFG |= speed;
 8007140:	68fb      	ldr	r3, [r7, #12]
 8007142:	f503 6300 	add.w	r3, r3, #2048	@ 0x800
 8007146:	681a      	ldr	r2, [r3, #0]
 8007148:	78fb      	ldrb	r3, [r7, #3]
 800714a:	68f9      	ldr	r1, [r7, #12]
 800714c:	f501 6100 	add.w	r1, r1, #2048	@ 0x800
 8007150:	4313      	orrs	r3, r2
 8007152:	600b      	str	r3, [r1, #0]
  return HAL_OK;
 8007154:	2300      	movs	r3, #0
}
 8007156:	4618      	mov	r0, r3
 8007158:	3714      	adds	r7, #20
 800715a:	46bd      	mov	sp, r7
 800715c:	f85d 7b04 	ldr.w	r7, [sp], #4
 8007160:	4770      	bx	lr

08007162 <USB_GetDevSpeed>:
  *          This parameter can be one of these values:
  *            @arg USBD_HS_SPEED: High speed mode
  *            @arg USBD_FS_SPEED: Full speed mode
  */
uint8_t USB_GetDevSpeed(const USB_OTG_GlobalTypeDef *USBx)
{
 8007162:	b480      	push	{r7}
 8007164:	b087      	sub	sp, #28
 8007166:	af00      	add	r7, sp, #0
 8007168:	6078      	str	r0, [r7, #4]
  uint32_t USBx_BASE = (uint32_t)USBx;
 800716a:	687b      	ldr	r3, [r7, #4]
 800716c:	613b      	str	r3, [r7, #16]
  uint8_t speed;
  uint32_t DevEnumSpeed = USBx_DEVICE->DSTS & USB_OTG_DSTS_ENUMSPD;
 800716e:	693b      	ldr	r3, [r7, #16]
 8007170:	f503 6300 	add.w	r3, r3, #2048	@ 0x800
 8007174:	689b      	ldr	r3, [r3, #8]
 8007176:	f003 0306 	and.w	r3, r3, #6
 800717a:	60fb      	str	r3, [r7, #12]

  if (DevEnumSpeed == DSTS_ENUMSPD_HS_PHY_30MHZ_OR_60MHZ)
 800717c:	68fb      	ldr	r3, [r7, #12]
 800717e:	2b00      	cmp	r3, #0
 8007180:	d102      	bne.n	8007188 <USB_GetDevSpeed+0x26>
  {
    speed = USBD_HS_SPEED;
 8007182:	2300      	movs	r3, #0
 8007184:	75fb      	strb	r3, [r7, #23]
 8007186:	e00a      	b.n	800719e <USB_GetDevSpeed+0x3c>
  }
  else if ((DevEnumSpeed == DSTS_ENUMSPD_FS_PHY_30MHZ_OR_60MHZ) ||
 8007188:	68fb      	ldr	r3, [r7, #12]
 800718a:	2b02      	cmp	r3, #2
 800718c:	d002      	beq.n	8007194 <USB_GetDevSpeed+0x32>
 800718e:	68fb      	ldr	r3, [r7, #12]
 8007190:	2b06      	cmp	r3, #6
 8007192:	d102      	bne.n	800719a <USB_GetDevSpeed+0x38>
           (DevEnumSpeed == DSTS_ENUMSPD_FS_PHY_48MHZ))
  {
    speed = USBD_FS_SPEED;
 8007194:	2302      	movs	r3, #2
 8007196:	75fb      	strb	r3, [r7, #23]
 8007198:	e001      	b.n	800719e <USB_GetDevSpeed+0x3c>
  }
  else
  {
    speed = 0xFU;
 800719a:	230f      	movs	r3, #15
 800719c:	75fb      	strb	r3, [r7, #23]
  }

  return speed;
 800719e:	7dfb      	ldrb	r3, [r7, #23]
}
 80071a0:	4618      	mov	r0, r3
 80071a2:	371c      	adds	r7, #28
 80071a4:	46bd      	mov	sp, r7
 80071a6:	f85d 7b04 	ldr.w	r7, [sp], #4
 80071aa:	4770      	bx	lr

080071ac <USB_ActivateEndpoint>:
  * @param  USBx  Selected device
  * @param  ep pointer to endpoint structure
  * @retval HAL status
  */
HAL_StatusTypeDef USB_ActivateEndpoint(const USB_OTG_GlobalTypeDef *USBx, const USB_OTG_EPTypeDef *ep)
{
 80071ac:	b480      	push	{r7}
 80071ae:	b085      	sub	sp, #20
 80071b0:	af00      	add	r7, sp, #0
 80071b2:	6078      	str	r0, [r7, #4]
 80071b4:	6039      	str	r1, [r7, #0]
  uint32_t USBx_BASE = (uint32_t)USBx;
 80071b6:	687b      	ldr	r3, [r7, #4]
 80071b8:	60fb      	str	r3, [r7, #12]
  uint32_t epnum = (uint32_t)ep->num;
 80071ba:	683b      	ldr	r3, [r7, #0]
 80071bc:	781b      	ldrb	r3, [r3, #0]
 80071be:	60bb      	str	r3, [r7, #8]

  if (ep->is_in == 1U)
 80071c0:	683b      	ldr	r3, [r7, #0]
 80071c2:	785b      	ldrb	r3, [r3, #1]
 80071c4:	2b01      	cmp	r3, #1
 80071c6:	d13a      	bne.n	800723e <USB_ActivateEndpoint+0x92>
  {
    USBx_DEVICE->DAINTMSK |= USB_OTG_DAINTMSK_IEPM & (uint32_t)(1UL << (ep->num & EP_ADDR_MSK));
 80071c8:	68fb      	ldr	r3, [r7, #12]
 80071ca:	f503 6300 	add.w	r3, r3, #2048	@ 0x800
 80071ce:	69da      	ldr	r2, [r3, #28]
 80071d0:	683b      	ldr	r3, [r7, #0]
 80071d2:	781b      	ldrb	r3, [r3, #0]
 80071d4:	f003 030f 	and.w	r3, r3, #15
 80071d8:	2101      	movs	r1, #1
 80071da:	fa01 f303 	lsl.w	r3, r1, r3
 80071de:	b29b      	uxth	r3, r3
 80071e0:	68f9      	ldr	r1, [r7, #12]
 80071e2:	f501 6100 	add.w	r1, r1, #2048	@ 0x800
 80071e6:	4313      	orrs	r3, r2
 80071e8:	61cb      	str	r3, [r1, #28]

    if ((USBx_INEP(epnum)->DIEPCTL & USB_OTG_DIEPCTL_USBAEP) == 0U)
 80071ea:	68bb      	ldr	r3, [r7, #8]
 80071ec:	015a      	lsls	r2, r3, #5
 80071ee:	68fb      	ldr	r3, [r7, #12]
 80071f0:	4413      	add	r3, r2
 80071f2:	f503 6310 	add.w	r3, r3, #2304	@ 0x900
 80071f6:	681b      	ldr	r3, [r3, #0]
 80071f8:	f403 4300 	and.w	r3, r3, #32768	@ 0x8000
 80071fc:	2b00      	cmp	r3, #0
 80071fe:	d155      	bne.n	80072ac <USB_ActivateEndpoint+0x100>
    {
      USBx_INEP(epnum)->DIEPCTL |= (ep->maxpacket & USB_OTG_DIEPCTL_MPSIZ) |
 8007200:	68bb      	ldr	r3, [r7, #8]
 8007202:	015a      	lsls	r2, r3, #5
 8007204:	68fb      	ldr	r3, [r7, #12]
 8007206:	4413      	add	r3, r2
 8007208:	f503 6310 	add.w	r3, r3, #2304	@ 0x900
 800720c:	681a      	ldr	r2, [r3, #0]
 800720e:	683b      	ldr	r3, [r7, #0]
 8007210:	689b      	ldr	r3, [r3, #8]
 8007212:	f3c3 010a 	ubfx	r1, r3, #0, #11
                                   ((uint32_t)ep->type << 18) | (epnum << 22) |
 8007216:	683b      	ldr	r3, [r7, #0]
 8007218:	791b      	ldrb	r3, [r3, #4]
 800721a:	049b      	lsls	r3, r3, #18
      USBx_INEP(epnum)->DIEPCTL |= (ep->maxpacket & USB_OTG_DIEPCTL_MPSIZ) |
 800721c:	4319      	orrs	r1, r3
                                   ((uint32_t)ep->type << 18) | (epnum << 22) |
 800721e:	68bb      	ldr	r3, [r7, #8]
 8007220:	059b      	lsls	r3, r3, #22
 8007222:	430b      	orrs	r3, r1
      USBx_INEP(epnum)->DIEPCTL |= (ep->maxpacket & USB_OTG_DIEPCTL_MPSIZ) |
 8007224:	4313      	orrs	r3, r2
 8007226:	68ba      	ldr	r2, [r7, #8]
 8007228:	0151      	lsls	r1, r2, #5
 800722a:	68fa      	ldr	r2, [r7, #12]
 800722c:	440a      	add	r2, r1
 800722e:	f502 6210 	add.w	r2, r2, #2304	@ 0x900
 8007232:	f043 5380 	orr.w	r3, r3, #268435456	@ 0x10000000
 8007236:	f443 4300 	orr.w	r3, r3, #32768	@ 0x8000
 800723a:	6013      	str	r3, [r2, #0]
 800723c:	e036      	b.n	80072ac <USB_ActivateEndpoint+0x100>
                                   USB_OTG_DIEPCTL_USBAEP;
    }
  }
  else
  {
    USBx_DEVICE->DAINTMSK |= USB_OTG_DAINTMSK_OEPM & ((uint32_t)(1UL << (ep->num & EP_ADDR_MSK)) << 16);
 800723e:	68fb      	ldr	r3, [r7, #12]
 8007240:	f503 6300 	add.w	r3, r3, #2048	@ 0x800
 8007244:	69da      	ldr	r2, [r3, #28]
 8007246:	683b      	ldr	r3, [r7, #0]
 8007248:	781b      	ldrb	r3, [r3, #0]
 800724a:	f003 030f 	and.w	r3, r3, #15
 800724e:	2101      	movs	r1, #1
 8007250:	fa01 f303 	lsl.w	r3, r1, r3
 8007254:	041b      	lsls	r3, r3, #16
 8007256:	68f9      	ldr	r1, [r7, #12]
 8007258:	f501 6100 	add.w	r1, r1, #2048	@ 0x800
 800725c:	4313      	orrs	r3, r2
 800725e:	61cb      	str	r3, [r1, #28]

    if (((USBx_OUTEP(epnum)->DOEPCTL) & USB_OTG_DOEPCTL_USBAEP) == 0U)
 8007260:	68bb      	ldr	r3, [r7, #8]
 8007262:	015a      	lsls	r2, r3, #5
 8007264:	68fb      	ldr	r3, [r7, #12]
 8007266:	4413      	add	r3, r2
 8007268:	f503 6330 	add.w	r3, r3, #2816	@ 0xb00
 800726c:	681b      	ldr	r3, [r3, #0]
 800726e:	f403 4300 	and.w	r3, r3, #32768	@ 0x8000
 8007272:	2b00      	cmp	r3, #0
 8007274:	d11a      	bne.n	80072ac <USB_ActivateEndpoint+0x100>
    {
      USBx_OUTEP(epnum)->DOEPCTL |= (ep->maxpacket & USB_OTG_DOEPCTL_MPSIZ) |
 8007276:	68bb      	ldr	r3, [r7, #8]
 8007278:	015a      	lsls	r2, r3, #5
 800727a:	68fb      	ldr	r3, [r7, #12]
 800727c:	4413      	add	r3, r2
 800727e:	f503 6330 	add.w	r3, r3, #2816	@ 0xb00
 8007282:	681a      	ldr	r2, [r3, #0]
 8007284:	683b      	ldr	r3, [r7, #0]
 8007286:	689b      	ldr	r3, [r3, #8]
 8007288:	f3c3 010a 	ubfx	r1, r3, #0, #11
                                    ((uint32_t)ep->type << 18) |
 800728c:	683b      	ldr	r3, [r7, #0]
 800728e:	791b      	ldrb	r3, [r3, #4]
 8007290:	049b      	lsls	r3, r3, #18
      USBx_OUTEP(epnum)->DOEPCTL |= (ep->maxpacket & USB_OTG_DOEPCTL_MPSIZ) |
 8007292:	430b      	orrs	r3, r1
 8007294:	4313      	orrs	r3, r2
 8007296:	68ba      	ldr	r2, [r7, #8]
 8007298:	0151      	lsls	r1, r2, #5
 800729a:	68fa      	ldr	r2, [r7, #12]
 800729c:	440a      	add	r2, r1
 800729e:	f502 6230 	add.w	r2, r2, #2816	@ 0xb00
 80072a2:	f043 5380 	orr.w	r3, r3, #268435456	@ 0x10000000
 80072a6:	f443 4300 	orr.w	r3, r3, #32768	@ 0x8000
 80072aa:	6013      	str	r3, [r2, #0]
                                    USB_OTG_DIEPCTL_SD0PID_SEVNFRM |
                                    USB_OTG_DOEPCTL_USBAEP;
    }
  }
  return HAL_OK;
 80072ac:	2300      	movs	r3, #0
}
 80072ae:	4618      	mov	r0, r3
 80072b0:	3714      	adds	r7, #20
 80072b2:	46bd      	mov	sp, r7
 80072b4:	f85d 7b04 	ldr.w	r7, [sp], #4
 80072b8:	4770      	bx	lr
	...

080072bc <USB_DeactivateEndpoint>:
  * @param  USBx  Selected device
  * @param  ep pointer to endpoint structure
  * @retval HAL status
  */
HAL_StatusTypeDef USB_DeactivateEndpoint(const USB_OTG_GlobalTypeDef *USBx, const USB_OTG_EPTypeDef *ep)
{
 80072bc:	b480      	push	{r7}
 80072be:	b085      	sub	sp, #20
 80072c0:	af00      	add	r7, sp, #0
 80072c2:	6078      	str	r0, [r7, #4]
 80072c4:	6039      	str	r1, [r7, #0]
  uint32_t USBx_BASE = (uint32_t)USBx;
 80072c6:	687b      	ldr	r3, [r7, #4]
 80072c8:	60fb      	str	r3, [r7, #12]
  uint32_t epnum = (uint32_t)ep->num;
 80072ca:	683b      	ldr	r3, [r7, #0]
 80072cc:	781b      	ldrb	r3, [r3, #0]
 80072ce:	60bb      	str	r3, [r7, #8]

  /* Read DEPCTLn register */
  if (ep->is_in == 1U)
 80072d0:	683b      	ldr	r3, [r7, #0]
 80072d2:	785b      	ldrb	r3, [r3, #1]
 80072d4:	2b01      	cmp	r3, #1
 80072d6:	d161      	bne.n	800739c <USB_DeactivateEndpoint+0xe0>
  {
    if ((USBx_INEP(epnum)->DIEPCTL & USB_OTG_DIEPCTL_EPENA) == USB_OTG_DIEPCTL_EPENA)
 80072d8:	68bb      	ldr	r3, [r7, #8]
 80072da:	015a      	lsls	r2, r3, #5
 80072dc:	68fb      	ldr	r3, [r7, #12]
 80072de:	4413      	add	r3, r2
 80072e0:	f503 6310 	add.w	r3, r3, #2304	@ 0x900
 80072e4:	681b      	ldr	r3, [r3, #0]
 80072e6:	f003 4300 	and.w	r3, r3, #2147483648	@ 0x80000000
 80072ea:	f1b3 4f00 	cmp.w	r3, #2147483648	@ 0x80000000
 80072ee:	d11f      	bne.n	8007330 <USB_DeactivateEndpoint+0x74>
    {
      USBx_INEP(epnum)->DIEPCTL |= USB_OTG_DIEPCTL_SNAK;
 80072f0:	68bb      	ldr	r3, [r7, #8]
 80072f2:	015a      	lsls	r2, r3, #5
 80072f4:	68fb      	ldr	r3, [r7, #12]
 80072f6:	4413      	add	r3, r2
 80072f8:	f503 6310 	add.w	r3, r3, #2304	@ 0x900
 80072fc:	681b      	ldr	r3, [r3, #0]
 80072fe:	68ba      	ldr	r2, [r7, #8]
 8007300:	0151      	lsls	r1, r2, #5
 8007302:	68fa      	ldr	r2, [r7, #12]
 8007304:	440a      	add	r2, r1
 8007306:	f502 6210 	add.w	r2, r2, #2304	@ 0x900
 800730a:	f043 6300 	orr.w	r3, r3, #134217728	@ 0x8000000
 800730e:	6013      	str	r3, [r2, #0]
      USBx_INEP(epnum)->DIEPCTL |= USB_OTG_DIEPCTL_EPDIS;
 8007310:	68bb      	ldr	r3, [r7, #8]
 8007312:	015a      	lsls	r2, r3, #5
 8007314:	68fb      	ldr	r3, [r7, #12]
 8007316:	4413      	add	r3, r2
 8007318:	f503 6310 	add.w	r3, r3, #2304	@ 0x900
 800731c:	681b      	ldr	r3, [r3, #0]
 800731e:	68ba      	ldr	r2, [r7, #8]
 8007320:	0151      	lsls	r1, r2, #5
 8007322:	68fa      	ldr	r2, [r7, #12]
 8007324:	440a      	add	r2, r1
 8007326:	f502 6210 	add.w	r2, r2, #2304	@ 0x900
 800732a:	f043 4380 	orr.w	r3, r3, #1073741824	@ 0x40000000
 800732e:	6013      	str	r3, [r2, #0]
    }

    USBx_DEVICE->DEACHMSK &= ~(USB_OTG_DAINTMSK_IEPM & (uint32_t)(1UL << (ep->num & EP_ADDR_MSK)));
 8007330:	68fb      	ldr	r3, [r7, #12]
 8007332:	f503 6300 	add.w	r3, r3, #2048	@ 0x800
 8007336:	6bda      	ldr	r2, [r3, #60]	@ 0x3c
 8007338:	683b      	ldr	r3, [r7, #0]
 800733a:	781b      	ldrb	r3, [r3, #0]
 800733c:	f003 030f 	and.w	r3, r3, #15
 8007340:	2101      	movs	r1, #1
 8007342:	fa01 f303 	lsl.w	r3, r1, r3
 8007346:	b29b      	uxth	r3, r3
 8007348:	43db      	mvns	r3, r3
 800734a:	68f9      	ldr	r1, [r7, #12]
 800734c:	f501 6100 	add.w	r1, r1, #2048	@ 0x800
 8007350:	4013      	ands	r3, r2
 8007352:	63cb      	str	r3, [r1, #60]	@ 0x3c
    USBx_DEVICE->DAINTMSK &= ~(USB_OTG_DAINTMSK_IEPM & (uint32_t)(1UL << (ep->num & EP_ADDR_MSK)));
 8007354:	68fb      	ldr	r3, [r7, #12]
 8007356:	f503 6300 	add.w	r3, r3, #2048	@ 0x800
 800735a:	69da      	ldr	r2, [r3, #28]
 800735c:	683b      	ldr	r3, [r7, #0]
 800735e:	781b      	ldrb	r3, [r3, #0]
 8007360:	f003 030f 	and.w	r3, r3, #15
 8007364:	2101      	movs	r1, #1
 8007366:	fa01 f303 	lsl.w	r3, r1, r3
 800736a:	b29b      	uxth	r3, r3
 800736c:	43db      	mvns	r3, r3
 800736e:	68f9      	ldr	r1, [r7, #12]
 8007370:	f501 6100 	add.w	r1, r1, #2048	@ 0x800
 8007374:	4013      	ands	r3, r2
 8007376:	61cb      	str	r3, [r1, #28]
    USBx_INEP(epnum)->DIEPCTL &= ~(USB_OTG_DIEPCTL_USBAEP |
 8007378:	68bb      	ldr	r3, [r7, #8]
 800737a:	015a      	lsls	r2, r3, #5
 800737c:	68fb      	ldr	r3, [r7, #12]
 800737e:	4413      	add	r3, r2
 8007380:	f503 6310 	add.w	r3, r3, #2304	@ 0x900
 8007384:	681a      	ldr	r2, [r3, #0]
 8007386:	68bb      	ldr	r3, [r7, #8]
 8007388:	0159      	lsls	r1, r3, #5
 800738a:	68fb      	ldr	r3, [r7, #12]
 800738c:	440b      	add	r3, r1
 800738e:	f503 6310 	add.w	r3, r3, #2304	@ 0x900
 8007392:	4619      	mov	r1, r3
 8007394:	4b35      	ldr	r3, [pc, #212]	@ (800746c <USB_DeactivateEndpoint+0x1b0>)
 8007396:	4013      	ands	r3, r2
 8007398:	600b      	str	r3, [r1, #0]
 800739a:	e060      	b.n	800745e <USB_DeactivateEndpoint+0x1a2>
                                   USB_OTG_DIEPCTL_SD0PID_SEVNFRM |
                                   USB_OTG_DIEPCTL_EPTYP);
  }
  else
  {
    if ((USBx_OUTEP(epnum)->DOEPCTL & USB_OTG_DOEPCTL_EPENA) == USB_OTG_DOEPCTL_EPENA)
 800739c:	68bb      	ldr	r3, [r7, #8]
 800739e:	015a      	lsls	r2, r3, #5
 80073a0:	68fb      	ldr	r3, [r7, #12]
 80073a2:	4413      	add	r3, r2
 80073a4:	f503 6330 	add.w	r3, r3, #2816	@ 0xb00
 80073a8:	681b      	ldr	r3, [r3, #0]
 80073aa:	f003 4300 	and.w	r3, r3, #2147483648	@ 0x80000000
 80073ae:	f1b3 4f00 	cmp.w	r3, #2147483648	@ 0x80000000
 80073b2:	d11f      	bne.n	80073f4 <USB_DeactivateEndpoint+0x138>
    {
      USBx_OUTEP(epnum)->DOEPCTL |= USB_OTG_DOEPCTL_SNAK;
 80073b4:	68bb      	ldr	r3, [r7, #8]
 80073b6:	015a      	lsls	r2, r3, #5
 80073b8:	68fb      	ldr	r3, [r7, #12]
 80073ba:	4413      	add	r3, r2
 80073bc:	f503 6330 	add.w	r3, r3, #2816	@ 0xb00
 80073c0:	681b      	ldr	r3, [r3, #0]
 80073c2:	68ba      	ldr	r2, [r7, #8]
 80073c4:	0151      	lsls	r1, r2, #5
 80073c6:	68fa      	ldr	r2, [r7, #12]
 80073c8:	440a      	add	r2, r1
 80073ca:	f502 6230 	add.w	r2, r2, #2816	@ 0xb00
 80073ce:	f043 6300 	orr.w	r3, r3, #134217728	@ 0x8000000
 80073d2:	6013      	str	r3, [r2, #0]
      USBx_OUTEP(epnum)->DOEPCTL |= USB_OTG_DOEPCTL_EPDIS;
 80073d4:	68bb      	ldr	r3, [r7, #8]
 80073d6:	015a      	lsls	r2, r3, #5
 80073d8:	68fb      	ldr	r3, [r7, #12]
 80073da:	4413      	add	r3, r2
 80073dc:	f503 6330 	add.w	r3, r3, #2816	@ 0xb00
 80073e0:	681b      	ldr	r3, [r3, #0]
 80073e2:	68ba      	ldr	r2, [r7, #8]
 80073e4:	0151      	lsls	r1, r2, #5
 80073e6:	68fa      	ldr	r2, [r7, #12]
 80073e8:	440a      	add	r2, r1
 80073ea:	f502 6230 	add.w	r2, r2, #2816	@ 0xb00
 80073ee:	f043 4380 	orr.w	r3, r3, #1073741824	@ 0x40000000
 80073f2:	6013      	str	r3, [r2, #0]
    }

    USBx_DEVICE->DEACHMSK &= ~(USB_OTG_DAINTMSK_OEPM & ((uint32_t)(1UL << (ep->num & EP_ADDR_MSK)) << 16));
 80073f4:	68fb      	ldr	r3, [r7, #12]
 80073f6:	f503 6300 	add.w	r3, r3, #2048	@ 0x800
 80073fa:	6bda      	ldr	r2, [r3, #60]	@ 0x3c
 80073fc:	683b      	ldr	r3, [r7, #0]
 80073fe:	781b      	ldrb	r3, [r3, #0]
 8007400:	f003 030f 	and.w	r3, r3, #15
 8007404:	2101      	movs	r1, #1
 8007406:	fa01 f303 	lsl.w	r3, r1, r3
 800740a:	041b      	lsls	r3, r3, #16
 800740c:	43db      	mvns	r3, r3
 800740e:	68f9      	ldr	r1, [r7, #12]
 8007410:	f501 6100 	add.w	r1, r1, #2048	@ 0x800
 8007414:	4013      	ands	r3, r2
 8007416:	63cb      	str	r3, [r1, #60]	@ 0x3c
    USBx_DEVICE->DAINTMSK &= ~(USB_OTG_DAINTMSK_OEPM & ((uint32_t)(1UL << (ep->num & EP_ADDR_MSK)) << 16));
 8007418:	68fb      	ldr	r3, [r7, #12]
 800741a:	f503 6300 	add.w	r3, r3, #2048	@ 0x800
 800741e:	69da      	ldr	r2, [r3, #28]
 8007420:	683b      	ldr	r3, [r7, #0]
 8007422:	781b      	ldrb	r3, [r3, #0]
 8007424:	f003 030f 	and.w	r3, r3, #15
 8007428:	2101      	movs	r1, #1
 800742a:	fa01 f303 	lsl.w	r3, r1, r3
 800742e:	041b      	lsls	r3, r3, #16
 8007430:	43db      	mvns	r3, r3
 8007432:	68f9      	ldr	r1, [r7, #12]
 8007434:	f501 6100 	add.w	r1, r1, #2048	@ 0x800
 8007438:	4013      	ands	r3, r2
 800743a:	61cb      	str	r3, [r1, #28]
    USBx_OUTEP(epnum)->DOEPCTL &= ~(USB_OTG_DOEPCTL_USBAEP |
 800743c:	68bb      	ldr	r3, [r7, #8]
 800743e:	015a      	lsls	r2, r3, #5
 8007440:	68fb      	ldr	r3, [r7, #12]
 8007442:	4413      	add	r3, r2
 8007444:	f503 6330 	add.w	r3, r3, #2816	@ 0xb00
 8007448:	681a      	ldr	r2, [r3, #0]
 800744a:	68bb      	ldr	r3, [r7, #8]
 800744c:	0159      	lsls	r1, r3, #5
 800744e:	68fb      	ldr	r3, [r7, #12]
 8007450:	440b      	add	r3, r1
 8007452:	f503 6330 	add.w	r3, r3, #2816	@ 0xb00
 8007456:	4619      	mov	r1, r3
 8007458:	4b05      	ldr	r3, [pc, #20]	@ (8007470 <USB_DeactivateEndpoint+0x1b4>)
 800745a:	4013      	ands	r3, r2
 800745c:	600b      	str	r3, [r1, #0]
                                    USB_OTG_DOEPCTL_MPSIZ |
                                    USB_OTG_DOEPCTL_SD0PID_SEVNFRM |
                                    USB_OTG_DOEPCTL_EPTYP);
  }

  return HAL_OK;
 800745e:	2300      	movs	r3, #0
}
 8007460:	4618      	mov	r0, r3
 8007462:	3714      	adds	r7, #20
 8007464:	46bd      	mov	sp, r7
 8007466:	f85d 7b04 	ldr.w	r7, [sp], #4
 800746a:	4770      	bx	lr
 800746c:	ec337800 	.word	0xec337800
 8007470:	eff37800 	.word	0xeff37800

08007474 <USB_EPStartXfer>:
  *           0 : DMA feature not used
  *           1 : DMA feature used
  * @retval HAL status
  */
HAL_StatusTypeDef USB_EPStartXfer(USB_OTG_GlobalTypeDef *USBx, USB_OTG_EPTypeDef *ep, uint8_t dma)
{
 8007474:	b580      	push	{r7, lr}
 8007476:	b08a      	sub	sp, #40	@ 0x28
 8007478:	af02      	add	r7, sp, #8
 800747a:	60f8      	str	r0, [r7, #12]
 800747c:	60b9      	str	r1, [r7, #8]
 800747e:	4613      	mov	r3, r2
 8007480:	71fb      	strb	r3, [r7, #7]
  uint32_t USBx_BASE = (uint32_t)USBx;
 8007482:	68fb      	ldr	r3, [r7, #12]
 8007484:	61fb      	str	r3, [r7, #28]
  uint32_t epnum = (uint32_t)ep->num;
 8007486:	68bb      	ldr	r3, [r7, #8]
 8007488:	781b      	ldrb	r3, [r3, #0]
 800748a:	61bb      	str	r3, [r7, #24]
  uint16_t pktcnt;

  /* IN endpoint */
  if (ep->is_in == 1U)
 800748c:	68bb      	ldr	r3, [r7, #8]
 800748e:	785b      	ldrb	r3, [r3, #1]
 8007490:	2b01      	cmp	r3, #1
 8007492:	f040 817f 	bne.w	8007794 <USB_EPStartXfer+0x320>
  {
    /* Zero Length Packet? */
    if (ep->xfer_len == 0U)
 8007496:	68bb      	ldr	r3, [r7, #8]
 8007498:	691b      	ldr	r3, [r3, #16]
 800749a:	2b00      	cmp	r3, #0
 800749c:	d132      	bne.n	8007504 <USB_EPStartXfer+0x90>
    {
      USBx_INEP(epnum)->DIEPTSIZ &= ~(USB_OTG_DIEPTSIZ_PKTCNT);
 800749e:	69bb      	ldr	r3, [r7, #24]
 80074a0:	015a      	lsls	r2, r3, #5
 80074a2:	69fb      	ldr	r3, [r7, #28]
 80074a4:	4413      	add	r3, r2
 80074a6:	f503 6310 	add.w	r3, r3, #2304	@ 0x900
 80074aa:	691b      	ldr	r3, [r3, #16]
 80074ac:	69ba      	ldr	r2, [r7, #24]
 80074ae:	0151      	lsls	r1, r2, #5
 80074b0:	69fa      	ldr	r2, [r7, #28]
 80074b2:	440a      	add	r2, r1
 80074b4:	f502 6210 	add.w	r2, r2, #2304	@ 0x900
 80074b8:	f023 53ff 	bic.w	r3, r3, #534773760	@ 0x1fe00000
 80074bc:	f423 13c0 	bic.w	r3, r3, #1572864	@ 0x180000
 80074c0:	6113      	str	r3, [r2, #16]
      USBx_INEP(epnum)->DIEPTSIZ |= (USB_OTG_DIEPTSIZ_PKTCNT & (1U << 19));
 80074c2:	69bb      	ldr	r3, [r7, #24]
 80074c4:	015a      	lsls	r2, r3, #5
 80074c6:	69fb      	ldr	r3, [r7, #28]
 80074c8:	4413      	add	r3, r2
 80074ca:	f503 6310 	add.w	r3, r3, #2304	@ 0x900
 80074ce:	691b      	ldr	r3, [r3, #16]
 80074d0:	69ba      	ldr	r2, [r7, #24]
 80074d2:	0151      	lsls	r1, r2, #5
 80074d4:	69fa      	ldr	r2, [r7, #28]
 80074d6:	440a      	add	r2, r1
 80074d8:	f502 6210 	add.w	r2, r2, #2304	@ 0x900
 80074dc:	f443 2300 	orr.w	r3, r3, #524288	@ 0x80000
 80074e0:	6113      	str	r3, [r2, #16]
      USBx_INEP(epnum)->DIEPTSIZ &= ~(USB_OTG_DIEPTSIZ_XFRSIZ);
 80074e2:	69bb      	ldr	r3, [r7, #24]
 80074e4:	015a      	lsls	r2, r3, #5
 80074e6:	69fb      	ldr	r3, [r7, #28]
 80074e8:	4413      	add	r3, r2
 80074ea:	f503 6310 	add.w	r3, r3, #2304	@ 0x900
 80074ee:	691b      	ldr	r3, [r3, #16]
 80074f0:	69ba      	ldr	r2, [r7, #24]
 80074f2:	0151      	lsls	r1, r2, #5
 80074f4:	69fa      	ldr	r2, [r7, #28]
 80074f6:	440a      	add	r2, r1
 80074f8:	f502 6210 	add.w	r2, r2, #2304	@ 0x900
 80074fc:	0cdb      	lsrs	r3, r3, #19
 80074fe:	04db      	lsls	r3, r3, #19
 8007500:	6113      	str	r3, [r2, #16]
 8007502:	e097      	b.n	8007634 <USB_EPStartXfer+0x1c0>
      /* Program the transfer size and packet count
      * as follows: xfersize = N * maxpacket +
      * short_packet pktcnt = N + (short_packet
      * exist ? 1 : 0)
      */
      USBx_INEP(epnum)->DIEPTSIZ &= ~(USB_OTG_DIEPTSIZ_XFRSIZ);
 8007504:	69bb      	ldr	r3, [r7, #24]
 8007506:	015a      	lsls	r2, r3, #5
 8007508:	69fb      	ldr	r3, [r7, #28]
 800750a:	4413      	add	r3, r2
 800750c:	f503 6310 	add.w	r3, r3, #2304	@ 0x900
 8007510:	691b      	ldr	r3, [r3, #16]
 8007512:	69ba      	ldr	r2, [r7, #24]
 8007514:	0151      	lsls	r1, r2, #5
 8007516:	69fa      	ldr	r2, [r7, #28]
 8007518:	440a      	add	r2, r1
 800751a:	f502 6210 	add.w	r2, r2, #2304	@ 0x900
 800751e:	0cdb      	lsrs	r3, r3, #19
 8007520:	04db      	lsls	r3, r3, #19
 8007522:	6113      	str	r3, [r2, #16]
      USBx_INEP(epnum)->DIEPTSIZ &= ~(USB_OTG_DIEPTSIZ_PKTCNT);
 8007524:	69bb      	ldr	r3, [r7, #24]
 8007526:	015a      	lsls	r2, r3, #5
 8007528:	69fb      	ldr	r3, [r7, #28]
 800752a:	4413      	add	r3, r2
 800752c:	f503 6310 	add.w	r3, r3, #2304	@ 0x900
 8007530:	691b      	ldr	r3, [r3, #16]
 8007532:	69ba      	ldr	r2, [r7, #24]
 8007534:	0151      	lsls	r1, r2, #5
 8007536:	69fa      	ldr	r2, [r7, #28]
 8007538:	440a      	add	r2, r1
 800753a:	f502 6210 	add.w	r2, r2, #2304	@ 0x900
 800753e:	f023 53ff 	bic.w	r3, r3, #534773760	@ 0x1fe00000
 8007542:	f423 13c0 	bic.w	r3, r3, #1572864	@ 0x180000
 8007546:	6113      	str	r3, [r2, #16]

      if (epnum == 0U)
 8007548:	69bb      	ldr	r3, [r7, #24]
 800754a:	2b00      	cmp	r3, #0
 800754c:	d11a      	bne.n	8007584 <USB_EPStartXfer+0x110>
      {
        if (ep->xfer_len > ep->maxpacket)
 800754e:	68bb      	ldr	r3, [r7, #8]
 8007550:	691a      	ldr	r2, [r3, #16]
 8007552:	68bb      	ldr	r3, [r7, #8]
 8007554:	689b      	ldr	r3, [r3, #8]
 8007556:	429a      	cmp	r2, r3
 8007558:	d903      	bls.n	8007562 <USB_EPStartXfer+0xee>
        {
          ep->xfer_len = ep->maxpacket;
 800755a:	68bb      	ldr	r3, [r7, #8]
 800755c:	689a      	ldr	r2, [r3, #8]
 800755e:	68bb      	ldr	r3, [r7, #8]
 8007560:	611a      	str	r2, [r3, #16]
        }

        USBx_INEP(epnum)->DIEPTSIZ |= (USB_OTG_DIEPTSIZ_PKTCNT & (1U << 19));
 8007562:	69bb      	ldr	r3, [r7, #24]
 8007564:	015a      	lsls	r2, r3, #5
 8007566:	69fb      	ldr	r3, [r7, #28]
 8007568:	4413      	add	r3, r2
 800756a:	f503 6310 	add.w	r3, r3, #2304	@ 0x900
 800756e:	691b      	ldr	r3, [r3, #16]
 8007570:	69ba      	ldr	r2, [r7, #24]
 8007572:	0151      	lsls	r1, r2, #5
 8007574:	69fa      	ldr	r2, [r7, #28]
 8007576:	440a      	add	r2, r1
 8007578:	f502 6210 	add.w	r2, r2, #2304	@ 0x900
 800757c:	f443 2300 	orr.w	r3, r3, #524288	@ 0x80000
 8007580:	6113      	str	r3, [r2, #16]
 8007582:	e044      	b.n	800760e <USB_EPStartXfer+0x19a>
      }
      else
      {
        pktcnt = (uint16_t)((ep->xfer_len + ep->maxpacket - 1U) / ep->maxpacket);
 8007584:	68bb      	ldr	r3, [r7, #8]
 8007586:	691a      	ldr	r2, [r3, #16]
 8007588:	68bb      	ldr	r3, [r7, #8]
 800758a:	689b      	ldr	r3, [r3, #8]
 800758c:	4413      	add	r3, r2
 800758e:	1e5a      	subs	r2, r3, #1
 8007590:	68bb      	ldr	r3, [r7, #8]
 8007592:	689b      	ldr	r3, [r3, #8]
 8007594:	fbb2 f3f3 	udiv	r3, r2, r3
 8007598:	82fb      	strh	r3, [r7, #22]
        USBx_INEP(epnum)->DIEPTSIZ |= (USB_OTG_DIEPTSIZ_PKTCNT & ((uint32_t)pktcnt << 19));
 800759a:	69bb      	ldr	r3, [r7, #24]
 800759c:	015a      	lsls	r2, r3, #5
 800759e:	69fb      	ldr	r3, [r7, #28]
 80075a0:	4413      	add	r3, r2
 80075a2:	f503 6310 	add.w	r3, r3, #2304	@ 0x900
 80075a6:	691a      	ldr	r2, [r3, #16]
 80075a8:	8afb      	ldrh	r3, [r7, #22]
 80075aa:	04d9      	lsls	r1, r3, #19
 80075ac:	4ba4      	ldr	r3, [pc, #656]	@ (8007840 <USB_EPStartXfer+0x3cc>)
 80075ae:	400b      	ands	r3, r1
 80075b0:	69b9      	ldr	r1, [r7, #24]
 80075b2:	0148      	lsls	r0, r1, #5
 80075b4:	69f9      	ldr	r1, [r7, #28]
 80075b6:	4401      	add	r1, r0
 80075b8:	f501 6110 	add.w	r1, r1, #2304	@ 0x900
 80075bc:	4313      	orrs	r3, r2
 80075be:	610b      	str	r3, [r1, #16]

        if (ep->type == EP_TYPE_ISOC)
 80075c0:	68bb      	ldr	r3, [r7, #8]
 80075c2:	791b      	ldrb	r3, [r3, #4]
 80075c4:	2b01      	cmp	r3, #1
 80075c6:	d122      	bne.n	800760e <USB_EPStartXfer+0x19a>
        {
          USBx_INEP(epnum)->DIEPTSIZ &= ~(USB_OTG_DIEPTSIZ_MULCNT);
 80075c8:	69bb      	ldr	r3, [r7, #24]
 80075ca:	015a      	lsls	r2, r3, #5
 80075cc:	69fb      	ldr	r3, [r7, #28]
 80075ce:	4413      	add	r3, r2
 80075d0:	f503 6310 	add.w	r3, r3, #2304	@ 0x900
 80075d4:	691b      	ldr	r3, [r3, #16]
 80075d6:	69ba      	ldr	r2, [r7, #24]
 80075d8:	0151      	lsls	r1, r2, #5
 80075da:	69fa      	ldr	r2, [r7, #28]
 80075dc:	440a      	add	r2, r1
 80075de:	f502 6210 	add.w	r2, r2, #2304	@ 0x900
 80075e2:	f023 43c0 	bic.w	r3, r3, #1610612736	@ 0x60000000
 80075e6:	6113      	str	r3, [r2, #16]
          USBx_INEP(epnum)->DIEPTSIZ |= (USB_OTG_DIEPTSIZ_MULCNT & ((uint32_t)pktcnt << 29));
 80075e8:	69bb      	ldr	r3, [r7, #24]
 80075ea:	015a      	lsls	r2, r3, #5
 80075ec:	69fb      	ldr	r3, [r7, #28]
 80075ee:	4413      	add	r3, r2
 80075f0:	f503 6310 	add.w	r3, r3, #2304	@ 0x900
 80075f4:	691a      	ldr	r2, [r3, #16]
 80075f6:	8afb      	ldrh	r3, [r7, #22]
 80075f8:	075b      	lsls	r3, r3, #29
 80075fa:	f003 43c0 	and.w	r3, r3, #1610612736	@ 0x60000000
 80075fe:	69b9      	ldr	r1, [r7, #24]
 8007600:	0148      	lsls	r0, r1, #5
 8007602:	69f9      	ldr	r1, [r7, #28]
 8007604:	4401      	add	r1, r0
 8007606:	f501 6110 	add.w	r1, r1, #2304	@ 0x900
 800760a:	4313      	orrs	r3, r2
 800760c:	610b      	str	r3, [r1, #16]
        }
      }

      USBx_INEP(epnum)->DIEPTSIZ |= (USB_OTG_DIEPTSIZ_XFRSIZ & ep->xfer_len);
 800760e:	69bb      	ldr	r3, [r7, #24]
 8007610:	015a      	lsls	r2, r3, #5
 8007612:	69fb      	ldr	r3, [r7, #28]
 8007614:	4413      	add	r3, r2
 8007616:	f503 6310 	add.w	r3, r3, #2304	@ 0x900
 800761a:	691a      	ldr	r2, [r3, #16]
 800761c:	68bb      	ldr	r3, [r7, #8]
 800761e:	691b      	ldr	r3, [r3, #16]
 8007620:	f3c3 0312 	ubfx	r3, r3, #0, #19
 8007624:	69b9      	ldr	r1, [r7, #24]
 8007626:	0148      	lsls	r0, r1, #5
 8007628:	69f9      	ldr	r1, [r7, #28]
 800762a:	4401      	add	r1, r0
 800762c:	f501 6110 	add.w	r1, r1, #2304	@ 0x900
 8007630:	4313      	orrs	r3, r2
 8007632:	610b      	str	r3, [r1, #16]
    }

    if (dma == 1U)
 8007634:	79fb      	ldrb	r3, [r7, #7]
 8007636:	2b01      	cmp	r3, #1
 8007638:	d14b      	bne.n	80076d2 <USB_EPStartXfer+0x25e>
    {
      if ((uint32_t)ep->dma_addr != 0U)
 800763a:	68bb      	ldr	r3, [r7, #8]
 800763c:	69db      	ldr	r3, [r3, #28]
 800763e:	2b00      	cmp	r3, #0
 8007640:	d009      	beq.n	8007656 <USB_EPStartXfer+0x1e2>
      {
        USBx_INEP(epnum)->DIEPDMA = (uint32_t)(ep->dma_addr);
 8007642:	69bb      	ldr	r3, [r7, #24]
 8007644:	015a      	lsls	r2, r3, #5
 8007646:	69fb      	ldr	r3, [r7, #28]
 8007648:	4413      	add	r3, r2
 800764a:	f503 6310 	add.w	r3, r3, #2304	@ 0x900
 800764e:	461a      	mov	r2, r3
 8007650:	68bb      	ldr	r3, [r7, #8]
 8007652:	69db      	ldr	r3, [r3, #28]
 8007654:	6153      	str	r3, [r2, #20]
      }

      if (ep->type == EP_TYPE_ISOC)
 8007656:	68bb      	ldr	r3, [r7, #8]
 8007658:	791b      	ldrb	r3, [r3, #4]
 800765a:	2b01      	cmp	r3, #1
 800765c:	d128      	bne.n	80076b0 <USB_EPStartXfer+0x23c>
      {
        if ((USBx_DEVICE->DSTS & (1U << 8)) == 0U)
 800765e:	69fb      	ldr	r3, [r7, #28]
 8007660:	f503 6300 	add.w	r3, r3, #2048	@ 0x800
 8007664:	689b      	ldr	r3, [r3, #8]
 8007666:	f403 7380 	and.w	r3, r3, #256	@ 0x100
 800766a:	2b00      	cmp	r3, #0
 800766c:	d110      	bne.n	8007690 <USB_EPStartXfer+0x21c>
        {
          USBx_INEP(epnum)->DIEPCTL |= USB_OTG_DIEPCTL_SODDFRM;
 800766e:	69bb      	ldr	r3, [r7, #24]
 8007670:	015a      	lsls	r2, r3, #5
 8007672:	69fb      	ldr	r3, [r7, #28]
 8007674:	4413      	add	r3, r2
 8007676:	f503 6310 	add.w	r3, r3, #2304	@ 0x900
 800767a:	681b      	ldr	r3, [r3, #0]
 800767c:	69ba      	ldr	r2, [r7, #24]
 800767e:	0151      	lsls	r1, r2, #5
 8007680:	69fa      	ldr	r2, [r7, #28]
 8007682:	440a      	add	r2, r1
 8007684:	f502 6210 	add.w	r2, r2, #2304	@ 0x900
 8007688:	f043 5300 	orr.w	r3, r3, #536870912	@ 0x20000000
 800768c:	6013      	str	r3, [r2, #0]
 800768e:	e00f      	b.n	80076b0 <USB_EPStartXfer+0x23c>
        }
        else
        {
          USBx_INEP(epnum)->DIEPCTL |= USB_OTG_DIEPCTL_SD0PID_SEVNFRM;
 8007690:	69bb      	ldr	r3, [r7, #24]
 8007692:	015a      	lsls	r2, r3, #5
 8007694:	69fb      	ldr	r3, [r7, #28]
 8007696:	4413      	add	r3, r2
 8007698:	f503 6310 	add.w	r3, r3, #2304	@ 0x900
 800769c:	681b      	ldr	r3, [r3, #0]
 800769e:	69ba      	ldr	r2, [r7, #24]
 80076a0:	0151      	lsls	r1, r2, #5
 80076a2:	69fa      	ldr	r2, [r7, #28]
 80076a4:	440a      	add	r2, r1
 80076a6:	f502 6210 	add.w	r2, r2, #2304	@ 0x900
 80076aa:	f043 5380 	orr.w	r3, r3, #268435456	@ 0x10000000
 80076ae:	6013      	str	r3, [r2, #0]
        }
      }

      /* EP enable, IN data in FIFO */
      USBx_INEP(epnum)->DIEPCTL |= (USB_OTG_DIEPCTL_CNAK | USB_OTG_DIEPCTL_EPENA);
 80076b0:	69bb      	ldr	r3, [r7, #24]
 80076b2:	015a      	lsls	r2, r3, #5
 80076b4:	69fb      	ldr	r3, [r7, #28]
 80076b6:	4413      	add	r3, r2
 80076b8:	f503 6310 	add.w	r3, r3, #2304	@ 0x900
 80076bc:	681b      	ldr	r3, [r3, #0]
 80076be:	69ba      	ldr	r2, [r7, #24]
 80076c0:	0151      	lsls	r1, r2, #5
 80076c2:	69fa      	ldr	r2, [r7, #28]
 80076c4:	440a      	add	r2, r1
 80076c6:	f502 6210 	add.w	r2, r2, #2304	@ 0x900
 80076ca:	f043 4304 	orr.w	r3, r3, #2214592512	@ 0x84000000
 80076ce:	6013      	str	r3, [r2, #0]
 80076d0:	e166      	b.n	80079a0 <USB_EPStartXfer+0x52c>
    }
    else
    {
      /* EP enable, IN data in FIFO */
      USBx_INEP(epnum)->DIEPCTL |= (USB_OTG_DIEPCTL_CNAK | USB_OTG_DIEPCTL_EPENA);
 80076d2:	69bb      	ldr	r3, [r7, #24]
 80076d4:	015a      	lsls	r2, r3, #5
 80076d6:	69fb      	ldr	r3, [r7, #28]
 80076d8:	4413      	add	r3, r2
 80076da:	f503 6310 	add.w	r3, r3, #2304	@ 0x900
 80076de:	681b      	ldr	r3, [r3, #0]
 80076e0:	69ba      	ldr	r2, [r7, #24]
 80076e2:	0151      	lsls	r1, r2, #5
 80076e4:	69fa      	ldr	r2, [r7, #28]
 80076e6:	440a      	add	r2, r1
 80076e8:	f502 6210 	add.w	r2, r2, #2304	@ 0x900
 80076ec:	f043 4304 	orr.w	r3, r3, #2214592512	@ 0x84000000
 80076f0:	6013      	str	r3, [r2, #0]

      if (ep->type != EP_TYPE_ISOC)
 80076f2:	68bb      	ldr	r3, [r7, #8]
 80076f4:	791b      	ldrb	r3, [r3, #4]
 80076f6:	2b01      	cmp	r3, #1
 80076f8:	d015      	beq.n	8007726 <USB_EPStartXfer+0x2b2>
      {
        /* Enable the Tx FIFO Empty Interrupt for this EP */
        if (ep->xfer_len > 0U)
 80076fa:	68bb      	ldr	r3, [r7, #8]
 80076fc:	691b      	ldr	r3, [r3, #16]
 80076fe:	2b00      	cmp	r3, #0
 8007700:	f000 814e 	beq.w	80079a0 <USB_EPStartXfer+0x52c>
        {
          USBx_DEVICE->DIEPEMPMSK |= 1UL << (ep->num & EP_ADDR_MSK);
 8007704:	69fb      	ldr	r3, [r7, #28]
 8007706:	f503 6300 	add.w	r3, r3, #2048	@ 0x800
 800770a:	6b5a      	ldr	r2, [r3, #52]	@ 0x34
 800770c:	68bb      	ldr	r3, [r7, #8]
 800770e:	781b      	ldrb	r3, [r3, #0]
 8007710:	f003 030f 	and.w	r3, r3, #15
 8007714:	2101      	movs	r1, #1
 8007716:	fa01 f303 	lsl.w	r3, r1, r3
 800771a:	69f9      	ldr	r1, [r7, #28]
 800771c:	f501 6100 	add.w	r1, r1, #2048	@ 0x800
 8007720:	4313      	orrs	r3, r2
 8007722:	634b      	str	r3, [r1, #52]	@ 0x34
 8007724:	e13c      	b.n	80079a0 <USB_EPStartXfer+0x52c>
        }
      }
      else
      {
        if ((USBx_DEVICE->DSTS & (1U << 8)) == 0U)
 8007726:	69fb      	ldr	r3, [r7, #28]
 8007728:	f503 6300 	add.w	r3, r3, #2048	@ 0x800
 800772c:	689b      	ldr	r3, [r3, #8]
 800772e:	f403 7380 	and.w	r3, r3, #256	@ 0x100
 8007732:	2b00      	cmp	r3, #0
 8007734:	d110      	bne.n	8007758 <USB_EPStartXfer+0x2e4>
        {
          USBx_INEP(epnum)->DIEPCTL |= USB_OTG_DIEPCTL_SODDFRM;
 8007736:	69bb      	ldr	r3, [r7, #24]
 8007738:	015a      	lsls	r2, r3, #5
 800773a:	69fb      	ldr	r3, [r7, #28]
 800773c:	4413      	add	r3, r2
 800773e:	f503 6310 	add.w	r3, r3, #2304	@ 0x900
 8007742:	681b      	ldr	r3, [r3, #0]
 8007744:	69ba      	ldr	r2, [r7, #24]
 8007746:	0151      	lsls	r1, r2, #5
 8007748:	69fa      	ldr	r2, [r7, #28]
 800774a:	440a      	add	r2, r1
 800774c:	f502 6210 	add.w	r2, r2, #2304	@ 0x900
 8007750:	f043 5300 	orr.w	r3, r3, #536870912	@ 0x20000000
 8007754:	6013      	str	r3, [r2, #0]
 8007756:	e00f      	b.n	8007778 <USB_EPStartXfer+0x304>
        }
        else
        {
          USBx_INEP(epnum)->DIEPCTL |= USB_OTG_DIEPCTL_SD0PID_SEVNFRM;
 8007758:	69bb      	ldr	r3, [r7, #24]
 800775a:	015a      	lsls	r2, r3, #5
 800775c:	69fb      	ldr	r3, [r7, #28]
 800775e:	4413      	add	r3, r2
 8007760:	f503 6310 	add.w	r3, r3, #2304	@ 0x900
 8007764:	681b      	ldr	r3, [r3, #0]
 8007766:	69ba      	ldr	r2, [r7, #24]
 8007768:	0151      	lsls	r1, r2, #5
 800776a:	69fa      	ldr	r2, [r7, #28]
 800776c:	440a      	add	r2, r1
 800776e:	f502 6210 	add.w	r2, r2, #2304	@ 0x900
 8007772:	f043 5380 	orr.w	r3, r3, #268435456	@ 0x10000000
 8007776:	6013      	str	r3, [r2, #0]
        }

        (void)USB_WritePacket(USBx, ep->xfer_buff, ep->num, (uint16_t)ep->xfer_len, dma);
 8007778:	68bb      	ldr	r3, [r7, #8]
 800777a:	68d9      	ldr	r1, [r3, #12]
 800777c:	68bb      	ldr	r3, [r7, #8]
 800777e:	781a      	ldrb	r2, [r3, #0]
 8007780:	68bb      	ldr	r3, [r7, #8]
 8007782:	691b      	ldr	r3, [r3, #16]
 8007784:	b298      	uxth	r0, r3
 8007786:	79fb      	ldrb	r3, [r7, #7]
 8007788:	9300      	str	r3, [sp, #0]
 800778a:	4603      	mov	r3, r0
 800778c:	68f8      	ldr	r0, [r7, #12]
 800778e:	f000 f9b9 	bl	8007b04 <USB_WritePacket>
 8007792:	e105      	b.n	80079a0 <USB_EPStartXfer+0x52c>
  {
    /* Program the transfer size and packet count as follows:
    * pktcnt = N
    * xfersize = N * maxpacket
    */
    USBx_OUTEP(epnum)->DOEPTSIZ &= ~(USB_OTG_DOEPTSIZ_XFRSIZ);
 8007794:	69bb      	ldr	r3, [r7, #24]
 8007796:	015a      	lsls	r2, r3, #5
 8007798:	69fb      	ldr	r3, [r7, #28]
 800779a:	4413      	add	r3, r2
 800779c:	f503 6330 	add.w	r3, r3, #2816	@ 0xb00
 80077a0:	691b      	ldr	r3, [r3, #16]
 80077a2:	69ba      	ldr	r2, [r7, #24]
 80077a4:	0151      	lsls	r1, r2, #5
 80077a6:	69fa      	ldr	r2, [r7, #28]
 80077a8:	440a      	add	r2, r1
 80077aa:	f502 6230 	add.w	r2, r2, #2816	@ 0xb00
 80077ae:	0cdb      	lsrs	r3, r3, #19
 80077b0:	04db      	lsls	r3, r3, #19
 80077b2:	6113      	str	r3, [r2, #16]
    USBx_OUTEP(epnum)->DOEPTSIZ &= ~(USB_OTG_DOEPTSIZ_PKTCNT);
 80077b4:	69bb      	ldr	r3, [r7, #24]
 80077b6:	015a      	lsls	r2, r3, #5
 80077b8:	69fb      	ldr	r3, [r7, #28]
 80077ba:	4413      	add	r3, r2
 80077bc:	f503 6330 	add.w	r3, r3, #2816	@ 0xb00
 80077c0:	691b      	ldr	r3, [r3, #16]
 80077c2:	69ba      	ldr	r2, [r7, #24]
 80077c4:	0151      	lsls	r1, r2, #5
 80077c6:	69fa      	ldr	r2, [r7, #28]
 80077c8:	440a      	add	r2, r1
 80077ca:	f502 6230 	add.w	r2, r2, #2816	@ 0xb00
 80077ce:	f023 53ff 	bic.w	r3, r3, #534773760	@ 0x1fe00000
 80077d2:	f423 13c0 	bic.w	r3, r3, #1572864	@ 0x180000
 80077d6:	6113      	str	r3, [r2, #16]

    if (epnum == 0U)
 80077d8:	69bb      	ldr	r3, [r7, #24]
 80077da:	2b00      	cmp	r3, #0
 80077dc:	d132      	bne.n	8007844 <USB_EPStartXfer+0x3d0>
    {
      if (ep->xfer_len > 0U)
 80077de:	68bb      	ldr	r3, [r7, #8]
 80077e0:	691b      	ldr	r3, [r3, #16]
 80077e2:	2b00      	cmp	r3, #0
 80077e4:	d003      	beq.n	80077ee <USB_EPStartXfer+0x37a>
      {
        ep->xfer_len = ep->maxpacket;
 80077e6:	68bb      	ldr	r3, [r7, #8]
 80077e8:	689a      	ldr	r2, [r3, #8]
 80077ea:	68bb      	ldr	r3, [r7, #8]
 80077ec:	611a      	str	r2, [r3, #16]
      }

      /* Store transfer size, for EP0 this is equal to endpoint max packet size */
      ep->xfer_size = ep->maxpacket;
 80077ee:	68bb      	ldr	r3, [r7, #8]
 80077f0:	689a      	ldr	r2, [r3, #8]
 80077f2:	68bb      	ldr	r3, [r7, #8]
 80077f4:	621a      	str	r2, [r3, #32]

      USBx_OUTEP(epnum)->DOEPTSIZ |= (USB_OTG_DOEPTSIZ_XFRSIZ & ep->xfer_size);
 80077f6:	69bb      	ldr	r3, [r7, #24]
 80077f8:	015a      	lsls	r2, r3, #5
 80077fa:	69fb      	ldr	r3, [r7, #28]
 80077fc:	4413      	add	r3, r2
 80077fe:	f503 6330 	add.w	r3, r3, #2816	@ 0xb00
 8007802:	691a      	ldr	r2, [r3, #16]
 8007804:	68bb      	ldr	r3, [r7, #8]
 8007806:	6a1b      	ldr	r3, [r3, #32]
 8007808:	f3c3 0312 	ubfx	r3, r3, #0, #19
 800780c:	69b9      	ldr	r1, [r7, #24]
 800780e:	0148      	lsls	r0, r1, #5
 8007810:	69f9      	ldr	r1, [r7, #28]
 8007812:	4401      	add	r1, r0
 8007814:	f501 6130 	add.w	r1, r1, #2816	@ 0xb00
 8007818:	4313      	orrs	r3, r2
 800781a:	610b      	str	r3, [r1, #16]
      USBx_OUTEP(epnum)->DOEPTSIZ |= (USB_OTG_DOEPTSIZ_PKTCNT & (1U << 19));
 800781c:	69bb      	ldr	r3, [r7, #24]
 800781e:	015a      	lsls	r2, r3, #5
 8007820:	69fb      	ldr	r3, [r7, #28]
 8007822:	4413      	add	r3, r2
 8007824:	f503 6330 	add.w	r3, r3, #2816	@ 0xb00
 8007828:	691b      	ldr	r3, [r3, #16]
 800782a:	69ba      	ldr	r2, [r7, #24]
 800782c:	0151      	lsls	r1, r2, #5
 800782e:	69fa      	ldr	r2, [r7, #28]
 8007830:	440a      	add	r2, r1
 8007832:	f502 6230 	add.w	r2, r2, #2816	@ 0xb00
 8007836:	f443 2300 	orr.w	r3, r3, #524288	@ 0x80000
 800783a:	6113      	str	r3, [r2, #16]
 800783c:	e062      	b.n	8007904 <USB_EPStartXfer+0x490>
 800783e:	bf00      	nop
 8007840:	1ff80000 	.word	0x1ff80000
    }
    else
    {
      if (ep->xfer_len == 0U)
 8007844:	68bb      	ldr	r3, [r7, #8]
 8007846:	691b      	ldr	r3, [r3, #16]
 8007848:	2b00      	cmp	r3, #0
 800784a:	d123      	bne.n	8007894 <USB_EPStartXfer+0x420>
      {
        USBx_OUTEP(epnum)->DOEPTSIZ |= (USB_OTG_DOEPTSIZ_XFRSIZ & ep->maxpacket);
 800784c:	69bb      	ldr	r3, [r7, #24]
 800784e:	015a      	lsls	r2, r3, #5
 8007850:	69fb      	ldr	r3, [r7, #28]
 8007852:	4413      	add	r3, r2
 8007854:	f503 6330 	add.w	r3, r3, #2816	@ 0xb00
 8007858:	691a      	ldr	r2, [r3, #16]
 800785a:	68bb      	ldr	r3, [r7, #8]
 800785c:	689b      	ldr	r3, [r3, #8]
 800785e:	f3c3 0312 	ubfx	r3, r3, #0, #19
 8007862:	69b9      	ldr	r1, [r7, #24]
 8007864:	0148      	lsls	r0, r1, #5
 8007866:	69f9      	ldr	r1, [r7, #28]
 8007868:	4401      	add	r1, r0
 800786a:	f501 6130 	add.w	r1, r1, #2816	@ 0xb00
 800786e:	4313      	orrs	r3, r2
 8007870:	610b      	str	r3, [r1, #16]
        USBx_OUTEP(epnum)->DOEPTSIZ |= (USB_OTG_DOEPTSIZ_PKTCNT & (1U << 19));
 8007872:	69bb      	ldr	r3, [r7, #24]
 8007874:	015a      	lsls	r2, r3, #5
 8007876:	69fb      	ldr	r3, [r7, #28]
 8007878:	4413      	add	r3, r2
 800787a:	f503 6330 	add.w	r3, r3, #2816	@ 0xb00
 800787e:	691b      	ldr	r3, [r3, #16]
 8007880:	69ba      	ldr	r2, [r7, #24]
 8007882:	0151      	lsls	r1, r2, #5
 8007884:	69fa      	ldr	r2, [r7, #28]
 8007886:	440a      	add	r2, r1
 8007888:	f502 6230 	add.w	r2, r2, #2816	@ 0xb00
 800788c:	f443 2300 	orr.w	r3, r3, #524288	@ 0x80000
 8007890:	6113      	str	r3, [r2, #16]
 8007892:	e037      	b.n	8007904 <USB_EPStartXfer+0x490>
      }
      else
      {
        pktcnt = (uint16_t)((ep->xfer_len + ep->maxpacket - 1U) / ep->maxpacket);
 8007894:	68bb      	ldr	r3, [r7, #8]
 8007896:	691a      	ldr	r2, [r3, #16]
 8007898:	68bb      	ldr	r3, [r7, #8]
 800789a:	689b      	ldr	r3, [r3, #8]
 800789c:	4413      	add	r3, r2
 800789e:	1e5a      	subs	r2, r3, #1
 80078a0:	68bb      	ldr	r3, [r7, #8]
 80078a2:	689b      	ldr	r3, [r3, #8]
 80078a4:	fbb2 f3f3 	udiv	r3, r2, r3
 80078a8:	82fb      	strh	r3, [r7, #22]
        ep->xfer_size = ep->maxpacket * pktcnt;
 80078aa:	68bb      	ldr	r3, [r7, #8]
 80078ac:	689b      	ldr	r3, [r3, #8]
 80078ae:	8afa      	ldrh	r2, [r7, #22]
 80078b0:	fb03 f202 	mul.w	r2, r3, r2
 80078b4:	68bb      	ldr	r3, [r7, #8]
 80078b6:	621a      	str	r2, [r3, #32]

        USBx_OUTEP(epnum)->DOEPTSIZ |= USB_OTG_DOEPTSIZ_PKTCNT & ((uint32_t)pktcnt << 19);
 80078b8:	69bb      	ldr	r3, [r7, #24]
 80078ba:	015a      	lsls	r2, r3, #5
 80078bc:	69fb      	ldr	r3, [r7, #28]
 80078be:	4413      	add	r3, r2
 80078c0:	f503 6330 	add.w	r3, r3, #2816	@ 0xb00
 80078c4:	691a      	ldr	r2, [r3, #16]
 80078c6:	8afb      	ldrh	r3, [r7, #22]
 80078c8:	04d9      	lsls	r1, r3, #19
 80078ca:	4b38      	ldr	r3, [pc, #224]	@ (80079ac <USB_EPStartXfer+0x538>)
 80078cc:	400b      	ands	r3, r1
 80078ce:	69b9      	ldr	r1, [r7, #24]
 80078d0:	0148      	lsls	r0, r1, #5
 80078d2:	69f9      	ldr	r1, [r7, #28]
 80078d4:	4401      	add	r1, r0
 80078d6:	f501 6130 	add.w	r1, r1, #2816	@ 0xb00
 80078da:	4313      	orrs	r3, r2
 80078dc:	610b      	str	r3, [r1, #16]
        USBx_OUTEP(epnum)->DOEPTSIZ |= USB_OTG_DOEPTSIZ_XFRSIZ & ep->xfer_size;
 80078de:	69bb      	ldr	r3, [r7, #24]
 80078e0:	015a      	lsls	r2, r3, #5
 80078e2:	69fb      	ldr	r3, [r7, #28]
 80078e4:	4413      	add	r3, r2
 80078e6:	f503 6330 	add.w	r3, r3, #2816	@ 0xb00
 80078ea:	691a      	ldr	r2, [r3, #16]
 80078ec:	68bb      	ldr	r3, [r7, #8]
 80078ee:	6a1b      	ldr	r3, [r3, #32]
 80078f0:	f3c3 0312 	ubfx	r3, r3, #0, #19
 80078f4:	69b9      	ldr	r1, [r7, #24]
 80078f6:	0148      	lsls	r0, r1, #5
 80078f8:	69f9      	ldr	r1, [r7, #28]
 80078fa:	4401      	add	r1, r0
 80078fc:	f501 6130 	add.w	r1, r1, #2816	@ 0xb00
 8007900:	4313      	orrs	r3, r2
 8007902:	610b      	str	r3, [r1, #16]
      }
    }

    if (dma == 1U)
 8007904:	79fb      	ldrb	r3, [r7, #7]
 8007906:	2b01      	cmp	r3, #1
 8007908:	d10d      	bne.n	8007926 <USB_EPStartXfer+0x4b2>
    {
      if ((uint32_t)ep->xfer_buff != 0U)
 800790a:	68bb      	ldr	r3, [r7, #8]
 800790c:	68db      	ldr	r3, [r3, #12]
 800790e:	2b00      	cmp	r3, #0
 8007910:	d009      	beq.n	8007926 <USB_EPStartXfer+0x4b2>
      {
        USBx_OUTEP(epnum)->DOEPDMA = (uint32_t)(ep->xfer_buff);
 8007912:	68bb      	ldr	r3, [r7, #8]
 8007914:	68d9      	ldr	r1, [r3, #12]
 8007916:	69bb      	ldr	r3, [r7, #24]
 8007918:	015a      	lsls	r2, r3, #5
 800791a:	69fb      	ldr	r3, [r7, #28]
 800791c:	4413      	add	r3, r2
 800791e:	f503 6330 	add.w	r3, r3, #2816	@ 0xb00
 8007922:	460a      	mov	r2, r1
 8007924:	615a      	str	r2, [r3, #20]
      }
    }

    if (ep->type == EP_TYPE_ISOC)
 8007926:	68bb      	ldr	r3, [r7, #8]
 8007928:	791b      	ldrb	r3, [r3, #4]
 800792a:	2b01      	cmp	r3, #1
 800792c:	d128      	bne.n	8007980 <USB_EPStartXfer+0x50c>
    {
      if ((USBx_DEVICE->DSTS & (1U << 8)) == 0U)
 800792e:	69fb      	ldr	r3, [r7, #28]
 8007930:	f503 6300 	add.w	r3, r3, #2048	@ 0x800
 8007934:	689b      	ldr	r3, [r3, #8]
 8007936:	f403 7380 	and.w	r3, r3, #256	@ 0x100
 800793a:	2b00      	cmp	r3, #0
 800793c:	d110      	bne.n	8007960 <USB_EPStartXfer+0x4ec>
      {
        USBx_OUTEP(epnum)->DOEPCTL |= USB_OTG_DOEPCTL_SODDFRM;
 800793e:	69bb      	ldr	r3, [r7, #24]
 8007940:	015a      	lsls	r2, r3, #5
 8007942:	69fb      	ldr	r3, [r7, #28]
 8007944:	4413      	add	r3, r2
 8007946:	f503 6330 	add.w	r3, r3, #2816	@ 0xb00
 800794a:	681b      	ldr	r3, [r3, #0]
 800794c:	69ba      	ldr	r2, [r7, #24]
 800794e:	0151      	lsls	r1, r2, #5
 8007950:	69fa      	ldr	r2, [r7, #28]
 8007952:	440a      	add	r2, r1
 8007954:	f502 6230 	add.w	r2, r2, #2816	@ 0xb00
 8007958:	f043 5300 	orr.w	r3, r3, #536870912	@ 0x20000000
 800795c:	6013      	str	r3, [r2, #0]
 800795e:	e00f      	b.n	8007980 <USB_EPStartXfer+0x50c>
      }
      else
      {
        USBx_OUTEP(epnum)->DOEPCTL |= USB_OTG_DOEPCTL_SD0PID_SEVNFRM;
 8007960:	69bb      	ldr	r3, [r7, #24]
 8007962:	015a      	lsls	r2, r3, #5
 8007964:	69fb      	ldr	r3, [r7, #28]
 8007966:	4413      	add	r3, r2
 8007968:	f503 6330 	add.w	r3, r3, #2816	@ 0xb00
 800796c:	681b      	ldr	r3, [r3, #0]
 800796e:	69ba      	ldr	r2, [r7, #24]
 8007970:	0151      	lsls	r1, r2, #5
 8007972:	69fa      	ldr	r2, [r7, #28]
 8007974:	440a      	add	r2, r1
 8007976:	f502 6230 	add.w	r2, r2, #2816	@ 0xb00
 800797a:	f043 5380 	orr.w	r3, r3, #268435456	@ 0x10000000
 800797e:	6013      	str	r3, [r2, #0]
      }
    }
    /* EP enable */
    USBx_OUTEP(epnum)->DOEPCTL |= (USB_OTG_DOEPCTL_CNAK | USB_OTG_DOEPCTL_EPENA);
 8007980:	69bb      	ldr	r3, [r7, #24]
 8007982:	015a      	lsls	r2, r3, #5
 8007984:	69fb      	ldr	r3, [r7, #28]
 8007986:	4413      	add	r3, r2
 8007988:	f503 6330 	add.w	r3, r3, #2816	@ 0xb00
 800798c:	681b      	ldr	r3, [r3, #0]
 800798e:	69ba      	ldr	r2, [r7, #24]
 8007990:	0151      	lsls	r1, r2, #5
 8007992:	69fa      	ldr	r2, [r7, #28]
 8007994:	440a      	add	r2, r1
 8007996:	f502 6230 	add.w	r2, r2, #2816	@ 0xb00
 800799a:	f043 4304 	orr.w	r3, r3, #2214592512	@ 0x84000000
 800799e:	6013      	str	r3, [r2, #0]
  }

  return HAL_OK;
 80079a0:	2300      	movs	r3, #0
}
 80079a2:	4618      	mov	r0, r3
 80079a4:	3720      	adds	r7, #32
 80079a6:	46bd      	mov	sp, r7
 80079a8:	bd80      	pop	{r7, pc}
 80079aa:	bf00      	nop
 80079ac:	1ff80000 	.word	0x1ff80000

080079b0 <USB_EPStopXfer>:
   * @param  USBx  usb device instance
   * @param  ep pointer to endpoint structure
   * @retval HAL status
   */
HAL_StatusTypeDef USB_EPStopXfer(const USB_OTG_GlobalTypeDef *USBx, USB_OTG_EPTypeDef *ep)
{
 80079b0:	b480      	push	{r7}
 80079b2:	b087      	sub	sp, #28
 80079b4:	af00      	add	r7, sp, #0
 80079b6:	6078      	str	r0, [r7, #4]
 80079b8:	6039      	str	r1, [r7, #0]
  __IO uint32_t count = 0U;
 80079ba:	2300      	movs	r3, #0
 80079bc:	60fb      	str	r3, [r7, #12]
  HAL_StatusTypeDef ret = HAL_OK;
 80079be:	2300      	movs	r3, #0
 80079c0:	75fb      	strb	r3, [r7, #23]
  uint32_t USBx_BASE = (uint32_t)USBx;
 80079c2:	687b      	ldr	r3, [r7, #4]
 80079c4:	613b      	str	r3, [r7, #16]

  /* IN endpoint */
  if (ep->is_in == 1U)
 80079c6:	683b      	ldr	r3, [r7, #0]
 80079c8:	785b      	ldrb	r3, [r3, #1]
 80079ca:	2b01      	cmp	r3, #1
 80079cc:	d14a      	bne.n	8007a64 <USB_EPStopXfer+0xb4>
  {
    /* EP enable, IN data in FIFO */
    if (((USBx_INEP(ep->num)->DIEPCTL) & USB_OTG_DIEPCTL_EPENA) == USB_OTG_DIEPCTL_EPENA)
 80079ce:	683b      	ldr	r3, [r7, #0]
 80079d0:	781b      	ldrb	r3, [r3, #0]
 80079d2:	015a      	lsls	r2, r3, #5
 80079d4:	693b      	ldr	r3, [r7, #16]
 80079d6:	4413      	add	r3, r2
 80079d8:	f503 6310 	add.w	r3, r3, #2304	@ 0x900
 80079dc:	681b      	ldr	r3, [r3, #0]
 80079de:	f003 4300 	and.w	r3, r3, #2147483648	@ 0x80000000
 80079e2:	f1b3 4f00 	cmp.w	r3, #2147483648	@ 0x80000000
 80079e6:	f040 8086 	bne.w	8007af6 <USB_EPStopXfer+0x146>
    {
      USBx_INEP(ep->num)->DIEPCTL |= (USB_OTG_DIEPCTL_SNAK);
 80079ea:	683b      	ldr	r3, [r7, #0]
 80079ec:	781b      	ldrb	r3, [r3, #0]
 80079ee:	015a      	lsls	r2, r3, #5
 80079f0:	693b      	ldr	r3, [r7, #16]
 80079f2:	4413      	add	r3, r2
 80079f4:	f503 6310 	add.w	r3, r3, #2304	@ 0x900
 80079f8:	681b      	ldr	r3, [r3, #0]
 80079fa:	683a      	ldr	r2, [r7, #0]
 80079fc:	7812      	ldrb	r2, [r2, #0]
 80079fe:	0151      	lsls	r1, r2, #5
 8007a00:	693a      	ldr	r2, [r7, #16]
 8007a02:	440a      	add	r2, r1
 8007a04:	f502 6210 	add.w	r2, r2, #2304	@ 0x900
 8007a08:	f043 6300 	orr.w	r3, r3, #134217728	@ 0x8000000
 8007a0c:	6013      	str	r3, [r2, #0]
      USBx_INEP(ep->num)->DIEPCTL |= (USB_OTG_DIEPCTL_EPDIS);
 8007a0e:	683b      	ldr	r3, [r7, #0]
 8007a10:	781b      	ldrb	r3, [r3, #0]
 8007a12:	015a      	lsls	r2, r3, #5
 8007a14:	693b      	ldr	r3, [r7, #16]
 8007a16:	4413      	add	r3, r2
 8007a18:	f503 6310 	add.w	r3, r3, #2304	@ 0x900
 8007a1c:	681b      	ldr	r3, [r3, #0]
 8007a1e:	683a      	ldr	r2, [r7, #0]
 8007a20:	7812      	ldrb	r2, [r2, #0]
 8007a22:	0151      	lsls	r1, r2, #5
 8007a24:	693a      	ldr	r2, [r7, #16]
 8007a26:	440a      	add	r2, r1
 8007a28:	f502 6210 	add.w	r2, r2, #2304	@ 0x900
 8007a2c:	f043 4380 	orr.w	r3, r3, #1073741824	@ 0x40000000
 8007a30:	6013      	str	r3, [r2, #0]

      do
      {
        count++;
 8007a32:	68fb      	ldr	r3, [r7, #12]
 8007a34:	3301      	adds	r3, #1
 8007a36:	60fb      	str	r3, [r7, #12]

        if (count > 10000U)
 8007a38:	68fb      	ldr	r3, [r7, #12]
 8007a3a:	f242 7210 	movw	r2, #10000	@ 0x2710
 8007a3e:	4293      	cmp	r3, r2
 8007a40:	d902      	bls.n	8007a48 <USB_EPStopXfer+0x98>
        {
          ret = HAL_ERROR;
 8007a42:	2301      	movs	r3, #1
 8007a44:	75fb      	strb	r3, [r7, #23]
          break;
 8007a46:	e056      	b.n	8007af6 <USB_EPStopXfer+0x146>
        }
      } while (((USBx_INEP(ep->num)->DIEPCTL) & USB_OTG_DIEPCTL_EPENA) ==  USB_OTG_DIEPCTL_EPENA);
 8007a48:	683b      	ldr	r3, [r7, #0]
 8007a4a:	781b      	ldrb	r3, [r3, #0]
 8007a4c:	015a      	lsls	r2, r3, #5
 8007a4e:	693b      	ldr	r3, [r7, #16]
 8007a50:	4413      	add	r3, r2
 8007a52:	f503 6310 	add.w	r3, r3, #2304	@ 0x900
 8007a56:	681b      	ldr	r3, [r3, #0]
 8007a58:	f003 4300 	and.w	r3, r3, #2147483648	@ 0x80000000
 8007a5c:	f1b3 4f00 	cmp.w	r3, #2147483648	@ 0x80000000
 8007a60:	d0e7      	beq.n	8007a32 <USB_EPStopXfer+0x82>
 8007a62:	e048      	b.n	8007af6 <USB_EPStopXfer+0x146>
    }
  }
  else /* OUT endpoint */
  {
    if (((USBx_OUTEP(ep->num)->DOEPCTL) & USB_OTG_DOEPCTL_EPENA) == USB_OTG_DOEPCTL_EPENA)
 8007a64:	683b      	ldr	r3, [r7, #0]
 8007a66:	781b      	ldrb	r3, [r3, #0]
 8007a68:	015a      	lsls	r2, r3, #5
 8007a6a:	693b      	ldr	r3, [r7, #16]
 8007a6c:	4413      	add	r3, r2
 8007a6e:	f503 6330 	add.w	r3, r3, #2816	@ 0xb00
 8007a72:	681b      	ldr	r3, [r3, #0]
 8007a74:	f003 4300 	and.w	r3, r3, #2147483648	@ 0x80000000
 8007a78:	f1b3 4f00 	cmp.w	r3, #2147483648	@ 0x80000000
 8007a7c:	d13b      	bne.n	8007af6 <USB_EPStopXfer+0x146>
    {
      USBx_OUTEP(ep->num)->DOEPCTL |= (USB_OTG_DOEPCTL_SNAK);
 8007a7e:	683b      	ldr	r3, [r7, #0]
 8007a80:	781b      	ldrb	r3, [r3, #0]
 8007a82:	015a      	lsls	r2, r3, #5
 8007a84:	693b      	ldr	r3, [r7, #16]
 8007a86:	4413      	add	r3, r2
 8007a88:	f503 6330 	add.w	r3, r3, #2816	@ 0xb00
 8007a8c:	681b      	ldr	r3, [r3, #0]
 8007a8e:	683a      	ldr	r2, [r7, #0]
 8007a90:	7812      	ldrb	r2, [r2, #0]
 8007a92:	0151      	lsls	r1, r2, #5
 8007a94:	693a      	ldr	r2, [r7, #16]
 8007a96:	440a      	add	r2, r1
 8007a98:	f502 6230 	add.w	r2, r2, #2816	@ 0xb00
 8007a9c:	f043 6300 	orr.w	r3, r3, #134217728	@ 0x8000000
 8007aa0:	6013      	str	r3, [r2, #0]
      USBx_OUTEP(ep->num)->DOEPCTL |= (USB_OTG_DOEPCTL_EPDIS);
 8007aa2:	683b      	ldr	r3, [r7, #0]
 8007aa4:	781b      	ldrb	r3, [r3, #0]
 8007aa6:	015a      	lsls	r2, r3, #5
 8007aa8:	693b      	ldr	r3, [r7, #16]
 8007aaa:	4413      	add	r3, r2
 8007aac:	f503 6330 	add.w	r3, r3, #2816	@ 0xb00
 8007ab0:	681b      	ldr	r3, [r3, #0]
 8007ab2:	683a      	ldr	r2, [r7, #0]
 8007ab4:	7812      	ldrb	r2, [r2, #0]
 8007ab6:	0151      	lsls	r1, r2, #5
 8007ab8:	693a      	ldr	r2, [r7, #16]
 8007aba:	440a      	add	r2, r1
 8007abc:	f502 6230 	add.w	r2, r2, #2816	@ 0xb00
 8007ac0:	f043 4380 	orr.w	r3, r3, #1073741824	@ 0x40000000
 8007ac4:	6013      	str	r3, [r2, #0]

      do
      {
        count++;
 8007ac6:	68fb      	ldr	r3, [r7, #12]
 8007ac8:	3301      	adds	r3, #1
 8007aca:	60fb      	str	r3, [r7, #12]

        if (count > 10000U)
 8007acc:	68fb      	ldr	r3, [r7, #12]
 8007ace:	f242 7210 	movw	r2, #10000	@ 0x2710
 8007ad2:	4293      	cmp	r3, r2
 8007ad4:	d902      	bls.n	8007adc <USB_EPStopXfer+0x12c>
        {
          ret = HAL_ERROR;
 8007ad6:	2301      	movs	r3, #1
 8007ad8:	75fb      	strb	r3, [r7, #23]
          break;
 8007ada:	e00c      	b.n	8007af6 <USB_EPStopXfer+0x146>
        }
      } while (((USBx_OUTEP(ep->num)->DOEPCTL) & USB_OTG_DOEPCTL_EPENA) ==  USB_OTG_DOEPCTL_EPENA);
 8007adc:	683b      	ldr	r3, [r7, #0]
 8007ade:	781b      	ldrb	r3, [r3, #0]
 8007ae0:	015a      	lsls	r2, r3, #5
 8007ae2:	693b      	ldr	r3, [r7, #16]
 8007ae4:	4413      	add	r3, r2
 8007ae6:	f503 6330 	add.w	r3, r3, #2816	@ 0xb00
 8007aea:	681b      	ldr	r3, [r3, #0]
 8007aec:	f003 4300 	and.w	r3, r3, #2147483648	@ 0x80000000
 8007af0:	f1b3 4f00 	cmp.w	r3, #2147483648	@ 0x80000000
 8007af4:	d0e7      	beq.n	8007ac6 <USB_EPStopXfer+0x116>
    }
  }

  return ret;
 8007af6:	7dfb      	ldrb	r3, [r7, #23]
}
 8007af8:	4618      	mov	r0, r3
 8007afa:	371c      	adds	r7, #28
 8007afc:	46bd      	mov	sp, r7
 8007afe:	f85d 7b04 	ldr.w	r7, [sp], #4
 8007b02:	4770      	bx	lr

08007b04 <USB_WritePacket>:
  *           1 : DMA feature used
  * @retval HAL status
  */
HAL_StatusTypeDef USB_WritePacket(const USB_OTG_GlobalTypeDef *USBx, uint8_t *src,
                                  uint8_t ch_ep_num, uint16_t len, uint8_t dma)
{
 8007b04:	b480      	push	{r7}
 8007b06:	b089      	sub	sp, #36	@ 0x24
 8007b08:	af00      	add	r7, sp, #0
 8007b0a:	60f8      	str	r0, [r7, #12]
 8007b0c:	60b9      	str	r1, [r7, #8]
 8007b0e:	4611      	mov	r1, r2
 8007b10:	461a      	mov	r2, r3
 8007b12:	460b      	mov	r3, r1
 8007b14:	71fb      	strb	r3, [r7, #7]
 8007b16:	4613      	mov	r3, r2
 8007b18:	80bb      	strh	r3, [r7, #4]
  uint32_t USBx_BASE = (uint32_t)USBx;
 8007b1a:	68fb      	ldr	r3, [r7, #12]
 8007b1c:	617b      	str	r3, [r7, #20]
  uint8_t *pSrc = src;
 8007b1e:	68bb      	ldr	r3, [r7, #8]
 8007b20:	61fb      	str	r3, [r7, #28]
  uint32_t count32b;
  uint32_t i;

  if (dma == 0U)
 8007b22:	f897 3028 	ldrb.w	r3, [r7, #40]	@ 0x28
 8007b26:	2b00      	cmp	r3, #0
 8007b28:	d123      	bne.n	8007b72 <USB_WritePacket+0x6e>
  {
    count32b = ((uint32_t)len + 3U) / 4U;
 8007b2a:	88bb      	ldrh	r3, [r7, #4]
 8007b2c:	3303      	adds	r3, #3
 8007b2e:	089b      	lsrs	r3, r3, #2
 8007b30:	613b      	str	r3, [r7, #16]
    for (i = 0U; i < count32b; i++)
 8007b32:	2300      	movs	r3, #0
 8007b34:	61bb      	str	r3, [r7, #24]
 8007b36:	e018      	b.n	8007b6a <USB_WritePacket+0x66>
    {
      USBx_DFIFO((uint32_t)ch_ep_num) = __UNALIGNED_UINT32_READ(pSrc);
 8007b38:	79fb      	ldrb	r3, [r7, #7]
 8007b3a:	031a      	lsls	r2, r3, #12
 8007b3c:	697b      	ldr	r3, [r7, #20]
 8007b3e:	4413      	add	r3, r2
 8007b40:	f503 5380 	add.w	r3, r3, #4096	@ 0x1000
 8007b44:	461a      	mov	r2, r3
 8007b46:	69fb      	ldr	r3, [r7, #28]
 8007b48:	681b      	ldr	r3, [r3, #0]
 8007b4a:	6013      	str	r3, [r2, #0]
      pSrc++;
 8007b4c:	69fb      	ldr	r3, [r7, #28]
 8007b4e:	3301      	adds	r3, #1
 8007b50:	61fb      	str	r3, [r7, #28]
      pSrc++;
 8007b52:	69fb      	ldr	r3, [r7, #28]
 8007b54:	3301      	adds	r3, #1
 8007b56:	61fb      	str	r3, [r7, #28]
      pSrc++;
 8007b58:	69fb      	ldr	r3, [r7, #28]
 8007b5a:	3301      	adds	r3, #1
 8007b5c:	61fb      	str	r3, [r7, #28]
      pSrc++;
 8007b5e:	69fb      	ldr	r3, [r7, #28]
 8007b60:	3301      	adds	r3, #1
 8007b62:	61fb      	str	r3, [r7, #28]
    for (i = 0U; i < count32b; i++)
 8007b64:	69bb      	ldr	r3, [r7, #24]
 8007b66:	3301      	adds	r3, #1
 8007b68:	61bb      	str	r3, [r7, #24]
 8007b6a:	69ba      	ldr	r2, [r7, #24]
 8007b6c:	693b      	ldr	r3, [r7, #16]
 8007b6e:	429a      	cmp	r2, r3
 8007b70:	d3e2      	bcc.n	8007b38 <USB_WritePacket+0x34>
    }
  }

  return HAL_OK;
 8007b72:	2300      	movs	r3, #0
}
 8007b74:	4618      	mov	r0, r3
 8007b76:	3724      	adds	r7, #36	@ 0x24
 8007b78:	46bd      	mov	sp, r7
 8007b7a:	f85d 7b04 	ldr.w	r7, [sp], #4
 8007b7e:	4770      	bx	lr

08007b80 <USB_ReadPacket>:
  * @param  dest  source pointer
  * @param  len  Number of bytes to read
  * @retval pointer to destination buffer
  */
void *USB_ReadPacket(const USB_OTG_GlobalTypeDef *USBx, uint8_t *dest, uint16_t len)
{
 8007b80:	b480      	push	{r7}
 8007b82:	b08b      	sub	sp, #44	@ 0x2c
 8007b84:	af00      	add	r7, sp, #0
 8007b86:	60f8      	str	r0, [r7, #12]
 8007b88:	60b9      	str	r1, [r7, #8]
 8007b8a:	4613      	mov	r3, r2
 8007b8c:	80fb      	strh	r3, [r7, #6]
  uint32_t USBx_BASE = (uint32_t)USBx;
 8007b8e:	68fb      	ldr	r3, [r7, #12]
 8007b90:	61bb      	str	r3, [r7, #24]
  uint8_t *pDest = dest;
 8007b92:	68bb      	ldr	r3, [r7, #8]
 8007b94:	627b      	str	r3, [r7, #36]	@ 0x24
  uint32_t pData;
  uint32_t i;
  uint32_t count32b = (uint32_t)len >> 2U;
 8007b96:	88fb      	ldrh	r3, [r7, #6]
 8007b98:	089b      	lsrs	r3, r3, #2
 8007b9a:	b29b      	uxth	r3, r3
 8007b9c:	617b      	str	r3, [r7, #20]
  uint16_t remaining_bytes = len % 4U;
 8007b9e:	88fb      	ldrh	r3, [r7, #6]
 8007ba0:	f003 0303 	and.w	r3, r3, #3
 8007ba4:	83fb      	strh	r3, [r7, #30]

  for (i = 0U; i < count32b; i++)
 8007ba6:	2300      	movs	r3, #0
 8007ba8:	623b      	str	r3, [r7, #32]
 8007baa:	e014      	b.n	8007bd6 <USB_ReadPacket+0x56>
  {
    __UNALIGNED_UINT32_WRITE(pDest, USBx_DFIFO(0U));
 8007bac:	69bb      	ldr	r3, [r7, #24]
 8007bae:	f503 5380 	add.w	r3, r3, #4096	@ 0x1000
 8007bb2:	681a      	ldr	r2, [r3, #0]
 8007bb4:	6a7b      	ldr	r3, [r7, #36]	@ 0x24
 8007bb6:	601a      	str	r2, [r3, #0]
    pDest++;
 8007bb8:	6a7b      	ldr	r3, [r7, #36]	@ 0x24
 8007bba:	3301      	adds	r3, #1
 8007bbc:	627b      	str	r3, [r7, #36]	@ 0x24
    pDest++;
 8007bbe:	6a7b      	ldr	r3, [r7, #36]	@ 0x24
 8007bc0:	3301      	adds	r3, #1
 8007bc2:	627b      	str	r3, [r7, #36]	@ 0x24
    pDest++;
 8007bc4:	6a7b      	ldr	r3, [r7, #36]	@ 0x24
 8007bc6:	3301      	adds	r3, #1
 8007bc8:	627b      	str	r3, [r7, #36]	@ 0x24
    pDest++;
 8007bca:	6a7b      	ldr	r3, [r7, #36]	@ 0x24
 8007bcc:	3301      	adds	r3, #1
 8007bce:	627b      	str	r3, [r7, #36]	@ 0x24
  for (i = 0U; i < count32b; i++)
 8007bd0:	6a3b      	ldr	r3, [r7, #32]
 8007bd2:	3301      	adds	r3, #1
 8007bd4:	623b      	str	r3, [r7, #32]
 8007bd6:	6a3a      	ldr	r2, [r7, #32]
 8007bd8:	697b      	ldr	r3, [r7, #20]
 8007bda:	429a      	cmp	r2, r3
 8007bdc:	d3e6      	bcc.n	8007bac <USB_ReadPacket+0x2c>
  }

  /* When Number of data is not word aligned, read the remaining byte */
  if (remaining_bytes != 0U)
 8007bde:	8bfb      	ldrh	r3, [r7, #30]
 8007be0:	2b00      	cmp	r3, #0
 8007be2:	d01e      	beq.n	8007c22 <USB_ReadPacket+0xa2>
  {
    i = 0U;
 8007be4:	2300      	movs	r3, #0
 8007be6:	623b      	str	r3, [r7, #32]
    __UNALIGNED_UINT32_WRITE(&pData, USBx_DFIFO(0U));
 8007be8:	69bb      	ldr	r3, [r7, #24]
 8007bea:	f503 5380 	add.w	r3, r3, #4096	@ 0x1000
 8007bee:	461a      	mov	r2, r3
 8007bf0:	f107 0310 	add.w	r3, r7, #16
 8007bf4:	6812      	ldr	r2, [r2, #0]
 8007bf6:	601a      	str	r2, [r3, #0]

    do
    {
      *(uint8_t *)pDest = (uint8_t)(pData >> (8U * (uint8_t)(i)));
 8007bf8:	693a      	ldr	r2, [r7, #16]
 8007bfa:	6a3b      	ldr	r3, [r7, #32]
 8007bfc:	b2db      	uxtb	r3, r3
 8007bfe:	00db      	lsls	r3, r3, #3
 8007c00:	fa22 f303 	lsr.w	r3, r2, r3
 8007c04:	b2da      	uxtb	r2, r3
 8007c06:	6a7b      	ldr	r3, [r7, #36]	@ 0x24
 8007c08:	701a      	strb	r2, [r3, #0]
      i++;
 8007c0a:	6a3b      	ldr	r3, [r7, #32]
 8007c0c:	3301      	adds	r3, #1
 8007c0e:	623b      	str	r3, [r7, #32]
      pDest++;
 8007c10:	6a7b      	ldr	r3, [r7, #36]	@ 0x24
 8007c12:	3301      	adds	r3, #1
 8007c14:	627b      	str	r3, [r7, #36]	@ 0x24
      remaining_bytes--;
 8007c16:	8bfb      	ldrh	r3, [r7, #30]
 8007c18:	3b01      	subs	r3, #1
 8007c1a:	83fb      	strh	r3, [r7, #30]
    } while (remaining_bytes != 0U);
 8007c1c:	8bfb      	ldrh	r3, [r7, #30]
 8007c1e:	2b00      	cmp	r3, #0
 8007c20:	d1ea      	bne.n	8007bf8 <USB_ReadPacket+0x78>
  }

  return ((void *)pDest);
 8007c22:	6a7b      	ldr	r3, [r7, #36]	@ 0x24
}
 8007c24:	4618      	mov	r0, r3
 8007c26:	372c      	adds	r7, #44	@ 0x2c
 8007c28:	46bd      	mov	sp, r7
 8007c2a:	f85d 7b04 	ldr.w	r7, [sp], #4
 8007c2e:	4770      	bx	lr

08007c30 <USB_EPSetStall>:
  * @param  USBx  Selected device
  * @param  ep pointer to endpoint structure
  * @retval HAL status
  */
HAL_StatusTypeDef USB_EPSetStall(const USB_OTG_GlobalTypeDef *USBx, const USB_OTG_EPTypeDef *ep)
{
 8007c30:	b480      	push	{r7}
 8007c32:	b085      	sub	sp, #20
 8007c34:	af00      	add	r7, sp, #0
 8007c36:	6078      	str	r0, [r7, #4]
 8007c38:	6039      	str	r1, [r7, #0]
  uint32_t USBx_BASE = (uint32_t)USBx;
 8007c3a:	687b      	ldr	r3, [r7, #4]
 8007c3c:	60fb      	str	r3, [r7, #12]
  uint32_t epnum = (uint32_t)ep->num;
 8007c3e:	683b      	ldr	r3, [r7, #0]
 8007c40:	781b      	ldrb	r3, [r3, #0]
 8007c42:	60bb      	str	r3, [r7, #8]

  if (ep->is_in == 1U)
 8007c44:	683b      	ldr	r3, [r7, #0]
 8007c46:	785b      	ldrb	r3, [r3, #1]
 8007c48:	2b01      	cmp	r3, #1
 8007c4a:	d12c      	bne.n	8007ca6 <USB_EPSetStall+0x76>
  {
    if (((USBx_INEP(epnum)->DIEPCTL & USB_OTG_DIEPCTL_EPENA) == 0U) && (epnum != 0U))
 8007c4c:	68bb      	ldr	r3, [r7, #8]
 8007c4e:	015a      	lsls	r2, r3, #5
 8007c50:	68fb      	ldr	r3, [r7, #12]
 8007c52:	4413      	add	r3, r2
 8007c54:	f503 6310 	add.w	r3, r3, #2304	@ 0x900
 8007c58:	681b      	ldr	r3, [r3, #0]
 8007c5a:	2b00      	cmp	r3, #0
 8007c5c:	db12      	blt.n	8007c84 <USB_EPSetStall+0x54>
 8007c5e:	68bb      	ldr	r3, [r7, #8]
 8007c60:	2b00      	cmp	r3, #0
 8007c62:	d00f      	beq.n	8007c84 <USB_EPSetStall+0x54>
    {
      USBx_INEP(epnum)->DIEPCTL &= ~(USB_OTG_DIEPCTL_EPDIS);
 8007c64:	68bb      	ldr	r3, [r7, #8]
 8007c66:	015a      	lsls	r2, r3, #5
 8007c68:	68fb      	ldr	r3, [r7, #12]
 8007c6a:	4413      	add	r3, r2
 8007c6c:	f503 6310 	add.w	r3, r3, #2304	@ 0x900
 8007c70:	681b      	ldr	r3, [r3, #0]
 8007c72:	68ba      	ldr	r2, [r7, #8]
 8007c74:	0151      	lsls	r1, r2, #5
 8007c76:	68fa      	ldr	r2, [r7, #12]
 8007c78:	440a      	add	r2, r1
 8007c7a:	f502 6210 	add.w	r2, r2, #2304	@ 0x900
 8007c7e:	f023 4380 	bic.w	r3, r3, #1073741824	@ 0x40000000
 8007c82:	6013      	str	r3, [r2, #0]
    }
    USBx_INEP(epnum)->DIEPCTL |= USB_OTG_DIEPCTL_STALL;
 8007c84:	68bb      	ldr	r3, [r7, #8]
 8007c86:	015a      	lsls	r2, r3, #5
 8007c88:	68fb      	ldr	r3, [r7, #12]
 8007c8a:	4413      	add	r3, r2
 8007c8c:	f503 6310 	add.w	r3, r3, #2304	@ 0x900
 8007c90:	681b      	ldr	r3, [r3, #0]
 8007c92:	68ba      	ldr	r2, [r7, #8]
 8007c94:	0151      	lsls	r1, r2, #5
 8007c96:	68fa      	ldr	r2, [r7, #12]
 8007c98:	440a      	add	r2, r1
 8007c9a:	f502 6210 	add.w	r2, r2, #2304	@ 0x900
 8007c9e:	f443 1300 	orr.w	r3, r3, #2097152	@ 0x200000
 8007ca2:	6013      	str	r3, [r2, #0]
 8007ca4:	e02b      	b.n	8007cfe <USB_EPSetStall+0xce>
  }
  else
  {
    if (((USBx_OUTEP(epnum)->DOEPCTL & USB_OTG_DOEPCTL_EPENA) == 0U) && (epnum != 0U))
 8007ca6:	68bb      	ldr	r3, [r7, #8]
 8007ca8:	015a      	lsls	r2, r3, #5
 8007caa:	68fb      	ldr	r3, [r7, #12]
 8007cac:	4413      	add	r3, r2
 8007cae:	f503 6330 	add.w	r3, r3, #2816	@ 0xb00
 8007cb2:	681b      	ldr	r3, [r3, #0]
 8007cb4:	2b00      	cmp	r3, #0
 8007cb6:	db12      	blt.n	8007cde <USB_EPSetStall+0xae>
 8007cb8:	68bb      	ldr	r3, [r7, #8]
 8007cba:	2b00      	cmp	r3, #0
 8007cbc:	d00f      	beq.n	8007cde <USB_EPSetStall+0xae>
    {
      USBx_OUTEP(epnum)->DOEPCTL &= ~(USB_OTG_DOEPCTL_EPDIS);
 8007cbe:	68bb      	ldr	r3, [r7, #8]
 8007cc0:	015a      	lsls	r2, r3, #5
 8007cc2:	68fb      	ldr	r3, [r7, #12]
 8007cc4:	4413      	add	r3, r2
 8007cc6:	f503 6330 	add.w	r3, r3, #2816	@ 0xb00
 8007cca:	681b      	ldr	r3, [r3, #0]
 8007ccc:	68ba      	ldr	r2, [r7, #8]
 8007cce:	0151      	lsls	r1, r2, #5
 8007cd0:	68fa      	ldr	r2, [r7, #12]
 8007cd2:	440a      	add	r2, r1
 8007cd4:	f502 6230 	add.w	r2, r2, #2816	@ 0xb00
 8007cd8:	f023 4380 	bic.w	r3, r3, #1073741824	@ 0x40000000
 8007cdc:	6013      	str	r3, [r2, #0]
    }
    USBx_OUTEP(epnum)->DOEPCTL |= USB_OTG_DOEPCTL_STALL;
 8007cde:	68bb      	ldr	r3, [r7, #8]
 8007ce0:	015a      	lsls	r2, r3, #5
 8007ce2:	68fb      	ldr	r3, [r7, #12]
 8007ce4:	4413      	add	r3, r2
 8007ce6:	f503 6330 	add.w	r3, r3, #2816	@ 0xb00
 8007cea:	681b      	ldr	r3, [r3, #0]
 8007cec:	68ba      	ldr	r2, [r7, #8]
 8007cee:	0151      	lsls	r1, r2, #5
 8007cf0:	68fa      	ldr	r2, [r7, #12]
 8007cf2:	440a      	add	r2, r1
 8007cf4:	f502 6230 	add.w	r2, r2, #2816	@ 0xb00
 8007cf8:	f443 1300 	orr.w	r3, r3, #2097152	@ 0x200000
 8007cfc:	6013      	str	r3, [r2, #0]
  }

  return HAL_OK;
 8007cfe:	2300      	movs	r3, #0
}
 8007d00:	4618      	mov	r0, r3
 8007d02:	3714      	adds	r7, #20
 8007d04:	46bd      	mov	sp, r7
 8007d06:	f85d 7b04 	ldr.w	r7, [sp], #4
 8007d0a:	4770      	bx	lr

08007d0c <USB_SetDevAddress>:
  * @param  address  new device address to be assigned
  *          This parameter can be a value from 0 to 255
  * @retval HAL status
  */
HAL_StatusTypeDef USB_SetDevAddress(const USB_OTG_GlobalTypeDef *USBx, uint8_t address)
{
 8007d0c:	b480      	push	{r7}
 8007d0e:	b085      	sub	sp, #20
 8007d10:	af00      	add	r7, sp, #0
 8007d12:	6078      	str	r0, [r7, #4]
 8007d14:	460b      	mov	r3, r1
 8007d16:	70fb      	strb	r3, [r7, #3]
  uint32_t USBx_BASE = (uint32_t)USBx;
 8007d18:	687b      	ldr	r3, [r7, #4]
 8007d1a:	60fb      	str	r3, [r7, #12]

  USBx_DEVICE->DCFG &= ~(USB_OTG_DCFG_DAD);
 8007d1c:	68fb      	ldr	r3, [r7, #12]
 8007d1e:	f503 6300 	add.w	r3, r3, #2048	@ 0x800
 8007d22:	681b      	ldr	r3, [r3, #0]
 8007d24:	68fa      	ldr	r2, [r7, #12]
 8007d26:	f502 6200 	add.w	r2, r2, #2048	@ 0x800
 8007d2a:	f423 63fe 	bic.w	r3, r3, #2032	@ 0x7f0
 8007d2e:	6013      	str	r3, [r2, #0]
  USBx_DEVICE->DCFG |= ((uint32_t)address << 4) & USB_OTG_DCFG_DAD;
 8007d30:	68fb      	ldr	r3, [r7, #12]
 8007d32:	f503 6300 	add.w	r3, r3, #2048	@ 0x800
 8007d36:	681a      	ldr	r2, [r3, #0]
 8007d38:	78fb      	ldrb	r3, [r7, #3]
 8007d3a:	011b      	lsls	r3, r3, #4
 8007d3c:	f403 63fe 	and.w	r3, r3, #2032	@ 0x7f0
 8007d40:	68f9      	ldr	r1, [r7, #12]
 8007d42:	f501 6100 	add.w	r1, r1, #2048	@ 0x800
 8007d46:	4313      	orrs	r3, r2
 8007d48:	600b      	str	r3, [r1, #0]

  return HAL_OK;
 8007d4a:	2300      	movs	r3, #0
}
 8007d4c:	4618      	mov	r0, r3
 8007d4e:	3714      	adds	r7, #20
 8007d50:	46bd      	mov	sp, r7
 8007d52:	f85d 7b04 	ldr.w	r7, [sp], #4
 8007d56:	4770      	bx	lr

08007d58 <USB_DevConnect>:
  * @brief  USB_DevConnect : Connect the USB device by enabling Rpu
  * @param  USBx  Selected device
  * @retval HAL status
  */
HAL_StatusTypeDef USB_DevConnect(const USB_OTG_GlobalTypeDef *USBx)
{
 8007d58:	b480      	push	{r7}
 8007d5a:	b085      	sub	sp, #20
 8007d5c:	af00      	add	r7, sp, #0
 8007d5e:	6078      	str	r0, [r7, #4]
  uint32_t USBx_BASE = (uint32_t)USBx;
 8007d60:	687b      	ldr	r3, [r7, #4]
 8007d62:	60fb      	str	r3, [r7, #12]

  /* In case phy is stopped, ensure to ungate and restore the phy CLK */
  USBx_PCGCCTL &= ~(USB_OTG_PCGCCTL_STOPCLK | USB_OTG_PCGCCTL_GATECLK);
 8007d64:	68fb      	ldr	r3, [r7, #12]
 8007d66:	f503 6360 	add.w	r3, r3, #3584	@ 0xe00
 8007d6a:	681b      	ldr	r3, [r3, #0]
 8007d6c:	68fa      	ldr	r2, [r7, #12]
 8007d6e:	f502 6260 	add.w	r2, r2, #3584	@ 0xe00
 8007d72:	f023 0303 	bic.w	r3, r3, #3
 8007d76:	6013      	str	r3, [r2, #0]

  USBx_DEVICE->DCTL &= ~USB_OTG_DCTL_SDIS;
 8007d78:	68fb      	ldr	r3, [r7, #12]
 8007d7a:	f503 6300 	add.w	r3, r3, #2048	@ 0x800
 8007d7e:	685b      	ldr	r3, [r3, #4]
 8007d80:	68fa      	ldr	r2, [r7, #12]
 8007d82:	f502 6200 	add.w	r2, r2, #2048	@ 0x800
 8007d86:	f023 0302 	bic.w	r3, r3, #2
 8007d8a:	6053      	str	r3, [r2, #4]

  return HAL_OK;
 8007d8c:	2300      	movs	r3, #0
}
 8007d8e:	4618      	mov	r0, r3
 8007d90:	3714      	adds	r7, #20
 8007d92:	46bd      	mov	sp, r7
 8007d94:	f85d 7b04 	ldr.w	r7, [sp], #4
 8007d98:	4770      	bx	lr

08007d9a <USB_DevDisconnect>:
  * @brief  USB_DevDisconnect : Disconnect the USB device by disabling Rpu
  * @param  USBx  Selected device
  * @retval HAL status
  */
HAL_StatusTypeDef USB_DevDisconnect(const USB_OTG_GlobalTypeDef *USBx)
{
 8007d9a:	b480      	push	{r7}
 8007d9c:	b085      	sub	sp, #20
 8007d9e:	af00      	add	r7, sp, #0
 8007da0:	6078      	str	r0, [r7, #4]
  uint32_t USBx_BASE = (uint32_t)USBx;
 8007da2:	687b      	ldr	r3, [r7, #4]
 8007da4:	60fb      	str	r3, [r7, #12]

  /* In case phy is stopped, ensure to ungate and restore the phy CLK */
  USBx_PCGCCTL &= ~(USB_OTG_PCGCCTL_STOPCLK | USB_OTG_PCGCCTL_GATECLK);
 8007da6:	68fb      	ldr	r3, [r7, #12]
 8007da8:	f503 6360 	add.w	r3, r3, #3584	@ 0xe00
 8007dac:	681b      	ldr	r3, [r3, #0]
 8007dae:	68fa      	ldr	r2, [r7, #12]
 8007db0:	f502 6260 	add.w	r2, r2, #3584	@ 0xe00
 8007db4:	f023 0303 	bic.w	r3, r3, #3
 8007db8:	6013      	str	r3, [r2, #0]

  USBx_DEVICE->DCTL |= USB_OTG_DCTL_SDIS;
 8007dba:	68fb      	ldr	r3, [r7, #12]
 8007dbc:	f503 6300 	add.w	r3, r3, #2048	@ 0x800
 8007dc0:	685b      	ldr	r3, [r3, #4]
 8007dc2:	68fa      	ldr	r2, [r7, #12]
 8007dc4:	f502 6200 	add.w	r2, r2, #2048	@ 0x800
 8007dc8:	f043 0302 	orr.w	r3, r3, #2
 8007dcc:	6053      	str	r3, [r2, #4]

  return HAL_OK;
 8007dce:	2300      	movs	r3, #0
}
 8007dd0:	4618      	mov	r0, r3
 8007dd2:	3714      	adds	r7, #20
 8007dd4:	46bd      	mov	sp, r7
 8007dd6:	f85d 7b04 	ldr.w	r7, [sp], #4
 8007dda:	4770      	bx	lr

08007ddc <USB_ReadInterrupts>:
  * @brief  USB_ReadInterrupts: return the global USB interrupt status
  * @param  USBx  Selected device
  * @retval USB Global Interrupt status
  */
uint32_t USB_ReadInterrupts(USB_OTG_GlobalTypeDef const *USBx)
{
 8007ddc:	b480      	push	{r7}
 8007dde:	b085      	sub	sp, #20
 8007de0:	af00      	add	r7, sp, #0
 8007de2:	6078      	str	r0, [r7, #4]
  uint32_t tmpreg;

  tmpreg = USBx->GINTSTS;
 8007de4:	687b      	ldr	r3, [r7, #4]
 8007de6:	695b      	ldr	r3, [r3, #20]
 8007de8:	60fb      	str	r3, [r7, #12]
  tmpreg &= USBx->GINTMSK;
 8007dea:	687b      	ldr	r3, [r7, #4]
 8007dec:	699b      	ldr	r3, [r3, #24]
 8007dee:	68fa      	ldr	r2, [r7, #12]
 8007df0:	4013      	ands	r3, r2
 8007df2:	60fb      	str	r3, [r7, #12]

  return tmpreg;
 8007df4:	68fb      	ldr	r3, [r7, #12]
}
 8007df6:	4618      	mov	r0, r3
 8007df8:	3714      	adds	r7, #20
 8007dfa:	46bd      	mov	sp, r7
 8007dfc:	f85d 7b04 	ldr.w	r7, [sp], #4
 8007e00:	4770      	bx	lr

08007e02 <USB_ReadDevAllOutEpInterrupt>:
  * @brief  USB_ReadDevAllOutEpInterrupt: return the USB device OUT endpoints interrupt status
  * @param  USBx  Selected device
  * @retval USB Device OUT EP interrupt status
  */
uint32_t USB_ReadDevAllOutEpInterrupt(const USB_OTG_GlobalTypeDef *USBx)
{
 8007e02:	b480      	push	{r7}
 8007e04:	b085      	sub	sp, #20
 8007e06:	af00      	add	r7, sp, #0
 8007e08:	6078      	str	r0, [r7, #4]
  uint32_t USBx_BASE = (uint32_t)USBx;
 8007e0a:	687b      	ldr	r3, [r7, #4]
 8007e0c:	60fb      	str	r3, [r7, #12]
  uint32_t tmpreg;

  tmpreg  = USBx_DEVICE->DAINT;
 8007e0e:	68fb      	ldr	r3, [r7, #12]
 8007e10:	f503 6300 	add.w	r3, r3, #2048	@ 0x800
 8007e14:	699b      	ldr	r3, [r3, #24]
 8007e16:	60bb      	str	r3, [r7, #8]
  tmpreg &= USBx_DEVICE->DAINTMSK;
 8007e18:	68fb      	ldr	r3, [r7, #12]
 8007e1a:	f503 6300 	add.w	r3, r3, #2048	@ 0x800
 8007e1e:	69db      	ldr	r3, [r3, #28]
 8007e20:	68ba      	ldr	r2, [r7, #8]
 8007e22:	4013      	ands	r3, r2
 8007e24:	60bb      	str	r3, [r7, #8]

  return ((tmpreg & 0xffff0000U) >> 16);
 8007e26:	68bb      	ldr	r3, [r7, #8]
 8007e28:	0c1b      	lsrs	r3, r3, #16
}
 8007e2a:	4618      	mov	r0, r3
 8007e2c:	3714      	adds	r7, #20
 8007e2e:	46bd      	mov	sp, r7
 8007e30:	f85d 7b04 	ldr.w	r7, [sp], #4
 8007e34:	4770      	bx	lr

08007e36 <USB_ReadDevAllInEpInterrupt>:
  * @brief  USB_ReadDevAllInEpInterrupt: return the USB device IN endpoints interrupt status
  * @param  USBx  Selected device
  * @retval USB Device IN EP interrupt status
  */
uint32_t USB_ReadDevAllInEpInterrupt(const USB_OTG_GlobalTypeDef *USBx)
{
 8007e36:	b480      	push	{r7}
 8007e38:	b085      	sub	sp, #20
 8007e3a:	af00      	add	r7, sp, #0
 8007e3c:	6078      	str	r0, [r7, #4]
  uint32_t USBx_BASE = (uint32_t)USBx;
 8007e3e:	687b      	ldr	r3, [r7, #4]
 8007e40:	60fb      	str	r3, [r7, #12]
  uint32_t tmpreg;

  tmpreg  = USBx_DEVICE->DAINT;
 8007e42:	68fb      	ldr	r3, [r7, #12]
 8007e44:	f503 6300 	add.w	r3, r3, #2048	@ 0x800
 8007e48:	699b      	ldr	r3, [r3, #24]
 8007e4a:	60bb      	str	r3, [r7, #8]
  tmpreg &= USBx_DEVICE->DAINTMSK;
 8007e4c:	68fb      	ldr	r3, [r7, #12]
 8007e4e:	f503 6300 	add.w	r3, r3, #2048	@ 0x800
 8007e52:	69db      	ldr	r3, [r3, #28]
 8007e54:	68ba      	ldr	r2, [r7, #8]
 8007e56:	4013      	ands	r3, r2
 8007e58:	60bb      	str	r3, [r7, #8]

  return ((tmpreg & 0xFFFFU));
 8007e5a:	68bb      	ldr	r3, [r7, #8]
 8007e5c:	b29b      	uxth	r3, r3
}
 8007e5e:	4618      	mov	r0, r3
 8007e60:	3714      	adds	r7, #20
 8007e62:	46bd      	mov	sp, r7
 8007e64:	f85d 7b04 	ldr.w	r7, [sp], #4
 8007e68:	4770      	bx	lr

08007e6a <USB_ReadDevOutEPInterrupt>:
  * @param  epnum  endpoint number
  *          This parameter can be a value from 0 to 15
  * @retval Device OUT EP Interrupt register
  */
uint32_t USB_ReadDevOutEPInterrupt(const USB_OTG_GlobalTypeDef *USBx, uint8_t epnum)
{
 8007e6a:	b480      	push	{r7}
 8007e6c:	b085      	sub	sp, #20
 8007e6e:	af00      	add	r7, sp, #0
 8007e70:	6078      	str	r0, [r7, #4]
 8007e72:	460b      	mov	r3, r1
 8007e74:	70fb      	strb	r3, [r7, #3]
  uint32_t USBx_BASE = (uint32_t)USBx;
 8007e76:	687b      	ldr	r3, [r7, #4]
 8007e78:	60fb      	str	r3, [r7, #12]
  uint32_t tmpreg;

  tmpreg  = USBx_OUTEP((uint32_t)epnum)->DOEPINT;
 8007e7a:	78fb      	ldrb	r3, [r7, #3]
 8007e7c:	015a      	lsls	r2, r3, #5
 8007e7e:	68fb      	ldr	r3, [r7, #12]
 8007e80:	4413      	add	r3, r2
 8007e82:	f503 6330 	add.w	r3, r3, #2816	@ 0xb00
 8007e86:	689b      	ldr	r3, [r3, #8]
 8007e88:	60bb      	str	r3, [r7, #8]
  tmpreg &= USBx_DEVICE->DOEPMSK;
 8007e8a:	68fb      	ldr	r3, [r7, #12]
 8007e8c:	f503 6300 	add.w	r3, r3, #2048	@ 0x800
 8007e90:	695b      	ldr	r3, [r3, #20]
 8007e92:	68ba      	ldr	r2, [r7, #8]
 8007e94:	4013      	ands	r3, r2
 8007e96:	60bb      	str	r3, [r7, #8]

  return tmpreg;
 8007e98:	68bb      	ldr	r3, [r7, #8]
}
 8007e9a:	4618      	mov	r0, r3
 8007e9c:	3714      	adds	r7, #20
 8007e9e:	46bd      	mov	sp, r7
 8007ea0:	f85d 7b04 	ldr.w	r7, [sp], #4
 8007ea4:	4770      	bx	lr

08007ea6 <USB_ReadDevInEPInterrupt>:
  * @param  epnum  endpoint number
  *          This parameter can be a value from 0 to 15
  * @retval Device IN EP Interrupt register
  */
uint32_t USB_ReadDevInEPInterrupt(const USB_OTG_GlobalTypeDef *USBx, uint8_t epnum)
{
 8007ea6:	b480      	push	{r7}
 8007ea8:	b087      	sub	sp, #28
 8007eaa:	af00      	add	r7, sp, #0
 8007eac:	6078      	str	r0, [r7, #4]
 8007eae:	460b      	mov	r3, r1
 8007eb0:	70fb      	strb	r3, [r7, #3]
  uint32_t USBx_BASE = (uint32_t)USBx;
 8007eb2:	687b      	ldr	r3, [r7, #4]
 8007eb4:	617b      	str	r3, [r7, #20]
  uint32_t tmpreg;
  uint32_t msk;
  uint32_t emp;

  msk = USBx_DEVICE->DIEPMSK;
 8007eb6:	697b      	ldr	r3, [r7, #20]
 8007eb8:	f503 6300 	add.w	r3, r3, #2048	@ 0x800
 8007ebc:	691b      	ldr	r3, [r3, #16]
 8007ebe:	613b      	str	r3, [r7, #16]
  emp = USBx_DEVICE->DIEPEMPMSK;
 8007ec0:	697b      	ldr	r3, [r7, #20]
 8007ec2:	f503 6300 	add.w	r3, r3, #2048	@ 0x800
 8007ec6:	6b5b      	ldr	r3, [r3, #52]	@ 0x34
 8007ec8:	60fb      	str	r3, [r7, #12]
  msk |= ((emp >> (epnum & EP_ADDR_MSK)) & 0x1U) << 7;
 8007eca:	78fb      	ldrb	r3, [r7, #3]
 8007ecc:	f003 030f 	and.w	r3, r3, #15
 8007ed0:	68fa      	ldr	r2, [r7, #12]
 8007ed2:	fa22 f303 	lsr.w	r3, r2, r3
 8007ed6:	01db      	lsls	r3, r3, #7
 8007ed8:	b2db      	uxtb	r3, r3
 8007eda:	693a      	ldr	r2, [r7, #16]
 8007edc:	4313      	orrs	r3, r2
 8007ede:	613b      	str	r3, [r7, #16]
  tmpreg = USBx_INEP((uint32_t)epnum)->DIEPINT & msk;
 8007ee0:	78fb      	ldrb	r3, [r7, #3]
 8007ee2:	015a      	lsls	r2, r3, #5
 8007ee4:	697b      	ldr	r3, [r7, #20]
 8007ee6:	4413      	add	r3, r2
 8007ee8:	f503 6310 	add.w	r3, r3, #2304	@ 0x900
 8007eec:	689b      	ldr	r3, [r3, #8]
 8007eee:	693a      	ldr	r2, [r7, #16]
 8007ef0:	4013      	ands	r3, r2
 8007ef2:	60bb      	str	r3, [r7, #8]

  return tmpreg;
 8007ef4:	68bb      	ldr	r3, [r7, #8]
}
 8007ef6:	4618      	mov	r0, r3
 8007ef8:	371c      	adds	r7, #28
 8007efa:	46bd      	mov	sp, r7
 8007efc:	f85d 7b04 	ldr.w	r7, [sp], #4
 8007f00:	4770      	bx	lr

08007f02 <USB_GetMode>:
  *          This parameter can be one of these values:
  *           1 : Host
  *           0 : Device
  */
uint32_t USB_GetMode(const USB_OTG_GlobalTypeDef *USBx)
{
 8007f02:	b480      	push	{r7}
 8007f04:	b083      	sub	sp, #12
 8007f06:	af00      	add	r7, sp, #0
 8007f08:	6078      	str	r0, [r7, #4]
  return ((USBx->GINTSTS) & 0x1U);
 8007f0a:	687b      	ldr	r3, [r7, #4]
 8007f0c:	695b      	ldr	r3, [r3, #20]
 8007f0e:	f003 0301 	and.w	r3, r3, #1
}
 8007f12:	4618      	mov	r0, r3
 8007f14:	370c      	adds	r7, #12
 8007f16:	46bd      	mov	sp, r7
 8007f18:	f85d 7b04 	ldr.w	r7, [sp], #4
 8007f1c:	4770      	bx	lr

08007f1e <USB_ActivateSetup>:
  * @brief  Activate EP0 for Setup transactions
  * @param  USBx  Selected device
  * @retval HAL status
  */
HAL_StatusTypeDef USB_ActivateSetup(const USB_OTG_GlobalTypeDef *USBx)
{
 8007f1e:	b480      	push	{r7}
 8007f20:	b085      	sub	sp, #20
 8007f22:	af00      	add	r7, sp, #0
 8007f24:	6078      	str	r0, [r7, #4]
  uint32_t USBx_BASE = (uint32_t)USBx;
 8007f26:	687b      	ldr	r3, [r7, #4]
 8007f28:	60fb      	str	r3, [r7, #12]

  /* Set the MPS of the IN EP0 to 64 bytes */
  USBx_INEP(0U)->DIEPCTL &= ~USB_OTG_DIEPCTL_MPSIZ;
 8007f2a:	68fb      	ldr	r3, [r7, #12]
 8007f2c:	f503 6310 	add.w	r3, r3, #2304	@ 0x900
 8007f30:	681b      	ldr	r3, [r3, #0]
 8007f32:	68fa      	ldr	r2, [r7, #12]
 8007f34:	f502 6210 	add.w	r2, r2, #2304	@ 0x900
 8007f38:	f423 63ff 	bic.w	r3, r3, #2040	@ 0x7f8
 8007f3c:	f023 0307 	bic.w	r3, r3, #7
 8007f40:	6013      	str	r3, [r2, #0]

  USBx_DEVICE->DCTL |= USB_OTG_DCTL_CGINAK;
 8007f42:	68fb      	ldr	r3, [r7, #12]
 8007f44:	f503 6300 	add.w	r3, r3, #2048	@ 0x800
 8007f48:	685b      	ldr	r3, [r3, #4]
 8007f4a:	68fa      	ldr	r2, [r7, #12]
 8007f4c:	f502 6200 	add.w	r2, r2, #2048	@ 0x800
 8007f50:	f443 7380 	orr.w	r3, r3, #256	@ 0x100
 8007f54:	6053      	str	r3, [r2, #4]

  return HAL_OK;
 8007f56:	2300      	movs	r3, #0
}
 8007f58:	4618      	mov	r0, r3
 8007f5a:	3714      	adds	r7, #20
 8007f5c:	46bd      	mov	sp, r7
 8007f5e:	f85d 7b04 	ldr.w	r7, [sp], #4
 8007f62:	4770      	bx	lr

08007f64 <USB_EP0_OutStart>:
  *           1 : DMA feature used
  * @param  psetup  pointer to setup packet
  * @retval HAL status
  */
HAL_StatusTypeDef USB_EP0_OutStart(const USB_OTG_GlobalTypeDef *USBx, uint8_t dma, const uint8_t *psetup)
{
 8007f64:	b480      	push	{r7}
 8007f66:	b087      	sub	sp, #28
 8007f68:	af00      	add	r7, sp, #0
 8007f6a:	60f8      	str	r0, [r7, #12]
 8007f6c:	460b      	mov	r3, r1
 8007f6e:	607a      	str	r2, [r7, #4]
 8007f70:	72fb      	strb	r3, [r7, #11]
  uint32_t USBx_BASE = (uint32_t)USBx;
 8007f72:	68fb      	ldr	r3, [r7, #12]
 8007f74:	617b      	str	r3, [r7, #20]
  uint32_t gSNPSiD = *(__IO const uint32_t *)(&USBx->CID + 0x1U);
 8007f76:	68fb      	ldr	r3, [r7, #12]
 8007f78:	333c      	adds	r3, #60	@ 0x3c
 8007f7a:	3304      	adds	r3, #4
 8007f7c:	681b      	ldr	r3, [r3, #0]
 8007f7e:	613b      	str	r3, [r7, #16]

  if (gSNPSiD > USB_OTG_CORE_ID_300A)
 8007f80:	693b      	ldr	r3, [r7, #16]
 8007f82:	4a26      	ldr	r2, [pc, #152]	@ (800801c <USB_EP0_OutStart+0xb8>)
 8007f84:	4293      	cmp	r3, r2
 8007f86:	d90a      	bls.n	8007f9e <USB_EP0_OutStart+0x3a>
  {
    if ((USBx_OUTEP(0U)->DOEPCTL & USB_OTG_DOEPCTL_EPENA) == USB_OTG_DOEPCTL_EPENA)
 8007f88:	697b      	ldr	r3, [r7, #20]
 8007f8a:	f503 6330 	add.w	r3, r3, #2816	@ 0xb00
 8007f8e:	681b      	ldr	r3, [r3, #0]
 8007f90:	f003 4300 	and.w	r3, r3, #2147483648	@ 0x80000000
 8007f94:	f1b3 4f00 	cmp.w	r3, #2147483648	@ 0x80000000
 8007f98:	d101      	bne.n	8007f9e <USB_EP0_OutStart+0x3a>
    {
      return HAL_OK;
 8007f9a:	2300      	movs	r3, #0
 8007f9c:	e037      	b.n	800800e <USB_EP0_OutStart+0xaa>
    }
  }

  USBx_OUTEP(0U)->DOEPTSIZ = 0U;
 8007f9e:	697b      	ldr	r3, [r7, #20]
 8007fa0:	f503 6330 	add.w	r3, r3, #2816	@ 0xb00
 8007fa4:	461a      	mov	r2, r3
 8007fa6:	2300      	movs	r3, #0
 8007fa8:	6113      	str	r3, [r2, #16]
  USBx_OUTEP(0U)->DOEPTSIZ |= (USB_OTG_DOEPTSIZ_PKTCNT & (1U << 19));
 8007faa:	697b      	ldr	r3, [r7, #20]
 8007fac:	f503 6330 	add.w	r3, r3, #2816	@ 0xb00
 8007fb0:	691b      	ldr	r3, [r3, #16]
 8007fb2:	697a      	ldr	r2, [r7, #20]
 8007fb4:	f502 6230 	add.w	r2, r2, #2816	@ 0xb00
 8007fb8:	f443 2300 	orr.w	r3, r3, #524288	@ 0x80000
 8007fbc:	6113      	str	r3, [r2, #16]
  USBx_OUTEP(0U)->DOEPTSIZ |= (3U * 8U);
 8007fbe:	697b      	ldr	r3, [r7, #20]
 8007fc0:	f503 6330 	add.w	r3, r3, #2816	@ 0xb00
 8007fc4:	691b      	ldr	r3, [r3, #16]
 8007fc6:	697a      	ldr	r2, [r7, #20]
 8007fc8:	f502 6230 	add.w	r2, r2, #2816	@ 0xb00
 8007fcc:	f043 0318 	orr.w	r3, r3, #24
 8007fd0:	6113      	str	r3, [r2, #16]
  USBx_OUTEP(0U)->DOEPTSIZ |=  USB_OTG_DOEPTSIZ_STUPCNT;
 8007fd2:	697b      	ldr	r3, [r7, #20]
 8007fd4:	f503 6330 	add.w	r3, r3, #2816	@ 0xb00
 8007fd8:	691b      	ldr	r3, [r3, #16]
 8007fda:	697a      	ldr	r2, [r7, #20]
 8007fdc:	f502 6230 	add.w	r2, r2, #2816	@ 0xb00
 8007fe0:	f043 43c0 	orr.w	r3, r3, #1610612736	@ 0x60000000
 8007fe4:	6113      	str	r3, [r2, #16]

  if (dma == 1U)
 8007fe6:	7afb      	ldrb	r3, [r7, #11]
 8007fe8:	2b01      	cmp	r3, #1
 8007fea:	d10f      	bne.n	800800c <USB_EP0_OutStart+0xa8>
  {
    USBx_OUTEP(0U)->DOEPDMA = (uint32_t)psetup;
 8007fec:	697b      	ldr	r3, [r7, #20]
 8007fee:	f503 6330 	add.w	r3, r3, #2816	@ 0xb00
 8007ff2:	461a      	mov	r2, r3
 8007ff4:	687b      	ldr	r3, [r7, #4]
 8007ff6:	6153      	str	r3, [r2, #20]
    /* EP enable */
    USBx_OUTEP(0U)->DOEPCTL |= USB_OTG_DOEPCTL_EPENA | USB_OTG_DOEPCTL_USBAEP;
 8007ff8:	697b      	ldr	r3, [r7, #20]
 8007ffa:	f503 6330 	add.w	r3, r3, #2816	@ 0xb00
 8007ffe:	681b      	ldr	r3, [r3, #0]
 8008000:	697a      	ldr	r2, [r7, #20]
 8008002:	f502 6230 	add.w	r2, r2, #2816	@ 0xb00
 8008006:	f043 2380 	orr.w	r3, r3, #2147516416	@ 0x80008000
 800800a:	6013      	str	r3, [r2, #0]
  }

  return HAL_OK;
 800800c:	2300      	movs	r3, #0
}
 800800e:	4618      	mov	r0, r3
 8008010:	371c      	adds	r7, #28
 8008012:	46bd      	mov	sp, r7
 8008014:	f85d 7b04 	ldr.w	r7, [sp], #4
 8008018:	4770      	bx	lr
 800801a:	bf00      	nop
 800801c:	4f54300a 	.word	0x4f54300a

08008020 <USB_CoreReset>:
  * @brief  Reset the USB Core (needed after USB clock settings change)
  * @param  USBx  Selected device
  * @retval HAL status
  */
static HAL_StatusTypeDef USB_CoreReset(USB_OTG_GlobalTypeDef *USBx)
{
 8008020:	b480      	push	{r7}
 8008022:	b085      	sub	sp, #20
 8008024:	af00      	add	r7, sp, #0
 8008026:	6078      	str	r0, [r7, #4]
  __IO uint32_t count = 0U;
 8008028:	2300      	movs	r3, #0
 800802a:	60fb      	str	r3, [r7, #12]

  /* Wait for AHB master IDLE state. */
  do
  {
    count++;
 800802c:	68fb      	ldr	r3, [r7, #12]
 800802e:	3301      	adds	r3, #1
 8008030:	60fb      	str	r3, [r7, #12]

    if (count > HAL_USB_TIMEOUT)
 8008032:	68fb      	ldr	r3, [r7, #12]
 8008034:	f1b3 6f70 	cmp.w	r3, #251658240	@ 0xf000000
 8008038:	d901      	bls.n	800803e <USB_CoreReset+0x1e>
    {
      return HAL_TIMEOUT;
 800803a:	2303      	movs	r3, #3
 800803c:	e022      	b.n	8008084 <USB_CoreReset+0x64>
    }
  } while ((USBx->GRSTCTL & USB_OTG_GRSTCTL_AHBIDL) == 0U);
 800803e:	687b      	ldr	r3, [r7, #4]
 8008040:	691b      	ldr	r3, [r3, #16]
 8008042:	2b00      	cmp	r3, #0
 8008044:	daf2      	bge.n	800802c <USB_CoreReset+0xc>

  count = 10U;
 8008046:	230a      	movs	r3, #10
 8008048:	60fb      	str	r3, [r7, #12]

  /* few cycles before setting core reset */
  while (count > 0U)
 800804a:	e002      	b.n	8008052 <USB_CoreReset+0x32>
  {
    count--;
 800804c:	68fb      	ldr	r3, [r7, #12]
 800804e:	3b01      	subs	r3, #1
 8008050:	60fb      	str	r3, [r7, #12]
  while (count > 0U)
 8008052:	68fb      	ldr	r3, [r7, #12]
 8008054:	2b00      	cmp	r3, #0
 8008056:	d1f9      	bne.n	800804c <USB_CoreReset+0x2c>
  }

  /* Core Soft Reset */
  USBx->GRSTCTL |= USB_OTG_GRSTCTL_CSRST;
 8008058:	687b      	ldr	r3, [r7, #4]
 800805a:	691b      	ldr	r3, [r3, #16]
 800805c:	f043 0201 	orr.w	r2, r3, #1
 8008060:	687b      	ldr	r3, [r7, #4]
 8008062:	611a      	str	r2, [r3, #16]

  do
  {
    count++;
 8008064:	68fb      	ldr	r3, [r7, #12]
 8008066:	3301      	adds	r3, #1
 8008068:	60fb      	str	r3, [r7, #12]

    if (count > HAL_USB_TIMEOUT)
 800806a:	68fb      	ldr	r3, [r7, #12]
 800806c:	f1b3 6f70 	cmp.w	r3, #251658240	@ 0xf000000
 8008070:	d901      	bls.n	8008076 <USB_CoreReset+0x56>
    {
      return HAL_TIMEOUT;
 8008072:	2303      	movs	r3, #3
 8008074:	e006      	b.n	8008084 <USB_CoreReset+0x64>
    }
  } while ((USBx->GRSTCTL & USB_OTG_GRSTCTL_CSRST) == USB_OTG_GRSTCTL_CSRST);
 8008076:	687b      	ldr	r3, [r7, #4]
 8008078:	691b      	ldr	r3, [r3, #16]
 800807a:	f003 0301 	and.w	r3, r3, #1
 800807e:	2b01      	cmp	r3, #1
 8008080:	d0f0      	beq.n	8008064 <USB_CoreReset+0x44>

  return HAL_OK;
 8008082:	2300      	movs	r3, #0
}
 8008084:	4618      	mov	r0, r3
 8008086:	3714      	adds	r7, #20
 8008088:	46bd      	mov	sp, r7
 800808a:	f85d 7b04 	ldr.w	r7, [sp], #4
 800808e:	4770      	bx	lr

08008090 <std>:
 8008090:	2300      	movs	r3, #0
 8008092:	b510      	push	{r4, lr}
 8008094:	4604      	mov	r4, r0
 8008096:	e9c0 3300 	strd	r3, r3, [r0]
 800809a:	e9c0 3304 	strd	r3, r3, [r0, #16]
 800809e:	6083      	str	r3, [r0, #8]
 80080a0:	8181      	strh	r1, [r0, #12]
 80080a2:	6643      	str	r3, [r0, #100]	@ 0x64
 80080a4:	81c2      	strh	r2, [r0, #14]
 80080a6:	6183      	str	r3, [r0, #24]
 80080a8:	4619      	mov	r1, r3
 80080aa:	2208      	movs	r2, #8
 80080ac:	305c      	adds	r0, #92	@ 0x5c
 80080ae:	f000 f9f9 	bl	80084a4 <memset>
 80080b2:	4b0d      	ldr	r3, [pc, #52]	@ (80080e8 <std+0x58>)
 80080b4:	6263      	str	r3, [r4, #36]	@ 0x24
 80080b6:	4b0d      	ldr	r3, [pc, #52]	@ (80080ec <std+0x5c>)
 80080b8:	62a3      	str	r3, [r4, #40]	@ 0x28
 80080ba:	4b0d      	ldr	r3, [pc, #52]	@ (80080f0 <std+0x60>)
 80080bc:	62e3      	str	r3, [r4, #44]	@ 0x2c
 80080be:	4b0d      	ldr	r3, [pc, #52]	@ (80080f4 <std+0x64>)
 80080c0:	6323      	str	r3, [r4, #48]	@ 0x30
 80080c2:	4b0d      	ldr	r3, [pc, #52]	@ (80080f8 <std+0x68>)
 80080c4:	6224      	str	r4, [r4, #32]
 80080c6:	429c      	cmp	r4, r3
 80080c8:	d006      	beq.n	80080d8 <std+0x48>
 80080ca:	f103 0268 	add.w	r2, r3, #104	@ 0x68
 80080ce:	4294      	cmp	r4, r2
 80080d0:	d002      	beq.n	80080d8 <std+0x48>
 80080d2:	33d0      	adds	r3, #208	@ 0xd0
 80080d4:	429c      	cmp	r4, r3
 80080d6:	d105      	bne.n	80080e4 <std+0x54>
 80080d8:	f104 0058 	add.w	r0, r4, #88	@ 0x58
 80080dc:	e8bd 4010 	ldmia.w	sp!, {r4, lr}
 80080e0:	f000 ba58 	b.w	8008594 <__retarget_lock_init_recursive>
 80080e4:	bd10      	pop	{r4, pc}
 80080e6:	bf00      	nop
 80080e8:	080082f5 	.word	0x080082f5
 80080ec:	08008317 	.word	0x08008317
 80080f0:	0800834f 	.word	0x0800834f
 80080f4:	08008373 	.word	0x08008373
 80080f8:	20029710 	.word	0x20029710

080080fc <stdio_exit_handler>:
 80080fc:	4a02      	ldr	r2, [pc, #8]	@ (8008108 <stdio_exit_handler+0xc>)
 80080fe:	4903      	ldr	r1, [pc, #12]	@ (800810c <stdio_exit_handler+0x10>)
 8008100:	4803      	ldr	r0, [pc, #12]	@ (8008110 <stdio_exit_handler+0x14>)
 8008102:	f000 b869 	b.w	80081d8 <_fwalk_sglue>
 8008106:	bf00      	nop
 8008108:	2000000c 	.word	0x2000000c
 800810c:	08008e31 	.word	0x08008e31
 8008110:	2000001c 	.word	0x2000001c

08008114 <cleanup_stdio>:
 8008114:	6841      	ldr	r1, [r0, #4]
 8008116:	4b0c      	ldr	r3, [pc, #48]	@ (8008148 <cleanup_stdio+0x34>)
 8008118:	4299      	cmp	r1, r3
 800811a:	b510      	push	{r4, lr}
 800811c:	4604      	mov	r4, r0
 800811e:	d001      	beq.n	8008124 <cleanup_stdio+0x10>
 8008120:	f000 fe86 	bl	8008e30 <_fflush_r>
 8008124:	68a1      	ldr	r1, [r4, #8]
 8008126:	4b09      	ldr	r3, [pc, #36]	@ (800814c <cleanup_stdio+0x38>)
 8008128:	4299      	cmp	r1, r3
 800812a:	d002      	beq.n	8008132 <cleanup_stdio+0x1e>
 800812c:	4620      	mov	r0, r4
 800812e:	f000 fe7f 	bl	8008e30 <_fflush_r>
 8008132:	68e1      	ldr	r1, [r4, #12]
 8008134:	4b06      	ldr	r3, [pc, #24]	@ (8008150 <cleanup_stdio+0x3c>)
 8008136:	4299      	cmp	r1, r3
 8008138:	d004      	beq.n	8008144 <cleanup_stdio+0x30>
 800813a:	4620      	mov	r0, r4
 800813c:	e8bd 4010 	ldmia.w	sp!, {r4, lr}
 8008140:	f000 be76 	b.w	8008e30 <_fflush_r>
 8008144:	bd10      	pop	{r4, pc}
 8008146:	bf00      	nop
 8008148:	20029710 	.word	0x20029710
 800814c:	20029778 	.word	0x20029778
 8008150:	200297e0 	.word	0x200297e0

08008154 <global_stdio_init.part.0>:
 8008154:	b510      	push	{r4, lr}
 8008156:	4b0b      	ldr	r3, [pc, #44]	@ (8008184 <global_stdio_init.part.0+0x30>)
 8008158:	4c0b      	ldr	r4, [pc, #44]	@ (8008188 <global_stdio_init.part.0+0x34>)
 800815a:	4a0c      	ldr	r2, [pc, #48]	@ (800818c <global_stdio_init.part.0+0x38>)
 800815c:	601a      	str	r2, [r3, #0]
 800815e:	4620      	mov	r0, r4
 8008160:	2200      	movs	r2, #0
 8008162:	2104      	movs	r1, #4
 8008164:	f7ff ff94 	bl	8008090 <std>
 8008168:	f104 0068 	add.w	r0, r4, #104	@ 0x68
 800816c:	2201      	movs	r2, #1
 800816e:	2109      	movs	r1, #9
 8008170:	f7ff ff8e 	bl	8008090 <std>
 8008174:	f104 00d0 	add.w	r0, r4, #208	@ 0xd0
 8008178:	2202      	movs	r2, #2
 800817a:	e8bd 4010 	ldmia.w	sp!, {r4, lr}
 800817e:	2112      	movs	r1, #18
 8008180:	f7ff bf86 	b.w	8008090 <std>
 8008184:	20029848 	.word	0x20029848
 8008188:	20029710 	.word	0x20029710
 800818c:	080080fd 	.word	0x080080fd

08008190 <__sfp_lock_acquire>:
 8008190:	4801      	ldr	r0, [pc, #4]	@ (8008198 <__sfp_lock_acquire+0x8>)
 8008192:	f000 ba00 	b.w	8008596 <__retarget_lock_acquire_recursive>
 8008196:	bf00      	nop
 8008198:	20029851 	.word	0x20029851

0800819c <__sfp_lock_release>:
 800819c:	4801      	ldr	r0, [pc, #4]	@ (80081a4 <__sfp_lock_release+0x8>)
 800819e:	f000 b9fb 	b.w	8008598 <__retarget_lock_release_recursive>
 80081a2:	bf00      	nop
 80081a4:	20029851 	.word	0x20029851

080081a8 <__sinit>:
 80081a8:	b510      	push	{r4, lr}
 80081aa:	4604      	mov	r4, r0
 80081ac:	f7ff fff0 	bl	8008190 <__sfp_lock_acquire>
 80081b0:	6a23      	ldr	r3, [r4, #32]
 80081b2:	b11b      	cbz	r3, 80081bc <__sinit+0x14>
 80081b4:	e8bd 4010 	ldmia.w	sp!, {r4, lr}
 80081b8:	f7ff bff0 	b.w	800819c <__sfp_lock_release>
 80081bc:	4b04      	ldr	r3, [pc, #16]	@ (80081d0 <__sinit+0x28>)
 80081be:	6223      	str	r3, [r4, #32]
 80081c0:	4b04      	ldr	r3, [pc, #16]	@ (80081d4 <__sinit+0x2c>)
 80081c2:	681b      	ldr	r3, [r3, #0]
 80081c4:	2b00      	cmp	r3, #0
 80081c6:	d1f5      	bne.n	80081b4 <__sinit+0xc>
 80081c8:	f7ff ffc4 	bl	8008154 <global_stdio_init.part.0>
 80081cc:	e7f2      	b.n	80081b4 <__sinit+0xc>
 80081ce:	bf00      	nop
 80081d0:	08008115 	.word	0x08008115
 80081d4:	20029848 	.word	0x20029848

080081d8 <_fwalk_sglue>:
 80081d8:	e92d 43f8 	stmdb	sp!, {r3, r4, r5, r6, r7, r8, r9, lr}
 80081dc:	4607      	mov	r7, r0
 80081de:	4688      	mov	r8, r1
 80081e0:	4614      	mov	r4, r2
 80081e2:	2600      	movs	r6, #0
 80081e4:	e9d4 9501 	ldrd	r9, r5, [r4, #4]
 80081e8:	f1b9 0901 	subs.w	r9, r9, #1
 80081ec:	d505      	bpl.n	80081fa <_fwalk_sglue+0x22>
 80081ee:	6824      	ldr	r4, [r4, #0]
 80081f0:	2c00      	cmp	r4, #0
 80081f2:	d1f7      	bne.n	80081e4 <_fwalk_sglue+0xc>
 80081f4:	4630      	mov	r0, r6
 80081f6:	e8bd 83f8 	ldmia.w	sp!, {r3, r4, r5, r6, r7, r8, r9, pc}
 80081fa:	89ab      	ldrh	r3, [r5, #12]
 80081fc:	2b01      	cmp	r3, #1
 80081fe:	d907      	bls.n	8008210 <_fwalk_sglue+0x38>
 8008200:	f9b5 300e 	ldrsh.w	r3, [r5, #14]
 8008204:	3301      	adds	r3, #1
 8008206:	d003      	beq.n	8008210 <_fwalk_sglue+0x38>
 8008208:	4629      	mov	r1, r5
 800820a:	4638      	mov	r0, r7
 800820c:	47c0      	blx	r8
 800820e:	4306      	orrs	r6, r0
 8008210:	3568      	adds	r5, #104	@ 0x68
 8008212:	e7e9      	b.n	80081e8 <_fwalk_sglue+0x10>

08008214 <iprintf>:
 8008214:	b40f      	push	{r0, r1, r2, r3}
 8008216:	b507      	push	{r0, r1, r2, lr}
 8008218:	4906      	ldr	r1, [pc, #24]	@ (8008234 <iprintf+0x20>)
 800821a:	ab04      	add	r3, sp, #16
 800821c:	6808      	ldr	r0, [r1, #0]
 800821e:	f853 2b04 	ldr.w	r2, [r3], #4
 8008222:	6881      	ldr	r1, [r0, #8]
 8008224:	9301      	str	r3, [sp, #4]
 8008226:	f000 fadb 	bl	80087e0 <_vfiprintf_r>
 800822a:	b003      	add	sp, #12
 800822c:	f85d eb04 	ldr.w	lr, [sp], #4
 8008230:	b004      	add	sp, #16
 8008232:	4770      	bx	lr
 8008234:	20000018 	.word	0x20000018

08008238 <_puts_r>:
 8008238:	6a03      	ldr	r3, [r0, #32]
 800823a:	b570      	push	{r4, r5, r6, lr}
 800823c:	6884      	ldr	r4, [r0, #8]
 800823e:	4605      	mov	r5, r0
 8008240:	460e      	mov	r6, r1
 8008242:	b90b      	cbnz	r3, 8008248 <_puts_r+0x10>
 8008244:	f7ff ffb0 	bl	80081a8 <__sinit>
 8008248:	6e63      	ldr	r3, [r4, #100]	@ 0x64
 800824a:	07db      	lsls	r3, r3, #31
 800824c:	d405      	bmi.n	800825a <_puts_r+0x22>
 800824e:	89a3      	ldrh	r3, [r4, #12]
 8008250:	0598      	lsls	r0, r3, #22
 8008252:	d402      	bmi.n	800825a <_puts_r+0x22>
 8008254:	6da0      	ldr	r0, [r4, #88]	@ 0x58
 8008256:	f000 f99e 	bl	8008596 <__retarget_lock_acquire_recursive>
 800825a:	89a3      	ldrh	r3, [r4, #12]
 800825c:	0719      	lsls	r1, r3, #28
 800825e:	d502      	bpl.n	8008266 <_puts_r+0x2e>
 8008260:	6923      	ldr	r3, [r4, #16]
 8008262:	2b00      	cmp	r3, #0
 8008264:	d135      	bne.n	80082d2 <_puts_r+0x9a>
 8008266:	4621      	mov	r1, r4
 8008268:	4628      	mov	r0, r5
 800826a:	f000 f8c5 	bl	80083f8 <__swsetup_r>
 800826e:	b380      	cbz	r0, 80082d2 <_puts_r+0x9a>
 8008270:	f04f 35ff 	mov.w	r5, #4294967295
 8008274:	6e63      	ldr	r3, [r4, #100]	@ 0x64
 8008276:	07da      	lsls	r2, r3, #31
 8008278:	d405      	bmi.n	8008286 <_puts_r+0x4e>
 800827a:	89a3      	ldrh	r3, [r4, #12]
 800827c:	059b      	lsls	r3, r3, #22
 800827e:	d402      	bmi.n	8008286 <_puts_r+0x4e>
 8008280:	6da0      	ldr	r0, [r4, #88]	@ 0x58
 8008282:	f000 f989 	bl	8008598 <__retarget_lock_release_recursive>
 8008286:	4628      	mov	r0, r5
 8008288:	bd70      	pop	{r4, r5, r6, pc}
 800828a:	2b00      	cmp	r3, #0
 800828c:	da04      	bge.n	8008298 <_puts_r+0x60>
 800828e:	69a2      	ldr	r2, [r4, #24]
 8008290:	429a      	cmp	r2, r3
 8008292:	dc17      	bgt.n	80082c4 <_puts_r+0x8c>
 8008294:	290a      	cmp	r1, #10
 8008296:	d015      	beq.n	80082c4 <_puts_r+0x8c>
 8008298:	6823      	ldr	r3, [r4, #0]
 800829a:	1c5a      	adds	r2, r3, #1
 800829c:	6022      	str	r2, [r4, #0]
 800829e:	7019      	strb	r1, [r3, #0]
 80082a0:	68a3      	ldr	r3, [r4, #8]
 80082a2:	f816 1f01 	ldrb.w	r1, [r6, #1]!
 80082a6:	3b01      	subs	r3, #1
 80082a8:	60a3      	str	r3, [r4, #8]
 80082aa:	2900      	cmp	r1, #0
 80082ac:	d1ed      	bne.n	800828a <_puts_r+0x52>
 80082ae:	2b00      	cmp	r3, #0
 80082b0:	da11      	bge.n	80082d6 <_puts_r+0x9e>
 80082b2:	4622      	mov	r2, r4
 80082b4:	210a      	movs	r1, #10
 80082b6:	4628      	mov	r0, r5
 80082b8:	f000 f85f 	bl	800837a <__swbuf_r>
 80082bc:	3001      	adds	r0, #1
 80082be:	d0d7      	beq.n	8008270 <_puts_r+0x38>
 80082c0:	250a      	movs	r5, #10
 80082c2:	e7d7      	b.n	8008274 <_puts_r+0x3c>
 80082c4:	4622      	mov	r2, r4
 80082c6:	4628      	mov	r0, r5
 80082c8:	f000 f857 	bl	800837a <__swbuf_r>
 80082cc:	3001      	adds	r0, #1
 80082ce:	d1e7      	bne.n	80082a0 <_puts_r+0x68>
 80082d0:	e7ce      	b.n	8008270 <_puts_r+0x38>
 80082d2:	3e01      	subs	r6, #1
 80082d4:	e7e4      	b.n	80082a0 <_puts_r+0x68>
 80082d6:	6823      	ldr	r3, [r4, #0]
 80082d8:	1c5a      	adds	r2, r3, #1
 80082da:	6022      	str	r2, [r4, #0]
 80082dc:	220a      	movs	r2, #10
 80082de:	701a      	strb	r2, [r3, #0]
 80082e0:	e7ee      	b.n	80082c0 <_puts_r+0x88>
	...

080082e4 <puts>:
 80082e4:	4b02      	ldr	r3, [pc, #8]	@ (80082f0 <puts+0xc>)
 80082e6:	4601      	mov	r1, r0
 80082e8:	6818      	ldr	r0, [r3, #0]
 80082ea:	f7ff bfa5 	b.w	8008238 <_puts_r>
 80082ee:	bf00      	nop
 80082f0:	20000018 	.word	0x20000018

080082f4 <__sread>:
 80082f4:	b510      	push	{r4, lr}
 80082f6:	460c      	mov	r4, r1
 80082f8:	f9b1 100e 	ldrsh.w	r1, [r1, #14]
 80082fc:	f000 f8fc 	bl	80084f8 <_read_r>
 8008300:	2800      	cmp	r0, #0
 8008302:	bfab      	itete	ge
 8008304:	6d63      	ldrge	r3, [r4, #84]	@ 0x54
 8008306:	89a3      	ldrhlt	r3, [r4, #12]
 8008308:	181b      	addge	r3, r3, r0
 800830a:	f423 5380 	biclt.w	r3, r3, #4096	@ 0x1000
 800830e:	bfac      	ite	ge
 8008310:	6563      	strge	r3, [r4, #84]	@ 0x54
 8008312:	81a3      	strhlt	r3, [r4, #12]
 8008314:	bd10      	pop	{r4, pc}

08008316 <__swrite>:
 8008316:	e92d 41f0 	stmdb	sp!, {r4, r5, r6, r7, r8, lr}
 800831a:	461f      	mov	r7, r3
 800831c:	898b      	ldrh	r3, [r1, #12]
 800831e:	05db      	lsls	r3, r3, #23
 8008320:	4605      	mov	r5, r0
 8008322:	460c      	mov	r4, r1
 8008324:	4616      	mov	r6, r2
 8008326:	d505      	bpl.n	8008334 <__swrite+0x1e>
 8008328:	f9b1 100e 	ldrsh.w	r1, [r1, #14]
 800832c:	2302      	movs	r3, #2
 800832e:	2200      	movs	r2, #0
 8008330:	f000 f8d0 	bl	80084d4 <_lseek_r>
 8008334:	89a3      	ldrh	r3, [r4, #12]
 8008336:	f9b4 100e 	ldrsh.w	r1, [r4, #14]
 800833a:	f423 5380 	bic.w	r3, r3, #4096	@ 0x1000
 800833e:	81a3      	strh	r3, [r4, #12]
 8008340:	4632      	mov	r2, r6
 8008342:	463b      	mov	r3, r7
 8008344:	4628      	mov	r0, r5
 8008346:	e8bd 41f0 	ldmia.w	sp!, {r4, r5, r6, r7, r8, lr}
 800834a:	f000 b8e7 	b.w	800851c <_write_r>

0800834e <__sseek>:
 800834e:	b510      	push	{r4, lr}
 8008350:	460c      	mov	r4, r1
 8008352:	f9b1 100e 	ldrsh.w	r1, [r1, #14]
 8008356:	f000 f8bd 	bl	80084d4 <_lseek_r>
 800835a:	1c43      	adds	r3, r0, #1
 800835c:	89a3      	ldrh	r3, [r4, #12]
 800835e:	bf15      	itete	ne
 8008360:	6560      	strne	r0, [r4, #84]	@ 0x54
 8008362:	f423 5380 	biceq.w	r3, r3, #4096	@ 0x1000
 8008366:	f443 5380 	orrne.w	r3, r3, #4096	@ 0x1000
 800836a:	81a3      	strheq	r3, [r4, #12]
 800836c:	bf18      	it	ne
 800836e:	81a3      	strhne	r3, [r4, #12]
 8008370:	bd10      	pop	{r4, pc}

08008372 <__sclose>:
 8008372:	f9b1 100e 	ldrsh.w	r1, [r1, #14]
 8008376:	f000 b89d 	b.w	80084b4 <_close_r>

0800837a <__swbuf_r>:
 800837a:	b5f8      	push	{r3, r4, r5, r6, r7, lr}
 800837c:	460e      	mov	r6, r1
 800837e:	4614      	mov	r4, r2
 8008380:	4605      	mov	r5, r0
 8008382:	b118      	cbz	r0, 800838c <__swbuf_r+0x12>
 8008384:	6a03      	ldr	r3, [r0, #32]
 8008386:	b90b      	cbnz	r3, 800838c <__swbuf_r+0x12>
 8008388:	f7ff ff0e 	bl	80081a8 <__sinit>
 800838c:	69a3      	ldr	r3, [r4, #24]
 800838e:	60a3      	str	r3, [r4, #8]
 8008390:	89a3      	ldrh	r3, [r4, #12]
 8008392:	071a      	lsls	r2, r3, #28
 8008394:	d501      	bpl.n	800839a <__swbuf_r+0x20>
 8008396:	6923      	ldr	r3, [r4, #16]
 8008398:	b943      	cbnz	r3, 80083ac <__swbuf_r+0x32>
 800839a:	4621      	mov	r1, r4
 800839c:	4628      	mov	r0, r5
 800839e:	f000 f82b 	bl	80083f8 <__swsetup_r>
 80083a2:	b118      	cbz	r0, 80083ac <__swbuf_r+0x32>
 80083a4:	f04f 37ff 	mov.w	r7, #4294967295
 80083a8:	4638      	mov	r0, r7
 80083aa:	bdf8      	pop	{r3, r4, r5, r6, r7, pc}
 80083ac:	6823      	ldr	r3, [r4, #0]
 80083ae:	6922      	ldr	r2, [r4, #16]
 80083b0:	1a98      	subs	r0, r3, r2
 80083b2:	6963      	ldr	r3, [r4, #20]
 80083b4:	b2f6      	uxtb	r6, r6
 80083b6:	4283      	cmp	r3, r0
 80083b8:	4637      	mov	r7, r6
 80083ba:	dc05      	bgt.n	80083c8 <__swbuf_r+0x4e>
 80083bc:	4621      	mov	r1, r4
 80083be:	4628      	mov	r0, r5
 80083c0:	f000 fd36 	bl	8008e30 <_fflush_r>
 80083c4:	2800      	cmp	r0, #0
 80083c6:	d1ed      	bne.n	80083a4 <__swbuf_r+0x2a>
 80083c8:	68a3      	ldr	r3, [r4, #8]
 80083ca:	3b01      	subs	r3, #1
 80083cc:	60a3      	str	r3, [r4, #8]
 80083ce:	6823      	ldr	r3, [r4, #0]
 80083d0:	1c5a      	adds	r2, r3, #1
 80083d2:	6022      	str	r2, [r4, #0]
 80083d4:	701e      	strb	r6, [r3, #0]
 80083d6:	6962      	ldr	r2, [r4, #20]
 80083d8:	1c43      	adds	r3, r0, #1
 80083da:	429a      	cmp	r2, r3
 80083dc:	d004      	beq.n	80083e8 <__swbuf_r+0x6e>
 80083de:	89a3      	ldrh	r3, [r4, #12]
 80083e0:	07db      	lsls	r3, r3, #31
 80083e2:	d5e1      	bpl.n	80083a8 <__swbuf_r+0x2e>
 80083e4:	2e0a      	cmp	r6, #10
 80083e6:	d1df      	bne.n	80083a8 <__swbuf_r+0x2e>
 80083e8:	4621      	mov	r1, r4
 80083ea:	4628      	mov	r0, r5
 80083ec:	f000 fd20 	bl	8008e30 <_fflush_r>
 80083f0:	2800      	cmp	r0, #0
 80083f2:	d0d9      	beq.n	80083a8 <__swbuf_r+0x2e>
 80083f4:	e7d6      	b.n	80083a4 <__swbuf_r+0x2a>
	...

080083f8 <__swsetup_r>:
 80083f8:	b538      	push	{r3, r4, r5, lr}
 80083fa:	4b29      	ldr	r3, [pc, #164]	@ (80084a0 <__swsetup_r+0xa8>)
 80083fc:	4605      	mov	r5, r0
 80083fe:	6818      	ldr	r0, [r3, #0]
 8008400:	460c      	mov	r4, r1
 8008402:	b118      	cbz	r0, 800840c <__swsetup_r+0x14>
 8008404:	6a03      	ldr	r3, [r0, #32]
 8008406:	b90b      	cbnz	r3, 800840c <__swsetup_r+0x14>
 8008408:	f7ff fece 	bl	80081a8 <__sinit>
 800840c:	f9b4 300c 	ldrsh.w	r3, [r4, #12]
 8008410:	0719      	lsls	r1, r3, #28
 8008412:	d422      	bmi.n	800845a <__swsetup_r+0x62>
 8008414:	06da      	lsls	r2, r3, #27
 8008416:	d407      	bmi.n	8008428 <__swsetup_r+0x30>
 8008418:	2209      	movs	r2, #9
 800841a:	602a      	str	r2, [r5, #0]
 800841c:	f043 0340 	orr.w	r3, r3, #64	@ 0x40
 8008420:	81a3      	strh	r3, [r4, #12]
 8008422:	f04f 30ff 	mov.w	r0, #4294967295
 8008426:	e033      	b.n	8008490 <__swsetup_r+0x98>
 8008428:	0758      	lsls	r0, r3, #29
 800842a:	d512      	bpl.n	8008452 <__swsetup_r+0x5a>
 800842c:	6b61      	ldr	r1, [r4, #52]	@ 0x34
 800842e:	b141      	cbz	r1, 8008442 <__swsetup_r+0x4a>
 8008430:	f104 0344 	add.w	r3, r4, #68	@ 0x44
 8008434:	4299      	cmp	r1, r3
 8008436:	d002      	beq.n	800843e <__swsetup_r+0x46>
 8008438:	4628      	mov	r0, r5
 800843a:	f000 f8af 	bl	800859c <_free_r>
 800843e:	2300      	movs	r3, #0
 8008440:	6363      	str	r3, [r4, #52]	@ 0x34
 8008442:	89a3      	ldrh	r3, [r4, #12]
 8008444:	f023 0324 	bic.w	r3, r3, #36	@ 0x24
 8008448:	81a3      	strh	r3, [r4, #12]
 800844a:	2300      	movs	r3, #0
 800844c:	6063      	str	r3, [r4, #4]
 800844e:	6923      	ldr	r3, [r4, #16]
 8008450:	6023      	str	r3, [r4, #0]
 8008452:	89a3      	ldrh	r3, [r4, #12]
 8008454:	f043 0308 	orr.w	r3, r3, #8
 8008458:	81a3      	strh	r3, [r4, #12]
 800845a:	6923      	ldr	r3, [r4, #16]
 800845c:	b94b      	cbnz	r3, 8008472 <__swsetup_r+0x7a>
 800845e:	89a3      	ldrh	r3, [r4, #12]
 8008460:	f403 7320 	and.w	r3, r3, #640	@ 0x280
 8008464:	f5b3 7f00 	cmp.w	r3, #512	@ 0x200
 8008468:	d003      	beq.n	8008472 <__swsetup_r+0x7a>
 800846a:	4621      	mov	r1, r4
 800846c:	4628      	mov	r0, r5
 800846e:	f000 fd2d 	bl	8008ecc <__smakebuf_r>
 8008472:	f9b4 300c 	ldrsh.w	r3, [r4, #12]
 8008476:	f013 0201 	ands.w	r2, r3, #1
 800847a:	d00a      	beq.n	8008492 <__swsetup_r+0x9a>
 800847c:	2200      	movs	r2, #0
 800847e:	60a2      	str	r2, [r4, #8]
 8008480:	6962      	ldr	r2, [r4, #20]
 8008482:	4252      	negs	r2, r2
 8008484:	61a2      	str	r2, [r4, #24]
 8008486:	6922      	ldr	r2, [r4, #16]
 8008488:	b942      	cbnz	r2, 800849c <__swsetup_r+0xa4>
 800848a:	f013 0080 	ands.w	r0, r3, #128	@ 0x80
 800848e:	d1c5      	bne.n	800841c <__swsetup_r+0x24>
 8008490:	bd38      	pop	{r3, r4, r5, pc}
 8008492:	0799      	lsls	r1, r3, #30
 8008494:	bf58      	it	pl
 8008496:	6962      	ldrpl	r2, [r4, #20]
 8008498:	60a2      	str	r2, [r4, #8]
 800849a:	e7f4      	b.n	8008486 <__swsetup_r+0x8e>
 800849c:	2000      	movs	r0, #0
 800849e:	e7f7      	b.n	8008490 <__swsetup_r+0x98>
 80084a0:	20000018 	.word	0x20000018

080084a4 <memset>:
 80084a4:	4402      	add	r2, r0
 80084a6:	4603      	mov	r3, r0
 80084a8:	4293      	cmp	r3, r2
 80084aa:	d100      	bne.n	80084ae <memset+0xa>
 80084ac:	4770      	bx	lr
 80084ae:	f803 1b01 	strb.w	r1, [r3], #1
 80084b2:	e7f9      	b.n	80084a8 <memset+0x4>

080084b4 <_close_r>:
 80084b4:	b538      	push	{r3, r4, r5, lr}
 80084b6:	4d06      	ldr	r5, [pc, #24]	@ (80084d0 <_close_r+0x1c>)
 80084b8:	2300      	movs	r3, #0
 80084ba:	4604      	mov	r4, r0
 80084bc:	4608      	mov	r0, r1
 80084be:	602b      	str	r3, [r5, #0]
 80084c0:	f7f9 fe05 	bl	80020ce <_close>
 80084c4:	1c43      	adds	r3, r0, #1
 80084c6:	d102      	bne.n	80084ce <_close_r+0x1a>
 80084c8:	682b      	ldr	r3, [r5, #0]
 80084ca:	b103      	cbz	r3, 80084ce <_close_r+0x1a>
 80084cc:	6023      	str	r3, [r4, #0]
 80084ce:	bd38      	pop	{r3, r4, r5, pc}
 80084d0:	2002984c 	.word	0x2002984c

080084d4 <_lseek_r>:
 80084d4:	b538      	push	{r3, r4, r5, lr}
 80084d6:	4d07      	ldr	r5, [pc, #28]	@ (80084f4 <_lseek_r+0x20>)
 80084d8:	4604      	mov	r4, r0
 80084da:	4608      	mov	r0, r1
 80084dc:	4611      	mov	r1, r2
 80084de:	2200      	movs	r2, #0
 80084e0:	602a      	str	r2, [r5, #0]
 80084e2:	461a      	mov	r2, r3
 80084e4:	f7f9 fe1a 	bl	800211c <_lseek>
 80084e8:	1c43      	adds	r3, r0, #1
 80084ea:	d102      	bne.n	80084f2 <_lseek_r+0x1e>
 80084ec:	682b      	ldr	r3, [r5, #0]
 80084ee:	b103      	cbz	r3, 80084f2 <_lseek_r+0x1e>
 80084f0:	6023      	str	r3, [r4, #0]
 80084f2:	bd38      	pop	{r3, r4, r5, pc}
 80084f4:	2002984c 	.word	0x2002984c

080084f8 <_read_r>:
 80084f8:	b538      	push	{r3, r4, r5, lr}
 80084fa:	4d07      	ldr	r5, [pc, #28]	@ (8008518 <_read_r+0x20>)
 80084fc:	4604      	mov	r4, r0
 80084fe:	4608      	mov	r0, r1
 8008500:	4611      	mov	r1, r2
 8008502:	2200      	movs	r2, #0
 8008504:	602a      	str	r2, [r5, #0]
 8008506:	461a      	mov	r2, r3
 8008508:	f7f9 fda8 	bl	800205c <_read>
 800850c:	1c43      	adds	r3, r0, #1
 800850e:	d102      	bne.n	8008516 <_read_r+0x1e>
 8008510:	682b      	ldr	r3, [r5, #0]
 8008512:	b103      	cbz	r3, 8008516 <_read_r+0x1e>
 8008514:	6023      	str	r3, [r4, #0]
 8008516:	bd38      	pop	{r3, r4, r5, pc}
 8008518:	2002984c 	.word	0x2002984c

0800851c <_write_r>:
 800851c:	b538      	push	{r3, r4, r5, lr}
 800851e:	4d07      	ldr	r5, [pc, #28]	@ (800853c <_write_r+0x20>)
 8008520:	4604      	mov	r4, r0
 8008522:	4608      	mov	r0, r1
 8008524:	4611      	mov	r1, r2
 8008526:	2200      	movs	r2, #0
 8008528:	602a      	str	r2, [r5, #0]
 800852a:	461a      	mov	r2, r3
 800852c:	f7f9 fdb3 	bl	8002096 <_write>
 8008530:	1c43      	adds	r3, r0, #1
 8008532:	d102      	bne.n	800853a <_write_r+0x1e>
 8008534:	682b      	ldr	r3, [r5, #0]
 8008536:	b103      	cbz	r3, 800853a <_write_r+0x1e>
 8008538:	6023      	str	r3, [r4, #0]
 800853a:	bd38      	pop	{r3, r4, r5, pc}
 800853c:	2002984c 	.word	0x2002984c

08008540 <__errno>:
 8008540:	4b01      	ldr	r3, [pc, #4]	@ (8008548 <__errno+0x8>)
 8008542:	6818      	ldr	r0, [r3, #0]
 8008544:	4770      	bx	lr
 8008546:	bf00      	nop
 8008548:	20000018 	.word	0x20000018

0800854c <__libc_init_array>:
 800854c:	b570      	push	{r4, r5, r6, lr}
 800854e:	4d0d      	ldr	r5, [pc, #52]	@ (8008584 <__libc_init_array+0x38>)
 8008550:	4c0d      	ldr	r4, [pc, #52]	@ (8008588 <__libc_init_array+0x3c>)
 8008552:	1b64      	subs	r4, r4, r5
 8008554:	10a4      	asrs	r4, r4, #2
 8008556:	2600      	movs	r6, #0
 8008558:	42a6      	cmp	r6, r4
 800855a:	d109      	bne.n	8008570 <__libc_init_array+0x24>
 800855c:	4d0b      	ldr	r5, [pc, #44]	@ (800858c <__libc_init_array+0x40>)
 800855e:	4c0c      	ldr	r4, [pc, #48]	@ (8008590 <__libc_init_array+0x44>)
 8008560:	f000 fd22 	bl	8008fa8 <_init>
 8008564:	1b64      	subs	r4, r4, r5
 8008566:	10a4      	asrs	r4, r4, #2
 8008568:	2600      	movs	r6, #0
 800856a:	42a6      	cmp	r6, r4
 800856c:	d105      	bne.n	800857a <__libc_init_array+0x2e>
 800856e:	bd70      	pop	{r4, r5, r6, pc}
 8008570:	f855 3b04 	ldr.w	r3, [r5], #4
 8008574:	4798      	blx	r3
 8008576:	3601      	adds	r6, #1
 8008578:	e7ee      	b.n	8008558 <__libc_init_array+0xc>
 800857a:	f855 3b04 	ldr.w	r3, [r5], #4
 800857e:	4798      	blx	r3
 8008580:	3601      	adds	r6, #1
 8008582:	e7f2      	b.n	800856a <__libc_init_array+0x1e>
 8008584:	0800a92c 	.word	0x0800a92c
 8008588:	0800a92c 	.word	0x0800a92c
 800858c:	0800a92c 	.word	0x0800a92c
 8008590:	0800a930 	.word	0x0800a930

08008594 <__retarget_lock_init_recursive>:
 8008594:	4770      	bx	lr

08008596 <__retarget_lock_acquire_recursive>:
 8008596:	4770      	bx	lr

08008598 <__retarget_lock_release_recursive>:
 8008598:	4770      	bx	lr
	...

0800859c <_free_r>:
 800859c:	b538      	push	{r3, r4, r5, lr}
 800859e:	4605      	mov	r5, r0
 80085a0:	2900      	cmp	r1, #0
 80085a2:	d041      	beq.n	8008628 <_free_r+0x8c>
 80085a4:	f851 3c04 	ldr.w	r3, [r1, #-4]
 80085a8:	1f0c      	subs	r4, r1, #4
 80085aa:	2b00      	cmp	r3, #0
 80085ac:	bfb8      	it	lt
 80085ae:	18e4      	addlt	r4, r4, r3
 80085b0:	f000 f8e0 	bl	8008774 <__malloc_lock>
 80085b4:	4a1d      	ldr	r2, [pc, #116]	@ (800862c <_free_r+0x90>)
 80085b6:	6813      	ldr	r3, [r2, #0]
 80085b8:	b933      	cbnz	r3, 80085c8 <_free_r+0x2c>
 80085ba:	6063      	str	r3, [r4, #4]
 80085bc:	6014      	str	r4, [r2, #0]
 80085be:	4628      	mov	r0, r5
 80085c0:	e8bd 4038 	ldmia.w	sp!, {r3, r4, r5, lr}
 80085c4:	f000 b8dc 	b.w	8008780 <__malloc_unlock>
 80085c8:	42a3      	cmp	r3, r4
 80085ca:	d908      	bls.n	80085de <_free_r+0x42>
 80085cc:	6820      	ldr	r0, [r4, #0]
 80085ce:	1821      	adds	r1, r4, r0
 80085d0:	428b      	cmp	r3, r1
 80085d2:	bf01      	itttt	eq
 80085d4:	6819      	ldreq	r1, [r3, #0]
 80085d6:	685b      	ldreq	r3, [r3, #4]
 80085d8:	1809      	addeq	r1, r1, r0
 80085da:	6021      	streq	r1, [r4, #0]
 80085dc:	e7ed      	b.n	80085ba <_free_r+0x1e>
 80085de:	461a      	mov	r2, r3
 80085e0:	685b      	ldr	r3, [r3, #4]
 80085e2:	b10b      	cbz	r3, 80085e8 <_free_r+0x4c>
 80085e4:	42a3      	cmp	r3, r4
 80085e6:	d9fa      	bls.n	80085de <_free_r+0x42>
 80085e8:	6811      	ldr	r1, [r2, #0]
 80085ea:	1850      	adds	r0, r2, r1
 80085ec:	42a0      	cmp	r0, r4
 80085ee:	d10b      	bne.n	8008608 <_free_r+0x6c>
 80085f0:	6820      	ldr	r0, [r4, #0]
 80085f2:	4401      	add	r1, r0
 80085f4:	1850      	adds	r0, r2, r1
 80085f6:	4283      	cmp	r3, r0
 80085f8:	6011      	str	r1, [r2, #0]
 80085fa:	d1e0      	bne.n	80085be <_free_r+0x22>
 80085fc:	6818      	ldr	r0, [r3, #0]
 80085fe:	685b      	ldr	r3, [r3, #4]
 8008600:	6053      	str	r3, [r2, #4]
 8008602:	4408      	add	r0, r1
 8008604:	6010      	str	r0, [r2, #0]
 8008606:	e7da      	b.n	80085be <_free_r+0x22>
 8008608:	d902      	bls.n	8008610 <_free_r+0x74>
 800860a:	230c      	movs	r3, #12
 800860c:	602b      	str	r3, [r5, #0]
 800860e:	e7d6      	b.n	80085be <_free_r+0x22>
 8008610:	6820      	ldr	r0, [r4, #0]
 8008612:	1821      	adds	r1, r4, r0
 8008614:	428b      	cmp	r3, r1
 8008616:	bf04      	itt	eq
 8008618:	6819      	ldreq	r1, [r3, #0]
 800861a:	685b      	ldreq	r3, [r3, #4]
 800861c:	6063      	str	r3, [r4, #4]
 800861e:	bf04      	itt	eq
 8008620:	1809      	addeq	r1, r1, r0
 8008622:	6021      	streq	r1, [r4, #0]
 8008624:	6054      	str	r4, [r2, #4]
 8008626:	e7ca      	b.n	80085be <_free_r+0x22>
 8008628:	bd38      	pop	{r3, r4, r5, pc}
 800862a:	bf00      	nop
 800862c:	20029858 	.word	0x20029858

08008630 <sbrk_aligned>:
 8008630:	b570      	push	{r4, r5, r6, lr}
 8008632:	4e0f      	ldr	r6, [pc, #60]	@ (8008670 <sbrk_aligned+0x40>)
 8008634:	460c      	mov	r4, r1
 8008636:	6831      	ldr	r1, [r6, #0]
 8008638:	4605      	mov	r5, r0
 800863a:	b911      	cbnz	r1, 8008642 <sbrk_aligned+0x12>
 800863c:	f000 fca4 	bl	8008f88 <_sbrk_r>
 8008640:	6030      	str	r0, [r6, #0]
 8008642:	4621      	mov	r1, r4
 8008644:	4628      	mov	r0, r5
 8008646:	f000 fc9f 	bl	8008f88 <_sbrk_r>
 800864a:	1c43      	adds	r3, r0, #1
 800864c:	d103      	bne.n	8008656 <sbrk_aligned+0x26>
 800864e:	f04f 34ff 	mov.w	r4, #4294967295
 8008652:	4620      	mov	r0, r4
 8008654:	bd70      	pop	{r4, r5, r6, pc}
 8008656:	1cc4      	adds	r4, r0, #3
 8008658:	f024 0403 	bic.w	r4, r4, #3
 800865c:	42a0      	cmp	r0, r4
 800865e:	d0f8      	beq.n	8008652 <sbrk_aligned+0x22>
 8008660:	1a21      	subs	r1, r4, r0
 8008662:	4628      	mov	r0, r5
 8008664:	f000 fc90 	bl	8008f88 <_sbrk_r>
 8008668:	3001      	adds	r0, #1
 800866a:	d1f2      	bne.n	8008652 <sbrk_aligned+0x22>
 800866c:	e7ef      	b.n	800864e <sbrk_aligned+0x1e>
 800866e:	bf00      	nop
 8008670:	20029854 	.word	0x20029854

08008674 <_malloc_r>:
 8008674:	e92d 43f8 	stmdb	sp!, {r3, r4, r5, r6, r7, r8, r9, lr}
 8008678:	1ccd      	adds	r5, r1, #3
 800867a:	f025 0503 	bic.w	r5, r5, #3
 800867e:	3508      	adds	r5, #8
 8008680:	2d0c      	cmp	r5, #12
 8008682:	bf38      	it	cc
 8008684:	250c      	movcc	r5, #12
 8008686:	2d00      	cmp	r5, #0
 8008688:	4606      	mov	r6, r0
 800868a:	db01      	blt.n	8008690 <_malloc_r+0x1c>
 800868c:	42a9      	cmp	r1, r5
 800868e:	d904      	bls.n	800869a <_malloc_r+0x26>
 8008690:	230c      	movs	r3, #12
 8008692:	6033      	str	r3, [r6, #0]
 8008694:	2000      	movs	r0, #0
 8008696:	e8bd 83f8 	ldmia.w	sp!, {r3, r4, r5, r6, r7, r8, r9, pc}
 800869a:	f8df 80d4 	ldr.w	r8, [pc, #212]	@ 8008770 <_malloc_r+0xfc>
 800869e:	f000 f869 	bl	8008774 <__malloc_lock>
 80086a2:	f8d8 3000 	ldr.w	r3, [r8]
 80086a6:	461c      	mov	r4, r3
 80086a8:	bb44      	cbnz	r4, 80086fc <_malloc_r+0x88>
 80086aa:	4629      	mov	r1, r5
 80086ac:	4630      	mov	r0, r6
 80086ae:	f7ff ffbf 	bl	8008630 <sbrk_aligned>
 80086b2:	1c43      	adds	r3, r0, #1
 80086b4:	4604      	mov	r4, r0
 80086b6:	d158      	bne.n	800876a <_malloc_r+0xf6>
 80086b8:	f8d8 4000 	ldr.w	r4, [r8]
 80086bc:	4627      	mov	r7, r4
 80086be:	2f00      	cmp	r7, #0
 80086c0:	d143      	bne.n	800874a <_malloc_r+0xd6>
 80086c2:	2c00      	cmp	r4, #0
 80086c4:	d04b      	beq.n	800875e <_malloc_r+0xea>
 80086c6:	6823      	ldr	r3, [r4, #0]
 80086c8:	4639      	mov	r1, r7
 80086ca:	4630      	mov	r0, r6
 80086cc:	eb04 0903 	add.w	r9, r4, r3
 80086d0:	f000 fc5a 	bl	8008f88 <_sbrk_r>
 80086d4:	4581      	cmp	r9, r0
 80086d6:	d142      	bne.n	800875e <_malloc_r+0xea>
 80086d8:	6821      	ldr	r1, [r4, #0]
 80086da:	1a6d      	subs	r5, r5, r1
 80086dc:	4629      	mov	r1, r5
 80086de:	4630      	mov	r0, r6
 80086e0:	f7ff ffa6 	bl	8008630 <sbrk_aligned>
 80086e4:	3001      	adds	r0, #1
 80086e6:	d03a      	beq.n	800875e <_malloc_r+0xea>
 80086e8:	6823      	ldr	r3, [r4, #0]
 80086ea:	442b      	add	r3, r5
 80086ec:	6023      	str	r3, [r4, #0]
 80086ee:	f8d8 3000 	ldr.w	r3, [r8]
 80086f2:	685a      	ldr	r2, [r3, #4]
 80086f4:	bb62      	cbnz	r2, 8008750 <_malloc_r+0xdc>
 80086f6:	f8c8 7000 	str.w	r7, [r8]
 80086fa:	e00f      	b.n	800871c <_malloc_r+0xa8>
 80086fc:	6822      	ldr	r2, [r4, #0]
 80086fe:	1b52      	subs	r2, r2, r5
 8008700:	d420      	bmi.n	8008744 <_malloc_r+0xd0>
 8008702:	2a0b      	cmp	r2, #11
 8008704:	d917      	bls.n	8008736 <_malloc_r+0xc2>
 8008706:	1961      	adds	r1, r4, r5
 8008708:	42a3      	cmp	r3, r4
 800870a:	6025      	str	r5, [r4, #0]
 800870c:	bf18      	it	ne
 800870e:	6059      	strne	r1, [r3, #4]
 8008710:	6863      	ldr	r3, [r4, #4]
 8008712:	bf08      	it	eq
 8008714:	f8c8 1000 	streq.w	r1, [r8]
 8008718:	5162      	str	r2, [r4, r5]
 800871a:	604b      	str	r3, [r1, #4]
 800871c:	4630      	mov	r0, r6
 800871e:	f000 f82f 	bl	8008780 <__malloc_unlock>
 8008722:	f104 000b 	add.w	r0, r4, #11
 8008726:	1d23      	adds	r3, r4, #4
 8008728:	f020 0007 	bic.w	r0, r0, #7
 800872c:	1ac2      	subs	r2, r0, r3
 800872e:	bf1c      	itt	ne
 8008730:	1a1b      	subne	r3, r3, r0
 8008732:	50a3      	strne	r3, [r4, r2]
 8008734:	e7af      	b.n	8008696 <_malloc_r+0x22>
 8008736:	6862      	ldr	r2, [r4, #4]
 8008738:	42a3      	cmp	r3, r4
 800873a:	bf0c      	ite	eq
 800873c:	f8c8 2000 	streq.w	r2, [r8]
 8008740:	605a      	strne	r2, [r3, #4]
 8008742:	e7eb      	b.n	800871c <_malloc_r+0xa8>
 8008744:	4623      	mov	r3, r4
 8008746:	6864      	ldr	r4, [r4, #4]
 8008748:	e7ae      	b.n	80086a8 <_malloc_r+0x34>
 800874a:	463c      	mov	r4, r7
 800874c:	687f      	ldr	r7, [r7, #4]
 800874e:	e7b6      	b.n	80086be <_malloc_r+0x4a>
 8008750:	461a      	mov	r2, r3
 8008752:	685b      	ldr	r3, [r3, #4]
 8008754:	42a3      	cmp	r3, r4
 8008756:	d1fb      	bne.n	8008750 <_malloc_r+0xdc>
 8008758:	2300      	movs	r3, #0
 800875a:	6053      	str	r3, [r2, #4]
 800875c:	e7de      	b.n	800871c <_malloc_r+0xa8>
 800875e:	230c      	movs	r3, #12
 8008760:	6033      	str	r3, [r6, #0]
 8008762:	4630      	mov	r0, r6
 8008764:	f000 f80c 	bl	8008780 <__malloc_unlock>
 8008768:	e794      	b.n	8008694 <_malloc_r+0x20>
 800876a:	6005      	str	r5, [r0, #0]
 800876c:	e7d6      	b.n	800871c <_malloc_r+0xa8>
 800876e:	bf00      	nop
 8008770:	20029858 	.word	0x20029858

08008774 <__malloc_lock>:
 8008774:	4801      	ldr	r0, [pc, #4]	@ (800877c <__malloc_lock+0x8>)
 8008776:	f7ff bf0e 	b.w	8008596 <__retarget_lock_acquire_recursive>
 800877a:	bf00      	nop
 800877c:	20029850 	.word	0x20029850

08008780 <__malloc_unlock>:
 8008780:	4801      	ldr	r0, [pc, #4]	@ (8008788 <__malloc_unlock+0x8>)
 8008782:	f7ff bf09 	b.w	8008598 <__retarget_lock_release_recursive>
 8008786:	bf00      	nop
 8008788:	20029850 	.word	0x20029850

0800878c <__sfputc_r>:
 800878c:	6893      	ldr	r3, [r2, #8]
 800878e:	3b01      	subs	r3, #1
 8008790:	2b00      	cmp	r3, #0
 8008792:	b410      	push	{r4}
 8008794:	6093      	str	r3, [r2, #8]
 8008796:	da08      	bge.n	80087aa <__sfputc_r+0x1e>
 8008798:	6994      	ldr	r4, [r2, #24]
 800879a:	42a3      	cmp	r3, r4
 800879c:	db01      	blt.n	80087a2 <__sfputc_r+0x16>
 800879e:	290a      	cmp	r1, #10
 80087a0:	d103      	bne.n	80087aa <__sfputc_r+0x1e>
 80087a2:	f85d 4b04 	ldr.w	r4, [sp], #4
 80087a6:	f7ff bde8 	b.w	800837a <__swbuf_r>
 80087aa:	6813      	ldr	r3, [r2, #0]
 80087ac:	1c58      	adds	r0, r3, #1
 80087ae:	6010      	str	r0, [r2, #0]
 80087b0:	7019      	strb	r1, [r3, #0]
 80087b2:	4608      	mov	r0, r1
 80087b4:	f85d 4b04 	ldr.w	r4, [sp], #4
 80087b8:	4770      	bx	lr

080087ba <__sfputs_r>:
 80087ba:	b5f8      	push	{r3, r4, r5, r6, r7, lr}
 80087bc:	4606      	mov	r6, r0
 80087be:	460f      	mov	r7, r1
 80087c0:	4614      	mov	r4, r2
 80087c2:	18d5      	adds	r5, r2, r3
 80087c4:	42ac      	cmp	r4, r5
 80087c6:	d101      	bne.n	80087cc <__sfputs_r+0x12>
 80087c8:	2000      	movs	r0, #0
 80087ca:	e007      	b.n	80087dc <__sfputs_r+0x22>
 80087cc:	f814 1b01 	ldrb.w	r1, [r4], #1
 80087d0:	463a      	mov	r2, r7
 80087d2:	4630      	mov	r0, r6
 80087d4:	f7ff ffda 	bl	800878c <__sfputc_r>
 80087d8:	1c43      	adds	r3, r0, #1
 80087da:	d1f3      	bne.n	80087c4 <__sfputs_r+0xa>
 80087dc:	bdf8      	pop	{r3, r4, r5, r6, r7, pc}
	...

080087e0 <_vfiprintf_r>:
 80087e0:	e92d 4ff0 	stmdb	sp!, {r4, r5, r6, r7, r8, r9, sl, fp, lr}
 80087e4:	460d      	mov	r5, r1
 80087e6:	b09d      	sub	sp, #116	@ 0x74
 80087e8:	4614      	mov	r4, r2
 80087ea:	4698      	mov	r8, r3
 80087ec:	4606      	mov	r6, r0
 80087ee:	b118      	cbz	r0, 80087f8 <_vfiprintf_r+0x18>
 80087f0:	6a03      	ldr	r3, [r0, #32]
 80087f2:	b90b      	cbnz	r3, 80087f8 <_vfiprintf_r+0x18>
 80087f4:	f7ff fcd8 	bl	80081a8 <__sinit>
 80087f8:	6e6b      	ldr	r3, [r5, #100]	@ 0x64
 80087fa:	07d9      	lsls	r1, r3, #31
 80087fc:	d405      	bmi.n	800880a <_vfiprintf_r+0x2a>
 80087fe:	89ab      	ldrh	r3, [r5, #12]
 8008800:	059a      	lsls	r2, r3, #22
 8008802:	d402      	bmi.n	800880a <_vfiprintf_r+0x2a>
 8008804:	6da8      	ldr	r0, [r5, #88]	@ 0x58
 8008806:	f7ff fec6 	bl	8008596 <__retarget_lock_acquire_recursive>
 800880a:	89ab      	ldrh	r3, [r5, #12]
 800880c:	071b      	lsls	r3, r3, #28
 800880e:	d501      	bpl.n	8008814 <_vfiprintf_r+0x34>
 8008810:	692b      	ldr	r3, [r5, #16]
 8008812:	b99b      	cbnz	r3, 800883c <_vfiprintf_r+0x5c>
 8008814:	4629      	mov	r1, r5
 8008816:	4630      	mov	r0, r6
 8008818:	f7ff fdee 	bl	80083f8 <__swsetup_r>
 800881c:	b170      	cbz	r0, 800883c <_vfiprintf_r+0x5c>
 800881e:	6e6b      	ldr	r3, [r5, #100]	@ 0x64
 8008820:	07dc      	lsls	r4, r3, #31
 8008822:	d504      	bpl.n	800882e <_vfiprintf_r+0x4e>
 8008824:	f04f 30ff 	mov.w	r0, #4294967295
 8008828:	b01d      	add	sp, #116	@ 0x74
 800882a:	e8bd 8ff0 	ldmia.w	sp!, {r4, r5, r6, r7, r8, r9, sl, fp, pc}
 800882e:	89ab      	ldrh	r3, [r5, #12]
 8008830:	0598      	lsls	r0, r3, #22
 8008832:	d4f7      	bmi.n	8008824 <_vfiprintf_r+0x44>
 8008834:	6da8      	ldr	r0, [r5, #88]	@ 0x58
 8008836:	f7ff feaf 	bl	8008598 <__retarget_lock_release_recursive>
 800883a:	e7f3      	b.n	8008824 <_vfiprintf_r+0x44>
 800883c:	2300      	movs	r3, #0
 800883e:	9309      	str	r3, [sp, #36]	@ 0x24
 8008840:	2320      	movs	r3, #32
 8008842:	f88d 3029 	strb.w	r3, [sp, #41]	@ 0x29
 8008846:	f8cd 800c 	str.w	r8, [sp, #12]
 800884a:	2330      	movs	r3, #48	@ 0x30
 800884c:	f8df 81ac 	ldr.w	r8, [pc, #428]	@ 80089fc <_vfiprintf_r+0x21c>
 8008850:	f88d 302a 	strb.w	r3, [sp, #42]	@ 0x2a
 8008854:	f04f 0901 	mov.w	r9, #1
 8008858:	4623      	mov	r3, r4
 800885a:	469a      	mov	sl, r3
 800885c:	f813 2b01 	ldrb.w	r2, [r3], #1
 8008860:	b10a      	cbz	r2, 8008866 <_vfiprintf_r+0x86>
 8008862:	2a25      	cmp	r2, #37	@ 0x25
 8008864:	d1f9      	bne.n	800885a <_vfiprintf_r+0x7a>
 8008866:	ebba 0b04 	subs.w	fp, sl, r4
 800886a:	d00b      	beq.n	8008884 <_vfiprintf_r+0xa4>
 800886c:	465b      	mov	r3, fp
 800886e:	4622      	mov	r2, r4
 8008870:	4629      	mov	r1, r5
 8008872:	4630      	mov	r0, r6
 8008874:	f7ff ffa1 	bl	80087ba <__sfputs_r>
 8008878:	3001      	adds	r0, #1
 800887a:	f000 80a7 	beq.w	80089cc <_vfiprintf_r+0x1ec>
 800887e:	9a09      	ldr	r2, [sp, #36]	@ 0x24
 8008880:	445a      	add	r2, fp
 8008882:	9209      	str	r2, [sp, #36]	@ 0x24
 8008884:	f89a 3000 	ldrb.w	r3, [sl]
 8008888:	2b00      	cmp	r3, #0
 800888a:	f000 809f 	beq.w	80089cc <_vfiprintf_r+0x1ec>
 800888e:	2300      	movs	r3, #0
 8008890:	f04f 32ff 	mov.w	r2, #4294967295
 8008894:	e9cd 2305 	strd	r2, r3, [sp, #20]
 8008898:	f10a 0a01 	add.w	sl, sl, #1
 800889c:	9304      	str	r3, [sp, #16]
 800889e:	9307      	str	r3, [sp, #28]
 80088a0:	f88d 3053 	strb.w	r3, [sp, #83]	@ 0x53
 80088a4:	931a      	str	r3, [sp, #104]	@ 0x68
 80088a6:	4654      	mov	r4, sl
 80088a8:	2205      	movs	r2, #5
 80088aa:	f814 1b01 	ldrb.w	r1, [r4], #1
 80088ae:	4853      	ldr	r0, [pc, #332]	@ (80089fc <_vfiprintf_r+0x21c>)
 80088b0:	f7f7 fc9e 	bl	80001f0 <memchr>
 80088b4:	9a04      	ldr	r2, [sp, #16]
 80088b6:	b9d8      	cbnz	r0, 80088f0 <_vfiprintf_r+0x110>
 80088b8:	06d1      	lsls	r1, r2, #27
 80088ba:	bf44      	itt	mi
 80088bc:	2320      	movmi	r3, #32
 80088be:	f88d 3053 	strbmi.w	r3, [sp, #83]	@ 0x53
 80088c2:	0713      	lsls	r3, r2, #28
 80088c4:	bf44      	itt	mi
 80088c6:	232b      	movmi	r3, #43	@ 0x2b
 80088c8:	f88d 3053 	strbmi.w	r3, [sp, #83]	@ 0x53
 80088cc:	f89a 3000 	ldrb.w	r3, [sl]
 80088d0:	2b2a      	cmp	r3, #42	@ 0x2a
 80088d2:	d015      	beq.n	8008900 <_vfiprintf_r+0x120>
 80088d4:	9a07      	ldr	r2, [sp, #28]
 80088d6:	4654      	mov	r4, sl
 80088d8:	2000      	movs	r0, #0
 80088da:	f04f 0c0a 	mov.w	ip, #10
 80088de:	4621      	mov	r1, r4
 80088e0:	f811 3b01 	ldrb.w	r3, [r1], #1
 80088e4:	3b30      	subs	r3, #48	@ 0x30
 80088e6:	2b09      	cmp	r3, #9
 80088e8:	d94b      	bls.n	8008982 <_vfiprintf_r+0x1a2>
 80088ea:	b1b0      	cbz	r0, 800891a <_vfiprintf_r+0x13a>
 80088ec:	9207      	str	r2, [sp, #28]
 80088ee:	e014      	b.n	800891a <_vfiprintf_r+0x13a>
 80088f0:	eba0 0308 	sub.w	r3, r0, r8
 80088f4:	fa09 f303 	lsl.w	r3, r9, r3
 80088f8:	4313      	orrs	r3, r2
 80088fa:	9304      	str	r3, [sp, #16]
 80088fc:	46a2      	mov	sl, r4
 80088fe:	e7d2      	b.n	80088a6 <_vfiprintf_r+0xc6>
 8008900:	9b03      	ldr	r3, [sp, #12]
 8008902:	1d19      	adds	r1, r3, #4
 8008904:	681b      	ldr	r3, [r3, #0]
 8008906:	9103      	str	r1, [sp, #12]
 8008908:	2b00      	cmp	r3, #0
 800890a:	bfbb      	ittet	lt
 800890c:	425b      	neglt	r3, r3
 800890e:	f042 0202 	orrlt.w	r2, r2, #2
 8008912:	9307      	strge	r3, [sp, #28]
 8008914:	9307      	strlt	r3, [sp, #28]
 8008916:	bfb8      	it	lt
 8008918:	9204      	strlt	r2, [sp, #16]
 800891a:	7823      	ldrb	r3, [r4, #0]
 800891c:	2b2e      	cmp	r3, #46	@ 0x2e
 800891e:	d10a      	bne.n	8008936 <_vfiprintf_r+0x156>
 8008920:	7863      	ldrb	r3, [r4, #1]
 8008922:	2b2a      	cmp	r3, #42	@ 0x2a
 8008924:	d132      	bne.n	800898c <_vfiprintf_r+0x1ac>
 8008926:	9b03      	ldr	r3, [sp, #12]
 8008928:	1d1a      	adds	r2, r3, #4
 800892a:	681b      	ldr	r3, [r3, #0]
 800892c:	9203      	str	r2, [sp, #12]
 800892e:	ea43 73e3 	orr.w	r3, r3, r3, asr #31
 8008932:	3402      	adds	r4, #2
 8008934:	9305      	str	r3, [sp, #20]
 8008936:	f8df a0d4 	ldr.w	sl, [pc, #212]	@ 8008a0c <_vfiprintf_r+0x22c>
 800893a:	7821      	ldrb	r1, [r4, #0]
 800893c:	2203      	movs	r2, #3
 800893e:	4650      	mov	r0, sl
 8008940:	f7f7 fc56 	bl	80001f0 <memchr>
 8008944:	b138      	cbz	r0, 8008956 <_vfiprintf_r+0x176>
 8008946:	9b04      	ldr	r3, [sp, #16]
 8008948:	eba0 000a 	sub.w	r0, r0, sl
 800894c:	2240      	movs	r2, #64	@ 0x40
 800894e:	4082      	lsls	r2, r0
 8008950:	4313      	orrs	r3, r2
 8008952:	3401      	adds	r4, #1
 8008954:	9304      	str	r3, [sp, #16]
 8008956:	f814 1b01 	ldrb.w	r1, [r4], #1
 800895a:	4829      	ldr	r0, [pc, #164]	@ (8008a00 <_vfiprintf_r+0x220>)
 800895c:	f88d 1028 	strb.w	r1, [sp, #40]	@ 0x28
 8008960:	2206      	movs	r2, #6
 8008962:	f7f7 fc45 	bl	80001f0 <memchr>
 8008966:	2800      	cmp	r0, #0
 8008968:	d03f      	beq.n	80089ea <_vfiprintf_r+0x20a>
 800896a:	4b26      	ldr	r3, [pc, #152]	@ (8008a04 <_vfiprintf_r+0x224>)
 800896c:	bb1b      	cbnz	r3, 80089b6 <_vfiprintf_r+0x1d6>
 800896e:	9b03      	ldr	r3, [sp, #12]
 8008970:	3307      	adds	r3, #7
 8008972:	f023 0307 	bic.w	r3, r3, #7
 8008976:	3308      	adds	r3, #8
 8008978:	9303      	str	r3, [sp, #12]
 800897a:	9b09      	ldr	r3, [sp, #36]	@ 0x24
 800897c:	443b      	add	r3, r7
 800897e:	9309      	str	r3, [sp, #36]	@ 0x24
 8008980:	e76a      	b.n	8008858 <_vfiprintf_r+0x78>
 8008982:	fb0c 3202 	mla	r2, ip, r2, r3
 8008986:	460c      	mov	r4, r1
 8008988:	2001      	movs	r0, #1
 800898a:	e7a8      	b.n	80088de <_vfiprintf_r+0xfe>
 800898c:	2300      	movs	r3, #0
 800898e:	3401      	adds	r4, #1
 8008990:	9305      	str	r3, [sp, #20]
 8008992:	4619      	mov	r1, r3
 8008994:	f04f 0c0a 	mov.w	ip, #10
 8008998:	4620      	mov	r0, r4
 800899a:	f810 2b01 	ldrb.w	r2, [r0], #1
 800899e:	3a30      	subs	r2, #48	@ 0x30
 80089a0:	2a09      	cmp	r2, #9
 80089a2:	d903      	bls.n	80089ac <_vfiprintf_r+0x1cc>
 80089a4:	2b00      	cmp	r3, #0
 80089a6:	d0c6      	beq.n	8008936 <_vfiprintf_r+0x156>
 80089a8:	9105      	str	r1, [sp, #20]
 80089aa:	e7c4      	b.n	8008936 <_vfiprintf_r+0x156>
 80089ac:	fb0c 2101 	mla	r1, ip, r1, r2
 80089b0:	4604      	mov	r4, r0
 80089b2:	2301      	movs	r3, #1
 80089b4:	e7f0      	b.n	8008998 <_vfiprintf_r+0x1b8>
 80089b6:	ab03      	add	r3, sp, #12
 80089b8:	9300      	str	r3, [sp, #0]
 80089ba:	462a      	mov	r2, r5
 80089bc:	4b12      	ldr	r3, [pc, #72]	@ (8008a08 <_vfiprintf_r+0x228>)
 80089be:	a904      	add	r1, sp, #16
 80089c0:	4630      	mov	r0, r6
 80089c2:	f3af 8000 	nop.w
 80089c6:	4607      	mov	r7, r0
 80089c8:	1c78      	adds	r0, r7, #1
 80089ca:	d1d6      	bne.n	800897a <_vfiprintf_r+0x19a>
 80089cc:	6e6b      	ldr	r3, [r5, #100]	@ 0x64
 80089ce:	07d9      	lsls	r1, r3, #31
 80089d0:	d405      	bmi.n	80089de <_vfiprintf_r+0x1fe>
 80089d2:	89ab      	ldrh	r3, [r5, #12]
 80089d4:	059a      	lsls	r2, r3, #22
 80089d6:	d402      	bmi.n	80089de <_vfiprintf_r+0x1fe>
 80089d8:	6da8      	ldr	r0, [r5, #88]	@ 0x58
 80089da:	f7ff fddd 	bl	8008598 <__retarget_lock_release_recursive>
 80089de:	89ab      	ldrh	r3, [r5, #12]
 80089e0:	065b      	lsls	r3, r3, #25
 80089e2:	f53f af1f 	bmi.w	8008824 <_vfiprintf_r+0x44>
 80089e6:	9809      	ldr	r0, [sp, #36]	@ 0x24
 80089e8:	e71e      	b.n	8008828 <_vfiprintf_r+0x48>
 80089ea:	ab03      	add	r3, sp, #12
 80089ec:	9300      	str	r3, [sp, #0]
 80089ee:	462a      	mov	r2, r5
 80089f0:	4b05      	ldr	r3, [pc, #20]	@ (8008a08 <_vfiprintf_r+0x228>)
 80089f2:	a904      	add	r1, sp, #16
 80089f4:	4630      	mov	r0, r6
 80089f6:	f000 f879 	bl	8008aec <_printf_i>
 80089fa:	e7e4      	b.n	80089c6 <_vfiprintf_r+0x1e6>
 80089fc:	0800a8f0 	.word	0x0800a8f0
 8008a00:	0800a8fa 	.word	0x0800a8fa
 8008a04:	00000000 	.word	0x00000000
 8008a08:	080087bb 	.word	0x080087bb
 8008a0c:	0800a8f6 	.word	0x0800a8f6

08008a10 <_printf_common>:
 8008a10:	e92d 47f0 	stmdb	sp!, {r4, r5, r6, r7, r8, r9, sl, lr}
 8008a14:	4616      	mov	r6, r2
 8008a16:	4698      	mov	r8, r3
 8008a18:	688a      	ldr	r2, [r1, #8]
 8008a1a:	690b      	ldr	r3, [r1, #16]
 8008a1c:	f8dd 9020 	ldr.w	r9, [sp, #32]
 8008a20:	4293      	cmp	r3, r2
 8008a22:	bfb8      	it	lt
 8008a24:	4613      	movlt	r3, r2
 8008a26:	6033      	str	r3, [r6, #0]
 8008a28:	f891 2043 	ldrb.w	r2, [r1, #67]	@ 0x43
 8008a2c:	4607      	mov	r7, r0
 8008a2e:	460c      	mov	r4, r1
 8008a30:	b10a      	cbz	r2, 8008a36 <_printf_common+0x26>
 8008a32:	3301      	adds	r3, #1
 8008a34:	6033      	str	r3, [r6, #0]
 8008a36:	6823      	ldr	r3, [r4, #0]
 8008a38:	0699      	lsls	r1, r3, #26
 8008a3a:	bf42      	ittt	mi
 8008a3c:	6833      	ldrmi	r3, [r6, #0]
 8008a3e:	3302      	addmi	r3, #2
 8008a40:	6033      	strmi	r3, [r6, #0]
 8008a42:	6825      	ldr	r5, [r4, #0]
 8008a44:	f015 0506 	ands.w	r5, r5, #6
 8008a48:	d106      	bne.n	8008a58 <_printf_common+0x48>
 8008a4a:	f104 0a19 	add.w	sl, r4, #25
 8008a4e:	68e3      	ldr	r3, [r4, #12]
 8008a50:	6832      	ldr	r2, [r6, #0]
 8008a52:	1a9b      	subs	r3, r3, r2
 8008a54:	42ab      	cmp	r3, r5
 8008a56:	dc26      	bgt.n	8008aa6 <_printf_common+0x96>
 8008a58:	f894 3043 	ldrb.w	r3, [r4, #67]	@ 0x43
 8008a5c:	6822      	ldr	r2, [r4, #0]
 8008a5e:	3b00      	subs	r3, #0
 8008a60:	bf18      	it	ne
 8008a62:	2301      	movne	r3, #1
 8008a64:	0692      	lsls	r2, r2, #26
 8008a66:	d42b      	bmi.n	8008ac0 <_printf_common+0xb0>
 8008a68:	f104 0243 	add.w	r2, r4, #67	@ 0x43
 8008a6c:	4641      	mov	r1, r8
 8008a6e:	4638      	mov	r0, r7
 8008a70:	47c8      	blx	r9
 8008a72:	3001      	adds	r0, #1
 8008a74:	d01e      	beq.n	8008ab4 <_printf_common+0xa4>
 8008a76:	6823      	ldr	r3, [r4, #0]
 8008a78:	6922      	ldr	r2, [r4, #16]
 8008a7a:	f003 0306 	and.w	r3, r3, #6
 8008a7e:	2b04      	cmp	r3, #4
 8008a80:	bf02      	ittt	eq
 8008a82:	68e5      	ldreq	r5, [r4, #12]
 8008a84:	6833      	ldreq	r3, [r6, #0]
 8008a86:	1aed      	subeq	r5, r5, r3
 8008a88:	68a3      	ldr	r3, [r4, #8]
 8008a8a:	bf0c      	ite	eq
 8008a8c:	ea25 75e5 	biceq.w	r5, r5, r5, asr #31
 8008a90:	2500      	movne	r5, #0
 8008a92:	4293      	cmp	r3, r2
 8008a94:	bfc4      	itt	gt
 8008a96:	1a9b      	subgt	r3, r3, r2
 8008a98:	18ed      	addgt	r5, r5, r3
 8008a9a:	2600      	movs	r6, #0
 8008a9c:	341a      	adds	r4, #26
 8008a9e:	42b5      	cmp	r5, r6
 8008aa0:	d11a      	bne.n	8008ad8 <_printf_common+0xc8>
 8008aa2:	2000      	movs	r0, #0
 8008aa4:	e008      	b.n	8008ab8 <_printf_common+0xa8>
 8008aa6:	2301      	movs	r3, #1
 8008aa8:	4652      	mov	r2, sl
 8008aaa:	4641      	mov	r1, r8
 8008aac:	4638      	mov	r0, r7
 8008aae:	47c8      	blx	r9
 8008ab0:	3001      	adds	r0, #1
 8008ab2:	d103      	bne.n	8008abc <_printf_common+0xac>
 8008ab4:	f04f 30ff 	mov.w	r0, #4294967295
 8008ab8:	e8bd 87f0 	ldmia.w	sp!, {r4, r5, r6, r7, r8, r9, sl, pc}
 8008abc:	3501      	adds	r5, #1
 8008abe:	e7c6      	b.n	8008a4e <_printf_common+0x3e>
 8008ac0:	18e1      	adds	r1, r4, r3
 8008ac2:	1c5a      	adds	r2, r3, #1
 8008ac4:	2030      	movs	r0, #48	@ 0x30
 8008ac6:	f881 0043 	strb.w	r0, [r1, #67]	@ 0x43
 8008aca:	4422      	add	r2, r4
 8008acc:	f894 1045 	ldrb.w	r1, [r4, #69]	@ 0x45
 8008ad0:	f882 1043 	strb.w	r1, [r2, #67]	@ 0x43
 8008ad4:	3302      	adds	r3, #2
 8008ad6:	e7c7      	b.n	8008a68 <_printf_common+0x58>
 8008ad8:	2301      	movs	r3, #1
 8008ada:	4622      	mov	r2, r4
 8008adc:	4641      	mov	r1, r8
 8008ade:	4638      	mov	r0, r7
 8008ae0:	47c8      	blx	r9
 8008ae2:	3001      	adds	r0, #1
 8008ae4:	d0e6      	beq.n	8008ab4 <_printf_common+0xa4>
 8008ae6:	3601      	adds	r6, #1
 8008ae8:	e7d9      	b.n	8008a9e <_printf_common+0x8e>
	...

08008aec <_printf_i>:
 8008aec:	e92d 47ff 	stmdb	sp!, {r0, r1, r2, r3, r4, r5, r6, r7, r8, r9, sl, lr}
 8008af0:	7e0f      	ldrb	r7, [r1, #24]
 8008af2:	9e0c      	ldr	r6, [sp, #48]	@ 0x30
 8008af4:	2f78      	cmp	r7, #120	@ 0x78
 8008af6:	4691      	mov	r9, r2
 8008af8:	4680      	mov	r8, r0
 8008afa:	460c      	mov	r4, r1
 8008afc:	469a      	mov	sl, r3
 8008afe:	f101 0243 	add.w	r2, r1, #67	@ 0x43
 8008b02:	d807      	bhi.n	8008b14 <_printf_i+0x28>
 8008b04:	2f62      	cmp	r7, #98	@ 0x62
 8008b06:	d80a      	bhi.n	8008b1e <_printf_i+0x32>
 8008b08:	2f00      	cmp	r7, #0
 8008b0a:	f000 80d1 	beq.w	8008cb0 <_printf_i+0x1c4>
 8008b0e:	2f58      	cmp	r7, #88	@ 0x58
 8008b10:	f000 80b8 	beq.w	8008c84 <_printf_i+0x198>
 8008b14:	f104 0642 	add.w	r6, r4, #66	@ 0x42
 8008b18:	f884 7042 	strb.w	r7, [r4, #66]	@ 0x42
 8008b1c:	e03a      	b.n	8008b94 <_printf_i+0xa8>
 8008b1e:	f1a7 0363 	sub.w	r3, r7, #99	@ 0x63
 8008b22:	2b15      	cmp	r3, #21
 8008b24:	d8f6      	bhi.n	8008b14 <_printf_i+0x28>
 8008b26:	a101      	add	r1, pc, #4	@ (adr r1, 8008b2c <_printf_i+0x40>)
 8008b28:	f851 f023 	ldr.w	pc, [r1, r3, lsl #2]
 8008b2c:	08008b85 	.word	0x08008b85
 8008b30:	08008b99 	.word	0x08008b99
 8008b34:	08008b15 	.word	0x08008b15
 8008b38:	08008b15 	.word	0x08008b15
 8008b3c:	08008b15 	.word	0x08008b15
 8008b40:	08008b15 	.word	0x08008b15
 8008b44:	08008b99 	.word	0x08008b99
 8008b48:	08008b15 	.word	0x08008b15
 8008b4c:	08008b15 	.word	0x08008b15
 8008b50:	08008b15 	.word	0x08008b15
 8008b54:	08008b15 	.word	0x08008b15
 8008b58:	08008c97 	.word	0x08008c97
 8008b5c:	08008bc3 	.word	0x08008bc3
 8008b60:	08008c51 	.word	0x08008c51
 8008b64:	08008b15 	.word	0x08008b15
 8008b68:	08008b15 	.word	0x08008b15
 8008b6c:	08008cb9 	.word	0x08008cb9
 8008b70:	08008b15 	.word	0x08008b15
 8008b74:	08008bc3 	.word	0x08008bc3
 8008b78:	08008b15 	.word	0x08008b15
 8008b7c:	08008b15 	.word	0x08008b15
 8008b80:	08008c59 	.word	0x08008c59
 8008b84:	6833      	ldr	r3, [r6, #0]
 8008b86:	1d1a      	adds	r2, r3, #4
 8008b88:	681b      	ldr	r3, [r3, #0]
 8008b8a:	6032      	str	r2, [r6, #0]
 8008b8c:	f104 0642 	add.w	r6, r4, #66	@ 0x42
 8008b90:	f884 3042 	strb.w	r3, [r4, #66]	@ 0x42
 8008b94:	2301      	movs	r3, #1
 8008b96:	e09c      	b.n	8008cd2 <_printf_i+0x1e6>
 8008b98:	6833      	ldr	r3, [r6, #0]
 8008b9a:	6820      	ldr	r0, [r4, #0]
 8008b9c:	1d19      	adds	r1, r3, #4
 8008b9e:	6031      	str	r1, [r6, #0]
 8008ba0:	0606      	lsls	r6, r0, #24
 8008ba2:	d501      	bpl.n	8008ba8 <_printf_i+0xbc>
 8008ba4:	681d      	ldr	r5, [r3, #0]
 8008ba6:	e003      	b.n	8008bb0 <_printf_i+0xc4>
 8008ba8:	0645      	lsls	r5, r0, #25
 8008baa:	d5fb      	bpl.n	8008ba4 <_printf_i+0xb8>
 8008bac:	f9b3 5000 	ldrsh.w	r5, [r3]
 8008bb0:	2d00      	cmp	r5, #0
 8008bb2:	da03      	bge.n	8008bbc <_printf_i+0xd0>
 8008bb4:	232d      	movs	r3, #45	@ 0x2d
 8008bb6:	426d      	negs	r5, r5
 8008bb8:	f884 3043 	strb.w	r3, [r4, #67]	@ 0x43
 8008bbc:	4858      	ldr	r0, [pc, #352]	@ (8008d20 <_printf_i+0x234>)
 8008bbe:	230a      	movs	r3, #10
 8008bc0:	e011      	b.n	8008be6 <_printf_i+0xfa>
 8008bc2:	6821      	ldr	r1, [r4, #0]
 8008bc4:	6833      	ldr	r3, [r6, #0]
 8008bc6:	0608      	lsls	r0, r1, #24
 8008bc8:	f853 5b04 	ldr.w	r5, [r3], #4
 8008bcc:	d402      	bmi.n	8008bd4 <_printf_i+0xe8>
 8008bce:	0649      	lsls	r1, r1, #25
 8008bd0:	bf48      	it	mi
 8008bd2:	b2ad      	uxthmi	r5, r5
 8008bd4:	2f6f      	cmp	r7, #111	@ 0x6f
 8008bd6:	4852      	ldr	r0, [pc, #328]	@ (8008d20 <_printf_i+0x234>)
 8008bd8:	6033      	str	r3, [r6, #0]
 8008bda:	bf14      	ite	ne
 8008bdc:	230a      	movne	r3, #10
 8008bde:	2308      	moveq	r3, #8
 8008be0:	2100      	movs	r1, #0
 8008be2:	f884 1043 	strb.w	r1, [r4, #67]	@ 0x43
 8008be6:	6866      	ldr	r6, [r4, #4]
 8008be8:	60a6      	str	r6, [r4, #8]
 8008bea:	2e00      	cmp	r6, #0
 8008bec:	db05      	blt.n	8008bfa <_printf_i+0x10e>
 8008bee:	6821      	ldr	r1, [r4, #0]
 8008bf0:	432e      	orrs	r6, r5
 8008bf2:	f021 0104 	bic.w	r1, r1, #4
 8008bf6:	6021      	str	r1, [r4, #0]
 8008bf8:	d04b      	beq.n	8008c92 <_printf_i+0x1a6>
 8008bfa:	4616      	mov	r6, r2
 8008bfc:	fbb5 f1f3 	udiv	r1, r5, r3
 8008c00:	fb03 5711 	mls	r7, r3, r1, r5
 8008c04:	5dc7      	ldrb	r7, [r0, r7]
 8008c06:	f806 7d01 	strb.w	r7, [r6, #-1]!
 8008c0a:	462f      	mov	r7, r5
 8008c0c:	42bb      	cmp	r3, r7
 8008c0e:	460d      	mov	r5, r1
 8008c10:	d9f4      	bls.n	8008bfc <_printf_i+0x110>
 8008c12:	2b08      	cmp	r3, #8
 8008c14:	d10b      	bne.n	8008c2e <_printf_i+0x142>
 8008c16:	6823      	ldr	r3, [r4, #0]
 8008c18:	07df      	lsls	r7, r3, #31
 8008c1a:	d508      	bpl.n	8008c2e <_printf_i+0x142>
 8008c1c:	6923      	ldr	r3, [r4, #16]
 8008c1e:	6861      	ldr	r1, [r4, #4]
 8008c20:	4299      	cmp	r1, r3
 8008c22:	bfde      	ittt	le
 8008c24:	2330      	movle	r3, #48	@ 0x30
 8008c26:	f806 3c01 	strble.w	r3, [r6, #-1]
 8008c2a:	f106 36ff 	addle.w	r6, r6, #4294967295
 8008c2e:	1b92      	subs	r2, r2, r6
 8008c30:	6122      	str	r2, [r4, #16]
 8008c32:	f8cd a000 	str.w	sl, [sp]
 8008c36:	464b      	mov	r3, r9
 8008c38:	aa03      	add	r2, sp, #12
 8008c3a:	4621      	mov	r1, r4
 8008c3c:	4640      	mov	r0, r8
 8008c3e:	f7ff fee7 	bl	8008a10 <_printf_common>
 8008c42:	3001      	adds	r0, #1
 8008c44:	d14a      	bne.n	8008cdc <_printf_i+0x1f0>
 8008c46:	f04f 30ff 	mov.w	r0, #4294967295
 8008c4a:	b004      	add	sp, #16
 8008c4c:	e8bd 87f0 	ldmia.w	sp!, {r4, r5, r6, r7, r8, r9, sl, pc}
 8008c50:	6823      	ldr	r3, [r4, #0]
 8008c52:	f043 0320 	orr.w	r3, r3, #32
 8008c56:	6023      	str	r3, [r4, #0]
 8008c58:	4832      	ldr	r0, [pc, #200]	@ (8008d24 <_printf_i+0x238>)
 8008c5a:	2778      	movs	r7, #120	@ 0x78
 8008c5c:	f884 7045 	strb.w	r7, [r4, #69]	@ 0x45
 8008c60:	6823      	ldr	r3, [r4, #0]
 8008c62:	6831      	ldr	r1, [r6, #0]
 8008c64:	061f      	lsls	r7, r3, #24
 8008c66:	f851 5b04 	ldr.w	r5, [r1], #4
 8008c6a:	d402      	bmi.n	8008c72 <_printf_i+0x186>
 8008c6c:	065f      	lsls	r7, r3, #25
 8008c6e:	bf48      	it	mi
 8008c70:	b2ad      	uxthmi	r5, r5
 8008c72:	6031      	str	r1, [r6, #0]
 8008c74:	07d9      	lsls	r1, r3, #31
 8008c76:	bf44      	itt	mi
 8008c78:	f043 0320 	orrmi.w	r3, r3, #32
 8008c7c:	6023      	strmi	r3, [r4, #0]
 8008c7e:	b11d      	cbz	r5, 8008c88 <_printf_i+0x19c>
 8008c80:	2310      	movs	r3, #16
 8008c82:	e7ad      	b.n	8008be0 <_printf_i+0xf4>
 8008c84:	4826      	ldr	r0, [pc, #152]	@ (8008d20 <_printf_i+0x234>)
 8008c86:	e7e9      	b.n	8008c5c <_printf_i+0x170>
 8008c88:	6823      	ldr	r3, [r4, #0]
 8008c8a:	f023 0320 	bic.w	r3, r3, #32
 8008c8e:	6023      	str	r3, [r4, #0]
 8008c90:	e7f6      	b.n	8008c80 <_printf_i+0x194>
 8008c92:	4616      	mov	r6, r2
 8008c94:	e7bd      	b.n	8008c12 <_printf_i+0x126>
 8008c96:	6833      	ldr	r3, [r6, #0]
 8008c98:	6825      	ldr	r5, [r4, #0]
 8008c9a:	6961      	ldr	r1, [r4, #20]
 8008c9c:	1d18      	adds	r0, r3, #4
 8008c9e:	6030      	str	r0, [r6, #0]
 8008ca0:	062e      	lsls	r6, r5, #24
 8008ca2:	681b      	ldr	r3, [r3, #0]
 8008ca4:	d501      	bpl.n	8008caa <_printf_i+0x1be>
 8008ca6:	6019      	str	r1, [r3, #0]
 8008ca8:	e002      	b.n	8008cb0 <_printf_i+0x1c4>
 8008caa:	0668      	lsls	r0, r5, #25
 8008cac:	d5fb      	bpl.n	8008ca6 <_printf_i+0x1ba>
 8008cae:	8019      	strh	r1, [r3, #0]
 8008cb0:	2300      	movs	r3, #0
 8008cb2:	6123      	str	r3, [r4, #16]
 8008cb4:	4616      	mov	r6, r2
 8008cb6:	e7bc      	b.n	8008c32 <_printf_i+0x146>
 8008cb8:	6833      	ldr	r3, [r6, #0]
 8008cba:	1d1a      	adds	r2, r3, #4
 8008cbc:	6032      	str	r2, [r6, #0]
 8008cbe:	681e      	ldr	r6, [r3, #0]
 8008cc0:	6862      	ldr	r2, [r4, #4]
 8008cc2:	2100      	movs	r1, #0
 8008cc4:	4630      	mov	r0, r6
 8008cc6:	f7f7 fa93 	bl	80001f0 <memchr>
 8008cca:	b108      	cbz	r0, 8008cd0 <_printf_i+0x1e4>
 8008ccc:	1b80      	subs	r0, r0, r6
 8008cce:	6060      	str	r0, [r4, #4]
 8008cd0:	6863      	ldr	r3, [r4, #4]
 8008cd2:	6123      	str	r3, [r4, #16]
 8008cd4:	2300      	movs	r3, #0
 8008cd6:	f884 3043 	strb.w	r3, [r4, #67]	@ 0x43
 8008cda:	e7aa      	b.n	8008c32 <_printf_i+0x146>
 8008cdc:	6923      	ldr	r3, [r4, #16]
 8008cde:	4632      	mov	r2, r6
 8008ce0:	4649      	mov	r1, r9
 8008ce2:	4640      	mov	r0, r8
 8008ce4:	47d0      	blx	sl
 8008ce6:	3001      	adds	r0, #1
 8008ce8:	d0ad      	beq.n	8008c46 <_printf_i+0x15a>
 8008cea:	6823      	ldr	r3, [r4, #0]
 8008cec:	079b      	lsls	r3, r3, #30
 8008cee:	d413      	bmi.n	8008d18 <_printf_i+0x22c>
 8008cf0:	68e0      	ldr	r0, [r4, #12]
 8008cf2:	9b03      	ldr	r3, [sp, #12]
 8008cf4:	4298      	cmp	r0, r3
 8008cf6:	bfb8      	it	lt
 8008cf8:	4618      	movlt	r0, r3
 8008cfa:	e7a6      	b.n	8008c4a <_printf_i+0x15e>
 8008cfc:	2301      	movs	r3, #1
 8008cfe:	4632      	mov	r2, r6
 8008d00:	4649      	mov	r1, r9
 8008d02:	4640      	mov	r0, r8
 8008d04:	47d0      	blx	sl
 8008d06:	3001      	adds	r0, #1
 8008d08:	d09d      	beq.n	8008c46 <_printf_i+0x15a>
 8008d0a:	3501      	adds	r5, #1
 8008d0c:	68e3      	ldr	r3, [r4, #12]
 8008d0e:	9903      	ldr	r1, [sp, #12]
 8008d10:	1a5b      	subs	r3, r3, r1
 8008d12:	42ab      	cmp	r3, r5
 8008d14:	dcf2      	bgt.n	8008cfc <_printf_i+0x210>
 8008d16:	e7eb      	b.n	8008cf0 <_printf_i+0x204>
 8008d18:	2500      	movs	r5, #0
 8008d1a:	f104 0619 	add.w	r6, r4, #25
 8008d1e:	e7f5      	b.n	8008d0c <_printf_i+0x220>
 8008d20:	0800a901 	.word	0x0800a901
 8008d24:	0800a912 	.word	0x0800a912

08008d28 <__sflush_r>:
 8008d28:	f9b1 200c 	ldrsh.w	r2, [r1, #12]
 8008d2c:	e92d 41f0 	stmdb	sp!, {r4, r5, r6, r7, r8, lr}
 8008d30:	0716      	lsls	r6, r2, #28
 8008d32:	4605      	mov	r5, r0
 8008d34:	460c      	mov	r4, r1
 8008d36:	d454      	bmi.n	8008de2 <__sflush_r+0xba>
 8008d38:	684b      	ldr	r3, [r1, #4]
 8008d3a:	2b00      	cmp	r3, #0
 8008d3c:	dc02      	bgt.n	8008d44 <__sflush_r+0x1c>
 8008d3e:	6c0b      	ldr	r3, [r1, #64]	@ 0x40
 8008d40:	2b00      	cmp	r3, #0
 8008d42:	dd48      	ble.n	8008dd6 <__sflush_r+0xae>
 8008d44:	6ae6      	ldr	r6, [r4, #44]	@ 0x2c
 8008d46:	2e00      	cmp	r6, #0
 8008d48:	d045      	beq.n	8008dd6 <__sflush_r+0xae>
 8008d4a:	2300      	movs	r3, #0
 8008d4c:	f412 5280 	ands.w	r2, r2, #4096	@ 0x1000
 8008d50:	682f      	ldr	r7, [r5, #0]
 8008d52:	6a21      	ldr	r1, [r4, #32]
 8008d54:	602b      	str	r3, [r5, #0]
 8008d56:	d030      	beq.n	8008dba <__sflush_r+0x92>
 8008d58:	6d62      	ldr	r2, [r4, #84]	@ 0x54
 8008d5a:	89a3      	ldrh	r3, [r4, #12]
 8008d5c:	0759      	lsls	r1, r3, #29
 8008d5e:	d505      	bpl.n	8008d6c <__sflush_r+0x44>
 8008d60:	6863      	ldr	r3, [r4, #4]
 8008d62:	1ad2      	subs	r2, r2, r3
 8008d64:	6b63      	ldr	r3, [r4, #52]	@ 0x34
 8008d66:	b10b      	cbz	r3, 8008d6c <__sflush_r+0x44>
 8008d68:	6c23      	ldr	r3, [r4, #64]	@ 0x40
 8008d6a:	1ad2      	subs	r2, r2, r3
 8008d6c:	2300      	movs	r3, #0
 8008d6e:	6ae6      	ldr	r6, [r4, #44]	@ 0x2c
 8008d70:	6a21      	ldr	r1, [r4, #32]
 8008d72:	4628      	mov	r0, r5
 8008d74:	47b0      	blx	r6
 8008d76:	1c43      	adds	r3, r0, #1
 8008d78:	89a3      	ldrh	r3, [r4, #12]
 8008d7a:	d106      	bne.n	8008d8a <__sflush_r+0x62>
 8008d7c:	6829      	ldr	r1, [r5, #0]
 8008d7e:	291d      	cmp	r1, #29
 8008d80:	d82b      	bhi.n	8008dda <__sflush_r+0xb2>
 8008d82:	4a2a      	ldr	r2, [pc, #168]	@ (8008e2c <__sflush_r+0x104>)
 8008d84:	40ca      	lsrs	r2, r1
 8008d86:	07d6      	lsls	r6, r2, #31
 8008d88:	d527      	bpl.n	8008dda <__sflush_r+0xb2>
 8008d8a:	2200      	movs	r2, #0
 8008d8c:	6062      	str	r2, [r4, #4]
 8008d8e:	04d9      	lsls	r1, r3, #19
 8008d90:	6922      	ldr	r2, [r4, #16]
 8008d92:	6022      	str	r2, [r4, #0]
 8008d94:	d504      	bpl.n	8008da0 <__sflush_r+0x78>
 8008d96:	1c42      	adds	r2, r0, #1
 8008d98:	d101      	bne.n	8008d9e <__sflush_r+0x76>
 8008d9a:	682b      	ldr	r3, [r5, #0]
 8008d9c:	b903      	cbnz	r3, 8008da0 <__sflush_r+0x78>
 8008d9e:	6560      	str	r0, [r4, #84]	@ 0x54
 8008da0:	6b61      	ldr	r1, [r4, #52]	@ 0x34
 8008da2:	602f      	str	r7, [r5, #0]
 8008da4:	b1b9      	cbz	r1, 8008dd6 <__sflush_r+0xae>
 8008da6:	f104 0344 	add.w	r3, r4, #68	@ 0x44
 8008daa:	4299      	cmp	r1, r3
 8008dac:	d002      	beq.n	8008db4 <__sflush_r+0x8c>
 8008dae:	4628      	mov	r0, r5
 8008db0:	f7ff fbf4 	bl	800859c <_free_r>
 8008db4:	2300      	movs	r3, #0
 8008db6:	6363      	str	r3, [r4, #52]	@ 0x34
 8008db8:	e00d      	b.n	8008dd6 <__sflush_r+0xae>
 8008dba:	2301      	movs	r3, #1
 8008dbc:	4628      	mov	r0, r5
 8008dbe:	47b0      	blx	r6
 8008dc0:	4602      	mov	r2, r0
 8008dc2:	1c50      	adds	r0, r2, #1
 8008dc4:	d1c9      	bne.n	8008d5a <__sflush_r+0x32>
 8008dc6:	682b      	ldr	r3, [r5, #0]
 8008dc8:	2b00      	cmp	r3, #0
 8008dca:	d0c6      	beq.n	8008d5a <__sflush_r+0x32>
 8008dcc:	2b1d      	cmp	r3, #29
 8008dce:	d001      	beq.n	8008dd4 <__sflush_r+0xac>
 8008dd0:	2b16      	cmp	r3, #22
 8008dd2:	d11e      	bne.n	8008e12 <__sflush_r+0xea>
 8008dd4:	602f      	str	r7, [r5, #0]
 8008dd6:	2000      	movs	r0, #0
 8008dd8:	e022      	b.n	8008e20 <__sflush_r+0xf8>
 8008dda:	f043 0340 	orr.w	r3, r3, #64	@ 0x40
 8008dde:	b21b      	sxth	r3, r3
 8008de0:	e01b      	b.n	8008e1a <__sflush_r+0xf2>
 8008de2:	690f      	ldr	r7, [r1, #16]
 8008de4:	2f00      	cmp	r7, #0
 8008de6:	d0f6      	beq.n	8008dd6 <__sflush_r+0xae>
 8008de8:	0793      	lsls	r3, r2, #30
 8008dea:	680e      	ldr	r6, [r1, #0]
 8008dec:	bf08      	it	eq
 8008dee:	694b      	ldreq	r3, [r1, #20]
 8008df0:	600f      	str	r7, [r1, #0]
 8008df2:	bf18      	it	ne
 8008df4:	2300      	movne	r3, #0
 8008df6:	eba6 0807 	sub.w	r8, r6, r7
 8008dfa:	608b      	str	r3, [r1, #8]
 8008dfc:	f1b8 0f00 	cmp.w	r8, #0
 8008e00:	dde9      	ble.n	8008dd6 <__sflush_r+0xae>
 8008e02:	6a21      	ldr	r1, [r4, #32]
 8008e04:	6aa6      	ldr	r6, [r4, #40]	@ 0x28
 8008e06:	4643      	mov	r3, r8
 8008e08:	463a      	mov	r2, r7
 8008e0a:	4628      	mov	r0, r5
 8008e0c:	47b0      	blx	r6
 8008e0e:	2800      	cmp	r0, #0
 8008e10:	dc08      	bgt.n	8008e24 <__sflush_r+0xfc>
 8008e12:	f9b4 300c 	ldrsh.w	r3, [r4, #12]
 8008e16:	f043 0340 	orr.w	r3, r3, #64	@ 0x40
 8008e1a:	81a3      	strh	r3, [r4, #12]
 8008e1c:	f04f 30ff 	mov.w	r0, #4294967295
 8008e20:	e8bd 81f0 	ldmia.w	sp!, {r4, r5, r6, r7, r8, pc}
 8008e24:	4407      	add	r7, r0
 8008e26:	eba8 0800 	sub.w	r8, r8, r0
 8008e2a:	e7e7      	b.n	8008dfc <__sflush_r+0xd4>
 8008e2c:	20400001 	.word	0x20400001

08008e30 <_fflush_r>:
 8008e30:	b538      	push	{r3, r4, r5, lr}
 8008e32:	690b      	ldr	r3, [r1, #16]
 8008e34:	4605      	mov	r5, r0
 8008e36:	460c      	mov	r4, r1
 8008e38:	b913      	cbnz	r3, 8008e40 <_fflush_r+0x10>
 8008e3a:	2500      	movs	r5, #0
 8008e3c:	4628      	mov	r0, r5
 8008e3e:	bd38      	pop	{r3, r4, r5, pc}
 8008e40:	b118      	cbz	r0, 8008e4a <_fflush_r+0x1a>
 8008e42:	6a03      	ldr	r3, [r0, #32]
 8008e44:	b90b      	cbnz	r3, 8008e4a <_fflush_r+0x1a>
 8008e46:	f7ff f9af 	bl	80081a8 <__sinit>
 8008e4a:	f9b4 300c 	ldrsh.w	r3, [r4, #12]
 8008e4e:	2b00      	cmp	r3, #0
 8008e50:	d0f3      	beq.n	8008e3a <_fflush_r+0xa>
 8008e52:	6e62      	ldr	r2, [r4, #100]	@ 0x64
 8008e54:	07d0      	lsls	r0, r2, #31
 8008e56:	d404      	bmi.n	8008e62 <_fflush_r+0x32>
 8008e58:	0599      	lsls	r1, r3, #22
 8008e5a:	d402      	bmi.n	8008e62 <_fflush_r+0x32>
 8008e5c:	6da0      	ldr	r0, [r4, #88]	@ 0x58
 8008e5e:	f7ff fb9a 	bl	8008596 <__retarget_lock_acquire_recursive>
 8008e62:	4628      	mov	r0, r5
 8008e64:	4621      	mov	r1, r4
 8008e66:	f7ff ff5f 	bl	8008d28 <__sflush_r>
 8008e6a:	6e63      	ldr	r3, [r4, #100]	@ 0x64
 8008e6c:	07da      	lsls	r2, r3, #31
 8008e6e:	4605      	mov	r5, r0
 8008e70:	d4e4      	bmi.n	8008e3c <_fflush_r+0xc>
 8008e72:	89a3      	ldrh	r3, [r4, #12]
 8008e74:	059b      	lsls	r3, r3, #22
 8008e76:	d4e1      	bmi.n	8008e3c <_fflush_r+0xc>
 8008e78:	6da0      	ldr	r0, [r4, #88]	@ 0x58
 8008e7a:	f7ff fb8d 	bl	8008598 <__retarget_lock_release_recursive>
 8008e7e:	e7dd      	b.n	8008e3c <_fflush_r+0xc>

08008e80 <__swhatbuf_r>:
 8008e80:	b570      	push	{r4, r5, r6, lr}
 8008e82:	460c      	mov	r4, r1
 8008e84:	f9b1 100e 	ldrsh.w	r1, [r1, #14]
 8008e88:	2900      	cmp	r1, #0
 8008e8a:	b096      	sub	sp, #88	@ 0x58
 8008e8c:	4615      	mov	r5, r2
 8008e8e:	461e      	mov	r6, r3
 8008e90:	da0d      	bge.n	8008eae <__swhatbuf_r+0x2e>
 8008e92:	89a3      	ldrh	r3, [r4, #12]
 8008e94:	f013 0f80 	tst.w	r3, #128	@ 0x80
 8008e98:	f04f 0100 	mov.w	r1, #0
 8008e9c:	bf14      	ite	ne
 8008e9e:	2340      	movne	r3, #64	@ 0x40
 8008ea0:	f44f 6380 	moveq.w	r3, #1024	@ 0x400
 8008ea4:	2000      	movs	r0, #0
 8008ea6:	6031      	str	r1, [r6, #0]
 8008ea8:	602b      	str	r3, [r5, #0]
 8008eaa:	b016      	add	sp, #88	@ 0x58
 8008eac:	bd70      	pop	{r4, r5, r6, pc}
 8008eae:	466a      	mov	r2, sp
 8008eb0:	f000 f848 	bl	8008f44 <_fstat_r>
 8008eb4:	2800      	cmp	r0, #0
 8008eb6:	dbec      	blt.n	8008e92 <__swhatbuf_r+0x12>
 8008eb8:	9901      	ldr	r1, [sp, #4]
 8008eba:	f401 4170 	and.w	r1, r1, #61440	@ 0xf000
 8008ebe:	f5a1 5300 	sub.w	r3, r1, #8192	@ 0x2000
 8008ec2:	4259      	negs	r1, r3
 8008ec4:	4159      	adcs	r1, r3
 8008ec6:	f44f 6380 	mov.w	r3, #1024	@ 0x400
 8008eca:	e7eb      	b.n	8008ea4 <__swhatbuf_r+0x24>

08008ecc <__smakebuf_r>:
 8008ecc:	898b      	ldrh	r3, [r1, #12]
 8008ece:	b5f7      	push	{r0, r1, r2, r4, r5, r6, r7, lr}
 8008ed0:	079d      	lsls	r5, r3, #30
 8008ed2:	4606      	mov	r6, r0
 8008ed4:	460c      	mov	r4, r1
 8008ed6:	d507      	bpl.n	8008ee8 <__smakebuf_r+0x1c>
 8008ed8:	f104 0347 	add.w	r3, r4, #71	@ 0x47
 8008edc:	6023      	str	r3, [r4, #0]
 8008ede:	6123      	str	r3, [r4, #16]
 8008ee0:	2301      	movs	r3, #1
 8008ee2:	6163      	str	r3, [r4, #20]
 8008ee4:	b003      	add	sp, #12
 8008ee6:	bdf0      	pop	{r4, r5, r6, r7, pc}
 8008ee8:	ab01      	add	r3, sp, #4
 8008eea:	466a      	mov	r2, sp
 8008eec:	f7ff ffc8 	bl	8008e80 <__swhatbuf_r>
 8008ef0:	9f00      	ldr	r7, [sp, #0]
 8008ef2:	4605      	mov	r5, r0
 8008ef4:	4639      	mov	r1, r7
 8008ef6:	4630      	mov	r0, r6
 8008ef8:	f7ff fbbc 	bl	8008674 <_malloc_r>
 8008efc:	b948      	cbnz	r0, 8008f12 <__smakebuf_r+0x46>
 8008efe:	f9b4 300c 	ldrsh.w	r3, [r4, #12]
 8008f02:	059a      	lsls	r2, r3, #22
 8008f04:	d4ee      	bmi.n	8008ee4 <__smakebuf_r+0x18>
 8008f06:	f023 0303 	bic.w	r3, r3, #3
 8008f0a:	f043 0302 	orr.w	r3, r3, #2
 8008f0e:	81a3      	strh	r3, [r4, #12]
 8008f10:	e7e2      	b.n	8008ed8 <__smakebuf_r+0xc>
 8008f12:	89a3      	ldrh	r3, [r4, #12]
 8008f14:	6020      	str	r0, [r4, #0]
 8008f16:	f043 0380 	orr.w	r3, r3, #128	@ 0x80
 8008f1a:	81a3      	strh	r3, [r4, #12]
 8008f1c:	9b01      	ldr	r3, [sp, #4]
 8008f1e:	e9c4 0704 	strd	r0, r7, [r4, #16]
 8008f22:	b15b      	cbz	r3, 8008f3c <__smakebuf_r+0x70>
 8008f24:	f9b4 100e 	ldrsh.w	r1, [r4, #14]
 8008f28:	4630      	mov	r0, r6
 8008f2a:	f000 f81d 	bl	8008f68 <_isatty_r>
 8008f2e:	b128      	cbz	r0, 8008f3c <__smakebuf_r+0x70>
 8008f30:	89a3      	ldrh	r3, [r4, #12]
 8008f32:	f023 0303 	bic.w	r3, r3, #3
 8008f36:	f043 0301 	orr.w	r3, r3, #1
 8008f3a:	81a3      	strh	r3, [r4, #12]
 8008f3c:	89a3      	ldrh	r3, [r4, #12]
 8008f3e:	431d      	orrs	r5, r3
 8008f40:	81a5      	strh	r5, [r4, #12]
 8008f42:	e7cf      	b.n	8008ee4 <__smakebuf_r+0x18>

08008f44 <_fstat_r>:
 8008f44:	b538      	push	{r3, r4, r5, lr}
 8008f46:	4d07      	ldr	r5, [pc, #28]	@ (8008f64 <_fstat_r+0x20>)
 8008f48:	2300      	movs	r3, #0
 8008f4a:	4604      	mov	r4, r0
 8008f4c:	4608      	mov	r0, r1
 8008f4e:	4611      	mov	r1, r2
 8008f50:	602b      	str	r3, [r5, #0]
 8008f52:	f7f9 f8c8 	bl	80020e6 <_fstat>
 8008f56:	1c43      	adds	r3, r0, #1
 8008f58:	d102      	bne.n	8008f60 <_fstat_r+0x1c>
 8008f5a:	682b      	ldr	r3, [r5, #0]
 8008f5c:	b103      	cbz	r3, 8008f60 <_fstat_r+0x1c>
 8008f5e:	6023      	str	r3, [r4, #0]
 8008f60:	bd38      	pop	{r3, r4, r5, pc}
 8008f62:	bf00      	nop
 8008f64:	2002984c 	.word	0x2002984c

08008f68 <_isatty_r>:
 8008f68:	b538      	push	{r3, r4, r5, lr}
 8008f6a:	4d06      	ldr	r5, [pc, #24]	@ (8008f84 <_isatty_r+0x1c>)
 8008f6c:	2300      	movs	r3, #0
 8008f6e:	4604      	mov	r4, r0
 8008f70:	4608      	mov	r0, r1
 8008f72:	602b      	str	r3, [r5, #0]
 8008f74:	f7f9 f8c7 	bl	8002106 <_isatty>
 8008f78:	1c43      	adds	r3, r0, #1
 8008f7a:	d102      	bne.n	8008f82 <_isatty_r+0x1a>
 8008f7c:	682b      	ldr	r3, [r5, #0]
 8008f7e:	b103      	cbz	r3, 8008f82 <_isatty_r+0x1a>
 8008f80:	6023      	str	r3, [r4, #0]
 8008f82:	bd38      	pop	{r3, r4, r5, pc}
 8008f84:	2002984c 	.word	0x2002984c

08008f88 <_sbrk_r>:
 8008f88:	b538      	push	{r3, r4, r5, lr}
 8008f8a:	4d06      	ldr	r5, [pc, #24]	@ (8008fa4 <_sbrk_r+0x1c>)
 8008f8c:	2300      	movs	r3, #0
 8008f8e:	4604      	mov	r4, r0
 8008f90:	4608      	mov	r0, r1
 8008f92:	602b      	str	r3, [r5, #0]
 8008f94:	f7f9 f8d0 	bl	8002138 <_sbrk>
 8008f98:	1c43      	adds	r3, r0, #1
 8008f9a:	d102      	bne.n	8008fa2 <_sbrk_r+0x1a>
 8008f9c:	682b      	ldr	r3, [r5, #0]
 8008f9e:	b103      	cbz	r3, 8008fa2 <_sbrk_r+0x1a>
 8008fa0:	6023      	str	r3, [r4, #0]
 8008fa2:	bd38      	pop	{r3, r4, r5, pc}
 8008fa4:	2002984c 	.word	0x2002984c

08008fa8 <_init>:
 8008fa8:	b5f8      	push	{r3, r4, r5, r6, r7, lr}
 8008faa:	bf00      	nop
 8008fac:	bcf8      	pop	{r3, r4, r5, r6, r7}
 8008fae:	bc08      	pop	{r3}
 8008fb0:	469e      	mov	lr, r3
 8008fb2:	4770      	bx	lr

08008fb4 <_fini>:
 8008fb4:	b5f8      	push	{r3, r4, r5, r6, r7, lr}
 8008fb6:	bf00      	nop
 8008fb8:	bcf8      	pop	{r3, r4, r5, r6, r7}
 8008fba:	bc08      	pop	{r3}
 8008fbc:	469e      	mov	lr, r3
 8008fbe:	4770      	bx	lr
